 Digitalwave.pro

 Timestamp is 5ea0baa1 (Wed Apr 22 18:44:01 2020)

 Preferred load address is 10000000

 Start         Length     Name                   Class
 0001:00000000 00000b90H .text$di                CODE
 0001:00000b90 000715e0H .text$mn                CODE
 0001:00072170 00001e00H .text$x                 CODE
 0001:00073f70 0000013bH .text$yd                CODE
 0002:00000000 000001c8H .idata$5                DATA
 0002:000001c8 00000004H .00cfg                  DATA
 0002:000001cc 00000004H .CRT$XCA                DATA
 0002:000001d0 00000014H .CRT$XCC                DATA
 0002:000001e4 00000008H .CRT$XCL                DATA
 0002:000001ec 0000019cH .CRT$XCU                DATA
 0002:00000388 00000004H .CRT$XCZ                DATA
 0002:0000038c 00000004H .CRT$XIA                DATA
 0002:00000390 0000001cH .CRT$XIC                DATA
 0002:000003ac 00000004H .CRT$XIZ                DATA
 0002:000003b0 00000004H .CRT$XLA                DATA
 0002:000003b4 00000004H .CRT$XLZ                DATA
 0002:000003b8 00000004H .CRT$XPA                DATA
 0002:000003bc 00000004H .CRT$XPB                DATA
 0002:000003c0 00000008H .CRT$XPX                DATA
 0002:000003c8 00000004H .CRT$XPXA               DATA
 0002:000003cc 00000004H .CRT$XPZ                DATA
 0002:000003d0 00000004H .CRT$XTA                DATA
 0002:000003d4 0000000cH .CRT$XTZ                DATA
 0002:000003d8 00000000H .gfids$y                DATA
 0002:000003e0 00017708H .rdata                  DATA
 0002:00017ae8 00000018H .rdata$T                DATA
 0002:00017b00 00000f90H .rdata$r                DATA
 0002:00018a90 000003ecH .rdata$zzzdbg           DATA
 0002:00018e7c 00000004H .rtc$IAA                DATA
 0002:00018e80 00000004H .rtc$IZZ                DATA
 0002:00018e84 00000004H .rtc$TAA                DATA
 0002:00018e88 00000004H .rtc$TZZ                DATA
 0002:00018e8c 00000004H .tls                    DATA
 0002:00018e90 00000004H .tls$                   DATA
 0002:00018e94 00000004H .tls$ZZZ                DATA
 0002:00018e98 000032f8H .xdata$x                DATA
 0002:0001c190 00000674H .edata                  DATA
 0002:0001c804 00000050H .idata$2                DATA
 0002:0001c854 00000014H .idata$3                DATA
 0002:0001c868 000001c8H .idata$4                DATA
 0002:0001ca30 00000810H .idata$6                DATA
 0003:00000000 0002eed0H .data                   DATA
 0003:0002eed0 000007c8H .data$r                 DATA
 0003:0002f698 00086f84H .bss                    DATA
 0004:00000000 00000060H .rsrc$01                DATA
 0004:00000060 00000180H .rsrc$02                DATA

  Address         Publics by Value              Rva+Base       Lib:Object

 0000:00000000       ___guard_iat_count         00000000     <absolute>
 0000:00000000       ___guard_longjmp_count     00000000     <absolute>
 0000:00000000       __except_list              00000000     <absolute>
 0000:00000000       ___guard_fids_count        00000000     <absolute>
 0000:00000000       ___guard_longjmp_table     00000000     <absolute>
 0000:00000000       ___hybrid_code_map_count   00000000     <absolute>
 0000:00000000       ___hybrid_auxiliary_iat    00000000     <absolute>
 0000:00000000       ___dynamic_value_reloc_table 00000000     <absolute>
 0000:00000000       ___guard_fids_table        00000000     <absolute>
 0000:00000000       ___volatile_metadata       00000000     <absolute>
 0000:00000000       ___guard_iat_table         00000000     <absolute>
 0000:00000000       ___safe_se_handler_count   00000000     <absolute>
 0000:00000000       ___hybrid_code_map         00000000     <absolute>
 0000:00000000       ___enclave_config          00000000     <absolute>
 0000:00000000       ___safe_se_handler_table   00000000     <absolute>
 0000:0000002c       __tls_array                0000002c     <absolute>
 0000:00000100       ___guard_flags             00000100     <absolute>
 0000:00000000       ___ImageBase               10000000     <linker-defined>
 0001:00000b90       ??$?0$$QAV?$basic_string@DU?$char_traits@D@std@@V?$allocator@D@2@@std@@$$Z$$V@?$pair@$$CBV?$basic_string@DU?$char_traits@D@std@@V?$allocator@D@2@@std@@V?$shared_ptr@UNode@NetvarTree@@@2@@std@@QAE@Upiecewise_construct_t@1@V?$tuple@$$QAV?$basic_string@DU?$char_traits@D@std@@V?$allocator@D@2@@std@@@1@V?$tuple@$$V@1@@Z 10001b90 f i Aimbot.obj
 0001:00000bc0       ??$?0$$V@?$_Compressed_pair@V?$allocator@D@std@@V?$_String_val@U?$_Simple_types@D@std@@@2@$00@std@@QAE@U_Zero_then_variadic_args_t@1@@Z 10001bc0 f i Aimbot.obj
 0001:00000be0       ??$?0$$V@?$_Compressed_pair@V?$allocator@UVertex_t@@@std@@V?$_Vector_val@U?$_Simple_types@UVertex_t@@@std@@@2@$00@std@@QAE@U_Zero_then_variadic_args_t@1@@Z 10001be0 f i ESP.obj
 0001:00000be0       ??$?0$$V@?$_Compressed_pair@V?$allocator@H@std@@V?$_Vector_val@U?$_Simple_types@H@std@@@2@$00@std@@QAE@U_Zero_then_variadic_args_t@1@@Z 10001be0 f i Aimbot.obj
 0001:00000be0       ??$?0$$V@?$_Compressed_pair@V?$allocator@Uzgui_control_render_t@zgui@@@std@@V?$_Vector_val@U?$_Simple_types@Uzgui_control_render_t@zgui@@@std@@@2@$00@std@@QAE@U_Zero_then_variadic_args_t@1@@Z 10001be0 f i zgui.obj
 0001:00000be0       ??$?0$$V@?$_Compressed_pair@V?$allocator@PAV?$ConfigValue@H@@@std@@V?$_Vector_val@U?$_Simple_types@PAV?$ConfigValue@H@@@std@@@2@$00@std@@QAE@U_Zero_then_variadic_args_t@1@@Z 10001be0 f i TGFCfg.obj
 0001:00000be0       ??$?0$$V@?$_Compressed_pair@V?$allocator@Vtrace_info@@@std@@V?$_Vector_val@U?$_Simple_types@Vtrace_info@@@std@@@2@$00@std@@QAE@U_Zero_then_variadic_args_t@1@@Z 10001be0 f i Hooks.obj
 0001:00000be0       ??$?0$$V@?$_Compressed_pair@V?$allocator@V?$basic_string@DU?$char_traits@D@std@@V?$allocator@D@2@@std@@@std@@V?$_Vector_val@U?$_Simple_types@V?$basic_string@DU?$char_traits@D@std@@V?$allocator@D@2@@std@@@std@@@2@$00@std@@QAE@U_Zero_then_variadic_args_t@1@@Z 10001be0 f i zgui.obj
 0001:00000be0       ??$?0$$V@?$_Compressed_pair@V?$allocator@VVector@@@std@@V?$_Vector_val@U?$_Simple_types@VVector@@@std@@@2@$00@std@@QAE@U_Zero_then_variadic_args_t@1@@Z 10001be0 f i Aimbot.obj
 0001:00000be0       ??$?0$$V@?$_Compressed_pair@V?$allocator@PAV?$ConfigValue@M@@@std@@V?$_Vector_val@U?$_Simple_types@PAV?$ConfigValue@M@@@std@@@2@$00@std@@QAE@U_Zero_then_variadic_args_t@1@@Z 10001be0 f i TGFCfg.obj
 0001:00000be0       ??$?0$$V@?$_Compressed_pair@V?$allocator@UHitMarker_t@@@std@@V?$_Vector_val@U?$_Simple_types@UHitMarker_t@@@std@@@2@$00@std@@QAE@U_Zero_then_variadic_args_t@1@@Z 10001be0 f i Hooks.obj
 0001:00000be0       ??$?0$$V@?$_Compressed_pair@V?$allocator@PAV?$ConfigValue@_N@@@std@@V?$_Vector_val@U?$_Simple_types@PAV?$ConfigValue@_N@@@std@@@2@$00@std@@QAE@U_Zero_then_variadic_args_t@1@@Z 10001be0 f i TGFCfg.obj
 0001:00000be0       ??$?0$$V@?$_Compressed_pair@V?$allocator@PAVIMaterial@@@std@@V?$_Vector_val@U?$_Simple_types@PAVIMaterial@@@std@@@2@$00@std@@QAE@U_Zero_then_variadic_args_t@1@@Z 10001be0 f i Chams.obj
 0001:00000c00       ??$?0AAV?$_List_iterator@V?$_List_val@U?$_List_simple_types@U?$pair@$$CBV?$basic_string@DU?$char_traits@D@std@@V?$allocator@D@2@@std@@V?$shared_ptr@UNode@NetvarTree@@@2@@std@@@std@@@std@@@std@@_N$0A@@?$pair@V?$_List_iterator@V?$_List_val@U?$_List_simple_types@U?$pair@$$CBV?$basic_string@DU?$char_traits@D@std@@V?$allocator@D@2@@std@@V?$shared_ptr@UNode@NetvarTree@@@2@@std@@@std@@@std@@@std@@_N@std@@QAE@AAV?$_List_iterator@V?$_List_val@U?$_List_simple_types@U?$pair@$$CBV?$basic_string@DU?$char_traits@D@std@@V?$allocator@D@2@@std@@V?$shared_ptr@UNode@NetvarTree@@@2@@std@@@std@@@std@@@1@$$QA_N@Z 10001c00 f i Aimbot.obj
 0001:00000c00       ??$?0V?$_List_iterator@V?$_List_val@U?$_List_simple_types@U?$pair@$$CBV?$basic_string@DU?$char_traits@D@std@@V?$allocator@D@2@@std@@V?$shared_ptr@UNode@NetvarTree@@@2@@std@@@std@@@std@@@std@@_N$0A@@?$pair@V?$_List_iterator@V?$_List_val@U?$_List_simple_types@U?$pair@$$CBV?$basic_string@DU?$char_traits@D@std@@V?$allocator@D@2@@std@@V?$shared_ptr@UNode@NetvarTree@@@2@@std@@@std@@@std@@@std@@_N@std@@QAE@$$QAV?$_List_iterator@V?$_List_val@U?$_List_simple_types@U?$pair@$$CBV?$basic_string@DU?$char_traits@D@std@@V?$allocator@D@2@@std@@V?$shared_ptr@UNode@NetvarTree@@@2@@std@@@std@@@std@@@1@$$QA_N@Z 10001c00 f i Aimbot.obj
 0001:00000c40       ??$?0UPlayerRecords@@@?$allocator@U_Container_proxy@std@@@std@@QAE@ABV?$allocator@UPlayerRecords@@@1@@Z 10001c40 f i LagComp.obj
 0001:00000c40       ??$?0Uvec2@zgui@@@?$allocator@U_Container_proxy@std@@@std@@QAE@ABV?$allocator@Uvec2@zgui@@@1@@Z 10001c40 f i zgui.obj
 0001:00000c40       ??0?$tuple@$$V@std@@QAE@ABV01@@Z 10001c40 f i Aimbot.obj
 0001:00000c40       ??$?0UPlayerRecords@@@?$allocator@PAUPlayerRecords@@@std@@QAE@ABV?$allocator@UPlayerRecords@@@1@@Z 10001c40 f i LagComp.obj
 0001:00000c40       ??$?0U?$integral_constant@_N$00@std@@@_Unused_parameter@std@@QAE@$$QAU?$integral_constant@_N$00@1@@Z 10001c40 f i Aimbot.obj
 0001:00000c40       ??$?0Uvec2@zgui@@@?$allocator@PAUvec2@zgui@@@std@@QAE@ABV?$allocator@Uvec2@zgui@@@1@@Z 10001c40 f i zgui.obj
 0001:00000c40       ??$?0U_Exact_args_t@std@@$0A@@?$tuple@$$V@std@@QAE@U_Exact_args_t@1@@Z 10001c40 f i Aimbot.obj
 0001:00000c40       ??$?0U?$pair@$$CBV?$basic_string@DU?$char_traits@D@std@@V?$allocator@D@2@@std@@V?$shared_ptr@UNode@NetvarTree@@@2@@std@@@?$allocator@U?$_List_node@U?$pair@$$CBV?$basic_string@DU?$char_traits@D@std@@V?$allocator@D@2@@std@@V?$shared_ptr@UNode@NetvarTree@@@2@@std@@PAX@std@@@std@@QAE@ABV?$allocator@U?$pair@$$CBV?$basic_string@DU?$char_traits@D@std@@V?$allocator@D@2@@std@@V?$shared_ptr@UNode@NetvarTree@@@2@@std@@@1@@Z 10001c40 f i NetvarManager.obj
 0001:00000c40       ??$?0U?$pair@$$CBV?$basic_string@DU?$char_traits@D@std@@V?$allocator@D@2@@std@@V?$shared_ptr@UNode@NetvarTree@@@2@@std@@@?$allocator@V?$_List_unchecked_iterator@V?$_List_val@U?$_List_simple_types@U?$pair@$$CBV?$basic_string@DU?$char_traits@D@std@@V?$allocator@D@2@@std@@V?$shared_ptr@UNode@NetvarTree@@@2@@std@@@std@@@std@@@std@@@std@@QAE@ABV?$allocator@U?$pair@$$CBV?$basic_string@DU?$char_traits@D@std@@V?$allocator@D@2@@std@@V?$shared_ptr@UNode@NetvarTree@@@2@@std@@@1@@Z 10001c40 f i NetvarManager.obj
 0001:00000c50       ??$?0U_Exact_args_t@std@@V?$basic_string@DU?$char_traits@D@std@@V?$allocator@D@2@@1@$$V$0A@@?$tuple@$$QAV?$basic_string@DU?$char_traits@D@std@@V?$allocator@D@2@@std@@@std@@QAE@U_Exact_args_t@1@$$QAV?$basic_string@DU?$char_traits@D@std@@V?$allocator@D@2@@1@@Z 10001c50 f i Aimbot.obj
 0001:00000c90       ??$?0ABV?$allocator@_W@std@@$$V@?$_Compressed_pair@V?$allocator@_W@std@@V?$_String_val@U?$_Simple_types@_W@std@@@2@$00@std@@QAE@U_One_then_variadic_args_t@1@ABV?$allocator@_W@1@@Z 10001c90 f i Hooks.obj
 0001:00000c90       ??$?0ABV?$allocator@D@std@@$$V@?$_Compressed_pair@V?$allocator@D@std@@V?$_String_val@U?$_Simple_types@D@std@@@2@$00@std@@QAE@U_One_then_variadic_args_t@1@ABV?$allocator@D@1@@Z 10001c90 f i zgui.obj
 0001:00000c90       ??$?0V?$allocator@D@std@@$$V@?$_Compressed_pair@V?$allocator@D@std@@V?$_String_val@U?$_Simple_types@D@std@@@2@$00@std@@QAE@U_One_then_variadic_args_t@1@$$QAV?$allocator@D@1@@Z 10001c90 f i Aimbot.obj
 0001:00000cc0       ??$?0V?$allocator@D@std@@X@?$_String_alloc@U?$_String_base_types@DV?$allocator@D@std@@@std@@@std@@QAE@$$QAV?$allocator@D@1@@Z 10001cc0 f i Aimbot.obj
 0001:00000cc0       ??$?0ABV?$allocator@D@std@@X@?$_String_alloc@U?$_String_base_types@DV?$allocator@D@std@@@std@@@std@@QAE@ABV?$allocator@D@1@@Z 10001cc0 f i zgui.obj
 0001:00000cc0       ??$?0ABV?$allocator@_W@std@@X@?$_String_alloc@U?$_String_base_types@_WV?$allocator@_W@std@@@std@@@std@@QAE@ABV?$allocator@_W@1@@Z 10001cc0 f i Hooks.obj
 0001:00000d00       ??$?0ABV?$allocator@Umulti_select_item@zgui@@@std@@$$V@?$_Compressed_pair@V?$allocator@Umulti_select_item@zgui@@@std@@V?$_Vector_val@U?$_Simple_types@Umulti_select_item@zgui@@@std@@@2@$00@std@@QAE@U_One_then_variadic_args_t@1@ABV?$allocator@Umulti_select_item@zgui@@@1@@Z 10001d00 f i Menu.obj
 0001:00000d00       ??$?0V?$allocator@VVector@@@std@@$$V@?$_Compressed_pair@V?$allocator@VVector@@@std@@V?$_Vector_val@U?$_Simple_types@VVector@@@std@@@2@$00@std@@QAE@U_One_then_variadic_args_t@1@$$QAV?$allocator@VVector@@@1@@Z 10001d00 f i Aimbot.obj
 0001:00000d00       ??$?0ABV?$allocator@PBD@std@@$$V@?$_Compressed_pair@V?$allocator@PBD@std@@V?$_Vector_val@U?$_Simple_types@PBD@std@@@2@$00@std@@QAE@U_One_then_variadic_args_t@1@ABV?$allocator@PBD@1@@Z 10001d00 f i Hooks.obj
 0001:00000d00       ??$?0V?$allocator@V?$basic_string@DU?$char_traits@D@std@@V?$allocator@D@2@@std@@@std@@$$V@?$_Compressed_pair@V?$allocator@V?$basic_string@DU?$char_traits@D@std@@V?$allocator@D@2@@std@@@std@@V?$_Vector_val@U?$_Simple_types@V?$basic_string@DU?$char_traits@D@std@@V?$allocator@D@2@@std@@@std@@@2@$00@std@@QAE@U_One_then_variadic_args_t@1@$$QAV?$allocator@V?$basic_string@DU?$char_traits@D@std@@V?$allocator@D@2@@std@@@1@@Z 10001d00 f i zgui.obj
 0001:00000d00       ??$?0ABV?$allocator@V?$basic_string@DU?$char_traits@D@std@@V?$allocator@D@2@@std@@@std@@$$V@?$_Compressed_pair@V?$allocator@V?$basic_string@DU?$char_traits@D@std@@V?$allocator@D@2@@std@@@std@@V?$_Vector_val@U?$_Simple_types@V?$basic_string@DU?$char_traits@D@std@@V?$allocator@D@2@@std@@@std@@@2@$00@std@@QAE@U_One_then_variadic_args_t@1@ABV?$allocator@V?$basic_string@DU?$char_traits@D@std@@V?$allocator@D@2@@std@@@1@@Z 10001d00 f i Menu.obj
 0001:00000d00       ??$?0ABV?$allocator@V?$_List_unchecked_iterator@V?$_List_val@U?$_List_simple_types@U?$pair@$$CBV?$basic_string@DU?$char_traits@D@std@@V?$allocator@D@2@@std@@V?$shared_ptr@UNode@NetvarTree@@@2@@std@@@std@@@std@@@std@@@std@@$$V@?$_Compressed_pair@V?$allocator@V?$_List_unchecked_iterator@V?$_List_val@U?$_List_simple_types@U?$pair@$$CBV?$basic_string@DU?$char_traits@D@std@@V?$allocator@D@2@@std@@V?$shared_ptr@UNode@NetvarTree@@@2@@std@@@std@@@std@@@std@@@std@@V?$_Vector_val@U?$_Simple_types@V?$_List_unchecked_iterator@V?$_List_val@U?$_List_simple_types@U?$pair@$$CBV?$basic_string@DU?$char_traits@D@std@@V?$allocator@D@2@@std@@V?$shared_ptr@UNode@NetvarTree@@@2@@std@@@std@@@std@@@std@@@std@@@2@$00@std@@QAE@U_One_then_variadic_args_t@1@ABV?$allocator@V?$_List_unchecked_iterator@V?$_List_val@U?$_List_simple_types@U?$pair@$$CBV?$basic_string@DU?$char_traits@D@std@@V?$allocator@D@2@@std@@V?$shared_ptr@UNode@NetvarTree@@@2@@std@@@std@@@std@@@std@@@1@@Z 10001d00 f i NetvarManager.obj
 0001:00000d30       ??$?0ABV?$allocator@PBD@std@@X@?$_Vector_alloc@U?$_Vec_base_types@PBDV?$allocator@PBD@std@@@std@@@std@@QAE@ABV?$allocator@PBD@1@@Z 10001d30 f i Hooks.obj
 0001:00000d30       ??$?0ABV?$allocator@V?$_List_unchecked_iterator@V?$_List_val@U?$_List_simple_types@U?$pair@$$CBV?$basic_string@DU?$char_traits@D@std@@V?$allocator@D@2@@std@@V?$shared_ptr@UNode@NetvarTree@@@2@@std@@@std@@@std@@@std@@@std@@X@?$_Vector_alloc@U?$_Vec_base_types@V?$_List_unchecked_iterator@V?$_List_val@U?$_List_simple_types@U?$pair@$$CBV?$basic_string@DU?$char_traits@D@std@@V?$allocator@D@2@@std@@V?$shared_ptr@UNode@NetvarTree@@@2@@std@@@std@@@std@@@std@@V?$allocator@V?$_List_unchecked_iterator@V?$_List_val@U?$_List_simple_types@U?$pair@$$CBV?$basic_string@DU?$char_traits@D@std@@V?$allocator@D@2@@std@@V?$shared_ptr@UNode@NetvarTree@@@2@@std@@@std@@@std@@@std@@@2@@std@@@std@@QAE@ABV?$allocator@V?$_List_unchecked_iterator@V?$_List_val@U?$_List_simple_types@U?$pair@$$CBV?$basic_string@DU?$char_traits@D@std@@V?$allocator@D@2@@std@@V?$shared_ptr@UNode@NetvarTree@@@2@@std@@@std@@@std@@@std@@@1@@Z 10001d30 f i NetvarManager.obj
 0001:00000d30       ??$?0ABV?$allocator@V?$basic_string@DU?$char_traits@D@std@@V?$allocator@D@2@@std@@@std@@X@?$_Vector_alloc@U?$_Vec_base_types@V?$basic_string@DU?$char_traits@D@std@@V?$allocator@D@2@@std@@V?$allocator@V?$basic_string@DU?$char_traits@D@std@@V?$allocator@D@2@@std@@@2@@std@@@std@@QAE@ABV?$allocator@V?$basic_string@DU?$char_traits@D@std@@V?$allocator@D@2@@std@@@1@@Z 10001d30 f i Menu.obj
 0001:00000d30       ??$?0V?$allocator@VVector@@@std@@X@?$_Vector_alloc@U?$_Vec_base_types@VVector@@V?$allocator@VVector@@@std@@@std@@@std@@QAE@$$QAV?$allocator@VVector@@@1@@Z 10001d30 f i Aimbot.obj
 0001:00000d30       ??$?0V?$allocator@V?$basic_string@DU?$char_traits@D@std@@V?$allocator@D@2@@std@@@std@@X@?$_Vector_alloc@U?$_Vec_base_types@V?$basic_string@DU?$char_traits@D@std@@V?$allocator@D@2@@std@@V?$allocator@V?$basic_string@DU?$char_traits@D@std@@V?$allocator@D@2@@std@@@2@@std@@@std@@QAE@$$QAV?$allocator@V?$basic_string@DU?$char_traits@D@std@@V?$allocator@D@2@@std@@@1@@Z 10001d30 f i zgui.obj
 0001:00000d30       ??$?0ABV?$allocator@Umulti_select_item@zgui@@@std@@X@?$_Vector_alloc@U?$_Vec_base_types@Umulti_select_item@zgui@@V?$allocator@Umulti_select_item@zgui@@@std@@@std@@@std@@QAE@ABV?$allocator@Umulti_select_item@zgui@@@1@@Z 10001d30 f i Menu.obj
 0001:00000d70       ??$?0V?$basic_string@DU?$char_traits@D@std@@V?$allocator@D@2@@std@@$$V$0A@@?$tuple@$$QAV?$basic_string@DU?$char_traits@D@std@@V?$allocator@D@2@@std@@@std@@QAE@$$QAV?$basic_string@DU?$char_traits@D@std@@V?$allocator@D@2@@1@@Z 10001d70 f i Aimbot.obj
 0001:00000dd0       ??$?0V?$basic_string@DU?$char_traits@D@std@@V?$allocator@D@2@@std@@@?$_Tuple_val@$$QAV?$basic_string@DU?$char_traits@D@std@@V?$allocator@D@2@@std@@@std@@QAE@$$QAV?$basic_string@DU?$char_traits@D@std@@V?$allocator@D@2@@1@@Z 10001dd0 f i Aimbot.obj
 0001:00000e00       ??$?0V?$tuple@$$QAV?$basic_string@DU?$char_traits@D@std@@V?$allocator@D@2@@std@@@std@@V?$tuple@$$V@1@$0A@$$Z$S@?$pair@$$CBV?$basic_string@DU?$char_traits@D@std@@V?$allocator@D@2@@std@@V?$shared_ptr@UNode@NetvarTree@@@2@@std@@QAE@AAV?$tuple@$$QAV?$basic_string@DU?$char_traits@D@std@@V?$allocator@D@2@@std@@@1@AAV?$tuple@$$V@1@U?$integer_sequence@I$0A@@1@U?$integer_sequence@I$S@1@@Z 10001e00 f i Aimbot.obj
 0001:00000e50       ??$?8DU?$char_traits@D@std@@V?$allocator@D@1@@std@@YA_NABV?$basic_string@DU?$char_traits@D@std@@V?$allocator@D@2@@0@0@Z 10001e50 f i Aimbot.obj
 0001:00000e70       ??D?$_String_iterator@V?$_String_val@U?$_Simple_types@D@std@@@std@@@std@@QBEAADXZ 10001e70 f i Interfaces.obj
 0001:00000e70       ??$?CUNode@NetvarTree@@$0A@@?$shared_ptr@UNode@NetvarTree@@@std@@QBEPAUNode@NetvarTree@@XZ 10001e70 f i Aimbot.obj
 0001:00000e90       ??$CallVFunc@$0BMM@PAVWeaponInfo_t@@$$V@Utils@@SAPAVWeaponInfo_t@@PAX@Z 10001e90 f i Aimbot.obj
 0001:00000ec0       ??$GetOffset@PBD@NetvarTree@@QAEHPBD0@Z 10001ec0 f i Aimbot.obj
 0001:00000f60       ??$GetOffset@PBDPBD@NetvarTree@@QAEHPBD00@Z 10001f60 f i Aimbot.obj
 0001:00001000       ??$GetOffset@PBDPBDPBD@NetvarTree@@QAEHPBD000@Z 10002000 f i Aimbot.obj
 0001:000010a0       ??$GetOffsetRecursive@PBD@NetvarTree@@AAEHAAV?$unordered_map@V?$basic_string@DU?$char_traits@D@std@@V?$allocator@D@2@@std@@V?$shared_ptr@UNode@NetvarTree@@@2@U?$hash@V?$basic_string@DU?$char_traits@D@std@@V?$allocator@D@2@@std@@@2@U?$equal_to@V?$basic_string@DU?$char_traits@D@std@@V?$allocator@D@2@@std@@@2@V?$allocator@U?$pair@$$CBV?$basic_string@DU?$char_traits@D@std@@V?$allocator@D@2@@std@@V?$shared_ptr@UNode@NetvarTree@@@2@@std@@@2@@std@@HPBD1@Z 100020a0 f i Aimbot.obj
 0001:00001130       ??$GetOffsetRecursive@PBDPBD@NetvarTree@@AAEHAAV?$unordered_map@V?$basic_string@DU?$char_traits@D@std@@V?$allocator@D@2@@std@@V?$shared_ptr@UNode@NetvarTree@@@2@U?$hash@V?$basic_string@DU?$char_traits@D@std@@V?$allocator@D@2@@std@@@2@U?$equal_to@V?$basic_string@DU?$char_traits@D@std@@V?$allocator@D@2@@std@@@2@V?$allocator@U?$pair@$$CBV?$basic_string@DU?$char_traits@D@std@@V?$allocator@D@2@@std@@V?$shared_ptr@UNode@NetvarTree@@@2@@std@@@2@@std@@HPBD11@Z 10002130 f i Aimbot.obj
 0001:000011d0       ??$GetVFunc@P6AXPAXHHPBDZZ@Utils@@SAP6AXPAXHHPBDZZ0I@Z 100021d0 f i Hooks.obj
 0001:000011d0       ??$GetVFunc@P6EXPAXAAVVector@@@Z@Utils@@SAP6EXPAXAAVVector@@@Z0I@Z 100021d0 f i Aimbot.obj
 0001:000011d0       ??$GetVFunc@P6EMPAX@Z@Utils@@SAP6EMPAX@Z0I@Z 100021d0 f i Aimbot.obj
 0001:000011d0       ??$GetVFunc@P6EIPAX@Z@Utils@@SAP6EIPAX@Z0I@Z 100021d0 f i Hooks.obj
 0001:000011d0       ??$GetVFunc@P6EGPAX@Z@Utils@@SAP6EGPAX@Z0I@Z 100021d0 f i Hooks.obj
 0001:000011d0       ??$GetVFunc@P6EXPAXKPB_WAAH2@Z@Utils@@SAP6EXPAXKPB_WAAH2@Z0I@Z 100021d0 f i Hooks.obj
 0001:000011d0       ??$GetVFunc@P6EGPAXG@Z@Utils@@SAP6EGPAXG@Z0I@Z 100021d0 f i Hooks.obj
 0001:000011d0       ??$GetVFunc@P6EXPAXHPAUVertex_t@@_N@Z@Utils@@SAP6EXPAXHPAUVertex_t@@_N@Z0I@Z 100021d0 f i ESP.obj
 0001:000011d0       ??$GetVFunc@P6EXPAXHHHH@Z@Utils@@SAP6EXPAXHHHH@Z0I@Z 100021d0 f i Hooks.obj
 0001:000011d0       ??$GetVFunc@P6EXPAXPAVIMaterial@@W4OverrideType_t@@H@Z@Utils@@SAP6EXPAXPAVIMaterial@@W4OverrideType_t@@H@Z0I@Z 100021d0 f i Chams.obj
 0001:000011d0       ??$GetVFunc@P6EXPAXM@Z@Utils@@SAP6EXPAXM@Z0I@Z 100021d0 f i Hooks.obj
 0001:000011d0       ??$GetVFunc@P6EXPAXAAVVector@@1AAMHHHHM@Z@Utils@@SAP6EXPAXAAVVector@@1AAMHHHHM@Z0I@Z 100021d0 f i Hooks.obj
 0001:000011d0       ??$GetVFunc@P6EXPAXHH@Z@Utils@@SAP6EXPAXHH@Z0I@Z 100021d0 f i Hooks.obj
 0001:000011d0       ??$GetVFunc@P6EPBDPAVIPanel@@I@Z@Utils@@SAP6EPBDPAVIPanel@@I@ZPAXI@Z 100021d0 f i Hooks.obj
 0001:000011d0       ??$GetVFunc@P6EPAVIMaterial@@PAXG@Z@Utils@@SAP6EPAVIMaterial@@PAXG@Z0I@Z 100021d0 f i Hooks.obj
 0001:000011d0       ??$GetVFunc@P6EHPAX_N@Z@Utils@@SAP6EHPAX_N@Z0I@Z 100021d0 f i ESP.obj
 0001:000011d0       ??$GetVFunc@P6EXPAXK@Z@Utils@@SAP6EXPAXK@Z0I@Z 100021d0 f i Hooks.obj
 0001:000011d0       ??$GetVFunc@P6EPAVIMaterial@@PAXPBD1_N1@Z@Utils@@SAP6EPAVIMaterial@@PAXPBD1_N1@Z0I@Z 100021d0 f i Chams.obj
 0001:000011d0       ??$DUMBNIGGERSLOL@P6EPAVNetChannel@@PAX@Z@IVEngineClient@@SAP6EPAVNetChannel@@PAX@Z0I@Z 100021d0 f i LagComp.obj
 0001:000011d0       ??$GetVFunc@P6EXPAX@Z@Utils@@SAP6EXPAX@Z0I@Z 100021d0 f i ResolverRecode.obj
 0001:000011d0       ??$GetVFunc@P6EXPAXKPBDHHHHHHH@Z@Utils@@SAP6EXPAXKPBDHHHHHHH@Z0I@Z 100021d0 f i Hooks.obj
 0001:000011d0       ??$GetVFunc@P6EXPAXH@Z@Utils@@SAP6EXPAXH@Z0I@Z 100021d0 f i Hooks.obj
 0001:000011d0       ??$GetVFunc@P6EXPAXPB_WHH@Z@Utils@@SAP6EXPAXPB_WHH@Z0I@Z 100021d0 f i Hooks.obj
 0001:000011d0       ??$GetVFunc@P6EAAVVector@@PAX@Z@Utils@@SAP6EAAVVector@@PAX@Z0I@Z 100021d0 f i Hooks.obj
 0001:000011e0       ??$GetValue@W4EntityFlags@@@C_BaseEntity@@AAE?AW4EntityFlags@@H@Z 100021e0 f i Aimbot.obj
 0001:000011e0       ??$GetValue@H@C_BaseCombatWeapon@@AAEHH@Z 100021e0 f i Aimbot.obj
 0001:000011e0       ??$GetValue@W4MoveType_t@@@C_BaseEntity@@AAE?AW4MoveType_t@@H@Z 100021e0 f i AntiAim.obj
 0001:000011e0       ??$GetValue@H@C_BaseEntity@@AAEHH@Z 100021e0 f i Aimbot.obj
 0001:00001200       ??$GetValue@M@C_BaseEntity@@AAEMH@Z 10002200 f i Aimbot.obj
 0001:00001200       ??$GetValue@M@C_BaseCombatWeapon@@AAEMH@Z 10002200 f i Aimbot.obj
 0001:00001220       ??$GetValue@VCBaseHandle@@@C_BaseEntity@@AAE?AVCBaseHandle@@H@Z 10002220 f i Aimbot.obj
 0001:00001240       ??$GetValue@VVector@@@C_BaseEntity@@AAE?AVVector@@H@Z 10002240 f i Aimbot.obj
 0001:00001270       ??$GetValue@W4ItemDefinitionIndex@@@C_BaseCombatWeapon@@AAE?AW4ItemDefinitionIndex@@H@Z 10002270 f i Aimbot.obj
 0001:00001290       ??$GetValue@_N@C_BaseEntity@@AAE_NH@Z 10002290 f i Aimbot.obj
 0001:000012b0       ??$_Allocate@$07U_Default_allocate_traits@std@@$0A@@std@@YAPAXI@Z 100022b0 f i Aimbot.obj
 0001:000012f0       ??$_Allocate_manually_vector_aligned@U_Default_allocate_traits@std@@@std@@YAPAXI@Z 100022f0 f i Aimbot.obj
 0001:00001360       ??$_Buy_if_not_node@AAU?$pair@$$CBV?$basic_string@DU?$char_traits@D@std@@V?$allocator@D@2@@std@@V?$shared_ptr@UNode@NetvarTree@@@2@@std@@@?$_Hash@V?$_Umap_traits@V?$basic_string@DU?$char_traits@D@std@@V?$allocator@D@2@@std@@V?$shared_ptr@UNode@NetvarTree@@@2@V?$_Uhash_compare@V?$basic_string@DU?$char_traits@D@std@@V?$allocator@D@2@@std@@U?$hash@V?$basic_string@DU?$char_traits@D@std@@V?$allocator@D@2@@std@@@2@U?$equal_to@V?$basic_string@DU?$char_traits@D@std@@V?$allocator@D@2@@std@@@2@@2@V?$allocator@U?$pair@$$CBV?$basic_string@DU?$char_traits@D@std@@V?$allocator@D@2@@std@@V?$shared_ptr@UNode@NetvarTree@@@2@@std@@@2@$0A@@std@@@std@@IAE?AV?$_List_unchecked_iterator@V?$_List_val@U?$_List_simple_types@U?$pair@$$CBV?$basic_string@DU?$char_traits@D@std@@V?$allocator@D@2@@std@@V?$shared_ptr@UNode@NetvarTree@@@2@@std@@@std@@@std@@@1@AAU?$pair@$$CBV?$basic_string@DU?$char_traits@D@std@@V?$allocator@D@2@@std@@V?$shared_ptr@UNode@NetvarTree@@@2@@1@V21@@Z 10002360 f i Aimbot.obj
 0001:00001380       ??$_Buynode@ABUpiecewise_construct_t@std@@V?$tuple@$$QAV?$basic_string@DU?$char_traits@D@std@@V?$allocator@D@2@@std@@@2@V?$tuple@$$V@2@@?$_List_buy@U?$pair@$$CBV?$basic_string@DU?$char_traits@D@std@@V?$allocator@D@2@@std@@V?$shared_ptr@UNode@NetvarTree@@@2@@std@@V?$allocator@U?$pair@$$CBV?$basic_string@DU?$char_traits@D@std@@V?$allocator@D@2@@std@@V?$shared_ptr@UNode@NetvarTree@@@2@@std@@@2@@std@@QAEPAU?$_List_node@U?$pair@$$CBV?$basic_string@DU?$char_traits@D@std@@V?$allocator@D@2@@std@@V?$shared_ptr@UNode@NetvarTree@@@2@@std@@PAX@1@PAU21@0ABUpiecewise_construct_t@1@$$QAV?$tuple@$$QAV?$basic_string@DU?$char_traits@D@std@@V?$allocator@D@2@@std@@@1@$$QAV?$tuple@$$V@1@@Z 10002380 f i Aimbot.obj
 0001:00001470       ??$forward@PAV?$ConfigValue@H@@@std@@YA$$QAPAV?$ConfigValue@H@@AAPAV1@@Z 10002470 f i TGFCfg.obj
 0001:00001470       ??$_Unfancy@Uzgui_control_render_t@zgui@@@std@@YAPAUzgui_control_render_t@zgui@@PAU12@@Z 10002470 f i zgui.obj
 0001:00001470       ??$move@AAV?$vector@V?$basic_string@DU?$char_traits@D@std@@V?$allocator@D@2@@std@@V?$allocator@V?$basic_string@DU?$char_traits@D@std@@V?$allocator@D@2@@std@@@2@@std@@@std@@YA$$QAV?$vector@V?$basic_string@DU?$char_traits@D@std@@V?$allocator@D@2@@std@@V?$allocator@V?$basic_string@DU?$char_traits@D@std@@V?$allocator@D@2@@std@@@2@@0@AAV10@@Z 10002470 f i zgui.obj
 0001:00001470       ??$_Get_unwrapped@V?$basic_string@DU?$char_traits@D@std@@V?$allocator@D@2@@std@@@std@@YAPAV?$basic_string@DU?$char_traits@D@std@@V?$allocator@D@2@@0@QAV10@@Z 10002470 f i zgui.obj
 0001:00001470       ??$forward@UVertex_t@@@std@@YA$$QAUVertex_t@@AAU1@@Z 10002470 f i ESP.obj
 0001:00001470       ??$addressof@V?$basic_string@DU?$char_traits@D@std@@V?$allocator@D@2@@std@@@std@@YAPAV?$basic_string@DU?$char_traits@D@std@@V?$allocator@D@2@@0@AAV10@@Z 10002470 f i zgui.obj
 0001:00001470       ??$move@AAPAV?$ConfigValue@_N@@@std@@YA$$QAPAV?$ConfigValue@_N@@AAPAV1@@Z 10002470 f i TGFCfg.obj
 0001:00001470       ??$forward@PAV?$ConfigValue@_N@@@std@@YA$$QAPAV?$ConfigValue@_N@@AAPAV1@@Z 10002470 f i TGFCfg.obj
 0001:00001470       ??$_Get_unwrapped@UHitMarker_t@@@std@@YAPAUHitMarker_t@@QAU1@@Z 10002470 f i Hooks.obj
 0001:00001470       ??$forward@U?$default_delete@VNetvarTree@@@std@@@std@@YA$$QAU?$default_delete@VNetvarTree@@@0@AAU10@@Z 10002470 f i Hooks.obj
 0001:00001470       ??$forward@V?$allocator@D@std@@@std@@YA$$QAV?$allocator@D@0@AAV10@@Z 10002470 f i Aimbot.obj
 0001:00001470       ??$_Unfancy@UPlayerRecords@@@std@@YAPAUPlayerRecords@@PAU1@@Z 10002470 f i LagComp.obj
 0001:00001470       ??$forward@AAPAVShadowVTManager@@@std@@YAAAPAVShadowVTManager@@AAPAV1@@Z 10002470 f i Hooks.obj
 0001:00001470       ??$move@AAUzgui_control_render_t@zgui@@@std@@YA$$QAUzgui_control_render_t@zgui@@AAU12@@Z 10002470 f i zgui.obj
 0001:00001470       ??$move@AAV?$allocator@D@std@@@std@@YA$$QAV?$allocator@D@0@AAV10@@Z 10002470 f i Aimbot.obj
 0001:00001470       ??$_Get_unwrapped@QBD@std@@YAPBQBDQBQBD@Z 10002470 f i Hooks.obj
 0001:00001470       ??$_Unfancy@Umulti_select_item@zgui@@@std@@YAPAUmulti_select_item@zgui@@PAU12@@Z 10002470 f i Menu.obj
 0001:00001470       ??$_Get_unwrapped_n@PAUvec2@zgui@@H$0A@@std@@YAPAPAUvec2@zgui@@QAPAU12@H@Z 10002470 f i zgui.obj
 0001:00001470       ??$_Unfancy_maybe_null@UVertex_t@@@std@@YAPAUVertex_t@@PAU1@@Z 10002470 f i ESP.obj
 0001:00001470       ??$addressof@PA_W@std@@YAPAPA_WAAPA_W@Z 10002470 f i Hooks.obj
 0001:00001470       ??$_Unfancy@V?$basic_string@DU?$char_traits@D@std@@V?$allocator@D@2@@std@@@std@@YAPAV?$basic_string@DU?$char_traits@D@std@@V?$allocator@D@2@@0@PAV10@@Z 10002470 f i zgui.obj
 0001:00001470       ??$forward@U_One_then_variadic_args_t@std@@@std@@YA$$QAU_One_then_variadic_args_t@0@AAU10@@Z 10002470 f i NetvarManager.obj
 0001:00001470       ??$forward@AAPAVIVRenderView@@@std@@YAAAPAVIVRenderView@@AAPAV1@@Z 10002470 f i Hooks.obj
 0001:00001470       ??$forward@U_Container_proxy@std@@@std@@YA$$QAU_Container_proxy@0@AAU10@@Z 10002470 f i LagComp.obj
 0001:00001470       ??$_Get_unwrapped_n@PBDH$0A@@std@@YAPAPBDQAPBDH@Z 10002470 f i Hooks.obj
 0001:00001470       ??$addressof@$$CBV?$codecvt@DDU_Mbstatet@@@std@@@std@@YAPBV?$codecvt@DDU_Mbstatet@@@0@ABV10@@Z 10002470 f i Interfaces.obj
 0001:00001470       ??$_Get_unwrapped_n@UVertex_t@@H$0A@@std@@YAPAUVertex_t@@QAU1@H@Z 10002470 f i ESP.obj
 0001:00001470       ??$addressof@V?$unique_ptr@$$BY0A@IU?$default_delete@$$BY0A@I@std@@@std@@@std@@YAPAV?$unique_ptr@$$BY0A@IU?$default_delete@$$BY0A@I@std@@@0@AAV10@@Z 10002470 f i Hooks.obj
 0001:00001470       ??$_Unfancy@Uvec2@zgui@@@std@@YAPAUvec2@zgui@@PAU12@@Z 10002470 f i zgui.obj
 0001:00001470       ??$_Unfancy@PAV?$ConfigValue@_N@@@std@@YAPAPAV?$ConfigValue@_N@@PAPAV1@@Z 10002470 f i TGFCfg.obj
 0001:00001470       ??$move@AAV?$basic_string@DU?$char_traits@D@std@@V?$allocator@D@2@@std@@@std@@YA$$QAV?$basic_string@DU?$char_traits@D@std@@V?$allocator@D@2@@0@AAV10@@Z 10002470 f i Aimbot.obj
 0001:00001470       ??$_Unfancy@_W@std@@YAPA_WPA_W@Z 10002470 f i Hooks.obj
 0001:00001470       ??$addressof@PAU?$_List_node@U?$pair@$$CBV?$basic_string@DU?$char_traits@D@std@@V?$allocator@D@2@@std@@V?$shared_ptr@UNode@NetvarTree@@@2@@std@@PAX@std@@@std@@YAPAPAU?$_List_node@U?$pair@$$CBV?$basic_string@DU?$char_traits@D@std@@V?$allocator@D@2@@std@@V?$shared_ptr@UNode@NetvarTree@@@2@@std@@PAX@0@AAPAU10@@Z 10002470 f i Aimbot.obj
 0001:00001470       ??$move@AAV?$basic_istream@DU?$char_traits@D@std@@@std@@@std@@YA$$QAV?$basic_istream@DU?$char_traits@D@std@@@0@AAV10@@Z 10002470 f i zgui.obj
 0001:00001470       ??$_Get_unwrapped@PAUvec2@zgui@@@std@@YAPAPAUvec2@zgui@@QAPAU12@@Z 10002470 f i zgui.obj
 0001:00001470       ??$forward@V?$_List_unchecked_iterator@V?$_List_val@U?$_List_simple_types@U?$pair@$$CBV?$basic_string@DU?$char_traits@D@std@@V?$allocator@D@2@@std@@V?$shared_ptr@UNode@NetvarTree@@@2@@std@@@std@@@std@@@std@@@std@@YA$$QAV?$_List_unchecked_iterator@V?$_List_val@U?$_List_simple_types@U?$pair@$$CBV?$basic_string@DU?$char_traits@D@std@@V?$allocator@D@2@@std@@V?$shared_ptr@UNode@NetvarTree@@@2@@std@@@std@@@std@@@0@AAV10@@Z 10002470 f i Aimbot.obj
 0001:00001470       ??$move@AAVtrace_info@@@std@@YA$$QAVtrace_info@@AAV1@@Z 10002470 f i Hooks.obj
 0001:00001470       ??$addressof@V?$_Deque_val@U?$_Deque_simple_types@Uvec2@zgui@@@std@@@std@@@std@@YAPAV?$_Deque_val@U?$_Deque_simple_types@Uvec2@zgui@@@std@@@0@AAV10@@Z 10002470 f i zgui.obj
 0001:00001470       ??$_Get_unwrapped@H@std@@YAPAHQAH@Z 10002470 f i Aimbot.obj
 0001:00001470       ??$_Get_unwrapped@UVertex_t@@@std@@YAPAUVertex_t@@QAU1@@Z 10002470 f i ESP.obj
 0001:00001470       ??$forward@AAPAVNetvarTree@@@std@@YAAAPAVNetvarTree@@AAPAV1@@Z 10002470 f i Hooks.obj
 0001:00001470       ??$move@AAU?$default_delete@$$BY0A@I@std@@@std@@YA$$QAU?$default_delete@$$BY0A@I@0@AAU10@@Z 10002470 f i Hooks.obj
 0001:00001470       ??$forward@AAPAV_Facet_base@std@@@std@@YAAAPAV_Facet_base@0@AAPAV10@@Z 10002470 f i zgui.obj
 0001:00001470       ??$_Get_unwrapped@V?$_List_unchecked_iterator@V?$_List_val@U?$_List_simple_types@U?$pair@$$CBV?$basic_string@DU?$char_traits@D@std@@V?$allocator@D@2@@std@@V?$shared_ptr@UNode@NetvarTree@@@2@@std@@@std@@@std@@@std@@@std@@YAPAV?$_List_unchecked_iterator@V?$_List_val@U?$_List_simple_types@U?$pair@$$CBV?$basic_string@DU?$char_traits@D@std@@V?$allocator@D@2@@std@@V?$shared_ptr@UNode@NetvarTree@@@2@@std@@@std@@@std@@@0@QAV10@@Z 10002470 f i Aimbot.obj
 0001:00001470       ??$_Get_unwrapped@PAUPlayerRecords@@@std@@YAPAPAUPlayerRecords@@QAPAU1@@Z 10002470 f i LagComp.obj
 0001:00001470       ??$addressof@V?$_Vector_val@U?$_Simple_types@UHitMarker_t@@@std@@@std@@@std@@YAPAV?$_Vector_val@U?$_Simple_types@UHitMarker_t@@@std@@@0@AAV10@@Z 10002470 f i Hooks.obj
 0001:00001470       ??$forward@ABV?$shared_ptr@UNode@NetvarTree@@@std@@@std@@YAABV?$shared_ptr@UNode@NetvarTree@@@0@ABV10@@Z 10002470 f i NetvarManager.obj
 0001:00001470       ??$_Get_unwrapped_n@Vtrace_info@@H$0A@@std@@YAPAVtrace_info@@QAV1@H@Z 10002470 f i Hooks.obj
 0001:00001470       ??$move@AAPAV?$ConfigValue@M@@@std@@YA$$QAPAV?$ConfigValue@M@@AAPAV1@@Z 10002470 f i TGFCfg.obj
 0001:00001470       ??$_Get_unwrapped_n@PAV?$ConfigValue@_N@@H$0A@@std@@YAPAPAV?$ConfigValue@_N@@QAPAV1@H@Z 10002470 f i TGFCfg.obj
 0001:00001470       ??$_Get_unwrapped@D@std@@YAPADQAD@Z 10002470 f i zgui.obj
 0001:00001470       ??$forward@_N@std@@YA$$QA_NAA_N@Z 10002470 f i Aimbot.obj
 0001:00001470       ??$addressof@PAUPlayerRecords@@@std@@YAPAPAUPlayerRecords@@AAPAU1@@Z 10002470 f i LagComp.obj
 0001:00001470       ??$forward@U?$default_delete@VVMTHook@@@std@@@std@@YA$$QAU?$default_delete@VVMTHook@@@0@AAU10@@Z 10002470 f i Hooks.obj
 0001:00001470       ??$_Unfancy@UVertex_t@@@std@@YAPAUVertex_t@@PAU1@@Z 10002470 f i ESP.obj
 0001:00001470       ??$forward@AAPAVIClientMode@@@std@@YAAAPAVIClientMode@@AAPAV1@@Z 10002470 f i Hooks.obj
 0001:00001470       ??$move@AAV?$_List_unchecked_iterator@V?$_List_val@U?$_List_simple_types@U?$pair@$$CBV?$basic_string@DU?$char_traits@D@std@@V?$allocator@D@2@@std@@V?$shared_ptr@UNode@NetvarTree@@@2@@std@@@std@@@std@@@std@@@std@@YA$$QAV?$_List_unchecked_iterator@V?$_List_val@U?$_List_simple_types@U?$pair@$$CBV?$basic_string@DU?$char_traits@D@std@@V?$allocator@D@2@@std@@V?$shared_ptr@UNode@NetvarTree@@@2@@std@@@std@@@std@@@0@AAV10@@Z 10002470 f i Aimbot.obj
 0001:00001470       ??$addressof@V?$unique_ptr@VNetvarTree@@U?$default_delete@VNetvarTree@@@std@@@std@@@std@@YAPAV?$unique_ptr@VNetvarTree@@U?$default_delete@VNetvarTree@@@std@@@0@AAV10@@Z 10002470 f i Hooks.obj
 0001:00001470       ??$addressof@V?$_Deque_val@U?$_Deque_simple_types@UPlayerRecords@@@std@@@std@@@std@@YAPAV?$_Deque_val@U?$_Deque_simple_types@UPlayerRecords@@@std@@@0@AAV10@@Z 10002470 f i Aimbot.obj
 0001:00001470       ??$forward@AAU?$hash@V?$basic_string@DU?$char_traits@D@std@@V?$allocator@D@2@@std@@@std@@@std@@YAAAU?$hash@V?$basic_string@DU?$char_traits@D@std@@V?$allocator@D@2@@std@@@0@AAU10@@Z 10002470 f i NetvarManager.obj
 0001:00001470       ??$_Get_unwrapped_n@V?$basic_string@DU?$char_traits@D@std@@V?$allocator@D@2@@std@@H$0A@@std@@YAPAV?$basic_string@DU?$char_traits@D@std@@V?$allocator@D@2@@0@QAV10@H@Z 10002470 f i zgui.obj
 0001:00001470       ??$_Get_unwrapped@PAV?$ConfigValue@_N@@@std@@YAPAPAV?$ConfigValue@_N@@QAPAV1@@Z 10002470 f i TGFCfg.obj
 0001:00001470       ??$addressof@$$CBV?$_Deque_val@U?$_Deque_simple_types@UPlayerRecords@@@std@@@std@@@std@@YAPBV?$_Deque_val@U?$_Deque_simple_types@UPlayerRecords@@@std@@@0@ABV10@@Z 10002470 f i LagComp.obj
 0001:00001470       ??$_Get_unwrapped_n@HH$0A@@std@@YAPAHQAHH@Z 10002470 f i Aimbot.obj
 0001:00001470       ??$move@AAV?$allocator@VVector@@@std@@@std@@YA$$QAV?$allocator@VVector@@@0@AAV10@@Z 10002470 f i Aimbot.obj
 0001:00001470       ??$_Get_unwrapped@Vtrace_info@@@std@@YAPAVtrace_info@@QAV1@@Z 10002470 f i Hooks.obj
 0001:00001470       ??$forward@AAPAVCModelRender@@@std@@YAAAPAVCModelRender@@AAPAV1@@Z 10002470 f i Hooks.obj
 0001:00001470       ??$forward@V?$tuple@$$V@std@@@std@@YA$$QAV?$tuple@$$V@0@AAV10@@Z 10002470 f i Aimbot.obj
 0001:00001470       ??$_Unfancy@VVector@@@std@@YAPAVVector@@PAV1@@Z 10002470 f i Aimbot.obj
 0001:00001470       ??$_Get_unwrapped_n@Uzgui_control_render_t@zgui@@H$0A@@std@@YAPAUzgui_control_render_t@zgui@@QAU12@H@Z 10002470 f i zgui.obj
 0001:00001470       ??$move@AAV?$basic_ofstream@DU?$char_traits@D@std@@@std@@@std@@YA$$QAV?$basic_ofstream@DU?$char_traits@D@std@@@0@AAV10@@Z 10002470 f i Interfaces.obj
 0001:00001470       ??$_Unfancy@H@std@@YAPAHPAH@Z 10002470 f i Aimbot.obj
 0001:00001470       ??$forward@ABUpiecewise_construct_t@std@@@std@@YAABUpiecewise_construct_t@0@ABU10@@Z 10002470 f i Aimbot.obj
 0001:00001470       ??$forward@Uzgui_control_render_t@zgui@@@std@@YA$$QAUzgui_control_render_t@zgui@@AAU12@@Z 10002470 f i zgui.obj
 0001:00001470       ??$addressof@V?$_String_val@U?$_Simple_types@D@std@@@std@@@std@@YAPAV?$_String_val@U?$_Simple_types@D@std@@@0@AAV10@@Z 10002470 f i Aimbot.obj
 0001:00001470       ??$move@AAPAV?$ConfigValue@H@@@std@@YA$$QAPAV?$ConfigValue@H@@AAPAV1@@Z 10002470 f i TGFCfg.obj
 0001:00001470       ??$forward@H@std@@YA$$QAHAAH@Z 10002470 f i Aimbot.obj
 0001:00001470       ??$forward@PAV?$ConfigValue@M@@@std@@YA$$QAPAV?$ConfigValue@M@@AAPAV1@@Z 10002470 f i TGFCfg.obj
 0001:00001470       ??$forward@ABUmulti_select_item@zgui@@@std@@YAABUmulti_select_item@zgui@@ABU12@@Z 10002470 f i Menu.obj
 0001:00001470       ??$forward@$$QAV?$basic_string@DU?$char_traits@D@std@@V?$allocator@D@2@@std@@@std@@YA$$QAV?$basic_string@DU?$char_traits@D@std@@V?$allocator@D@2@@0@AAV10@@Z 10002470 f i Aimbot.obj
 0001:00001470       ??$forward@V?$tuple@$$QAV?$basic_string@DU?$char_traits@D@std@@V?$allocator@D@2@@std@@@std@@@std@@YA$$QAV?$tuple@$$QAV?$basic_string@DU?$char_traits@D@std@@V?$allocator@D@2@@std@@@0@AAV10@@Z 10002470 f i Aimbot.obj
 0001:00001470       ??$_Unfancy@U_Container_proxy@std@@@std@@YAPAU_Container_proxy@0@PAU10@@Z 10002470 f i LagComp.obj
 0001:00001470       ??$move@AAV?$allocator@V?$basic_string@DU?$char_traits@D@std@@V?$allocator@D@2@@std@@@std@@@std@@YA$$QAV?$allocator@V?$basic_string@DU?$char_traits@D@std@@V?$allocator@D@2@@std@@@0@AAV10@@Z 10002470 f i zgui.obj
 0001:00001470       ??$forward@AAVVector@@@std@@YAAAVVector@@AAV1@@Z 10002470 f i Aimbot.obj
 0001:00001470       ??$forward@AAPAI@std@@YAAAPAIAAPAI@Z 10002470 f i Hooks.obj
 0001:00001470       ??$forward@ABV?$allocator@V?$basic_string@DU?$char_traits@D@std@@V?$allocator@D@2@@std@@@std@@@std@@YAABV?$allocator@V?$basic_string@DU?$char_traits@D@std@@V?$allocator@D@2@@std@@@0@ABV10@@Z 10002470 f i Menu.obj
 0001:00001470       ??$forward@Vtrace_info@@@std@@YA$$QAVtrace_info@@AAV1@@Z 10002470 f i Hooks.obj
 0001:00001470       ??$forward@AAV?$_List_iterator@V?$_List_val@U?$_List_simple_types@U?$pair@$$CBV?$basic_string@DU?$char_traits@D@std@@V?$allocator@D@2@@std@@V?$shared_ptr@UNode@NetvarTree@@@2@@std@@@std@@@std@@@std@@@std@@YAAAV?$_List_iterator@V?$_List_val@U?$_List_simple_types@U?$pair@$$CBV?$basic_string@DU?$char_traits@D@std@@V?$allocator@D@2@@std@@V?$shared_ptr@UNode@NetvarTree@@@2@@std@@@std@@@std@@@0@AAV10@@Z 10002470 f i Aimbot.obj
 0001:00001470       ??$forward@ABV?$allocator@V?$_List_unchecked_iterator@V?$_List_val@U?$_List_simple_types@U?$pair@$$CBV?$basic_string@DU?$char_traits@D@std@@V?$allocator@D@2@@std@@V?$shared_ptr@UNode@NetvarTree@@@2@@std@@@std@@@std@@@std@@@std@@@std@@YAABV?$allocator@V?$_List_unchecked_iterator@V?$_List_val@U?$_List_simple_types@U?$pair@$$CBV?$basic_string@DU?$char_traits@D@std@@V?$allocator@D@2@@std@@V?$shared_ptr@UNode@NetvarTree@@@2@@std@@@std@@@std@@@std@@@0@ABV10@@Z 10002470 f i NetvarManager.obj
 0001:00001470       ??$_Get_unwrapped_n@PAV?$ConfigValue@M@@H$0A@@std@@YAPAPAV?$ConfigValue@M@@QAPAV1@H@Z 10002470 f i TGFCfg.obj
 0001:00001470       ??$addressof@PAUvec2@zgui@@@std@@YAPAPAUvec2@zgui@@AAPAU12@@Z 10002470 f i zgui.obj
 0001:00001470       ??$forward@ABUPlayerRecords@@@std@@YAABUPlayerRecords@@ABU1@@Z 10002470 f i LagComp.obj
 0001:00001470       ?select_on_container_copy_construction@?$_Default_allocator_traits@V?$allocator@D@std@@@std@@SA?AV?$allocator@D@2@ABV32@@Z 10002470 f i zgui.obj
 0001:00001470       ??$forward@ABQA_W@std@@YAABQA_WABQA_W@Z 10002470 f i Hooks.obj
 0001:00001470       ??$forward@ABV?$allocator@_W@std@@@std@@YAABV?$allocator@_W@0@ABV10@@Z 10002470 f i Hooks.obj
 0001:00001470       ??$_Unfancy@UHitMarker_t@@@std@@YAPAUHitMarker_t@@PAU1@@Z 10002470 f i Hooks.obj
 0001:00001470       ??$_Get_unwrapped_n@PAUPlayerRecords@@H$0A@@std@@YAPAPAUPlayerRecords@@QAPAU1@H@Z 10002470 f i LagComp.obj
 0001:00001470       ??$_Get_unwrapped_n@VVector@@H$0A@@std@@YAPAVVector@@QAV1@H@Z 10002470 f i Aimbot.obj
 0001:00001470       ??$_Unfancy@Vtrace_info@@@std@@YAPAVtrace_info@@PAV1@@Z 10002470 f i Hooks.obj
 0001:00001470       ??$addressof@U?$pair@$$CBV?$basic_string@DU?$char_traits@D@std@@V?$allocator@D@2@@std@@V?$shared_ptr@UNode@NetvarTree@@@2@@std@@@std@@YAPAU?$pair@$$CBV?$basic_string@DU?$char_traits@D@std@@V?$allocator@D@2@@std@@V?$shared_ptr@UNode@NetvarTree@@@2@@0@AAU10@@Z 10002470 f i Aimbot.obj
 0001:00001470       ??$_Get_unwrapped@$$CBV?$basic_string@DU?$char_traits@D@std@@V?$allocator@D@2@@std@@@std@@YAPBV?$basic_string@DU?$char_traits@D@std@@V?$allocator@D@2@@0@QBV10@@Z 10002470 f i Menu.obj
 0001:00001470       ??$addressof@$$CBV?$basic_string@DU?$char_traits@D@std@@V?$allocator@D@2@@std@@@std@@YAPBV?$basic_string@DU?$char_traits@D@std@@V?$allocator@D@2@@0@ABV10@@Z 10002470 f i TGFCfg.obj
 0001:00001470       ??$addressof@PAD@std@@YAPAPADAAPAD@Z 10002470 f i Aimbot.obj
 0001:00001470       ??$forward@V?$_List_iterator@V?$_List_val@U?$_List_simple_types@U?$pair@$$CBV?$basic_string@DU?$char_traits@D@std@@V?$allocator@D@2@@std@@V?$shared_ptr@UNode@NetvarTree@@@2@@std@@@std@@@std@@@std@@@std@@YA$$QAV?$_List_iterator@V?$_List_val@U?$_List_simple_types@U?$pair@$$CBV?$basic_string@DU?$char_traits@D@std@@V?$allocator@D@2@@std@@V?$shared_ptr@UNode@NetvarTree@@@2@@std@@@std@@@std@@@0@AAV10@@Z 10002470 f i Aimbot.obj
 0001:00001470       ??$_Get_unwrapped@PAV?$ConfigValue@M@@@std@@YAPAPAV?$ConfigValue@M@@QAPAV1@@Z 10002470 f i TGFCfg.obj
 0001:00001470       ??$addressof@$$CBV?$_List_val@U?$_List_simple_types@U?$pair@$$CBV?$basic_string@DU?$char_traits@D@std@@V?$allocator@D@2@@std@@V?$shared_ptr@UNode@NetvarTree@@@2@@std@@@std@@@std@@@std@@YAPBV?$_List_val@U?$_List_simple_types@U?$pair@$$CBV?$basic_string@DU?$char_traits@D@std@@V?$allocator@D@2@@std@@V?$shared_ptr@UNode@NetvarTree@@@2@@std@@@std@@@0@ABV10@@Z 10002470 f i Aimbot.obj
 0001:00001470       ??$forward@ABV?$basic_string@DU?$char_traits@D@std@@V?$allocator@D@2@@std@@@std@@YAABV?$basic_string@DU?$char_traits@D@std@@V?$allocator@D@2@@0@ABV10@@Z 10002470 f i zgui.obj
 0001:00001470       ??$forward@ABUHitMarker_t@@@std@@YAABUHitMarker_t@@ABU1@@Z 10002470 f i Hooks.obj
 0001:00001470       ??$addressof@V?$unique_ptr@VVMTHook@@U?$default_delete@VVMTHook@@@std@@@std@@@std@@YAPAV?$unique_ptr@VVMTHook@@U?$default_delete@VVMTHook@@@std@@@0@AAV10@@Z 10002470 f i Hooks.obj
 0001:00001470       ??$_Get_unwrapped@PAV?$ConfigValue@H@@@std@@YAPAPAV?$ConfigValue@H@@QAPAV1@@Z 10002470 f i TGFCfg.obj
 0001:00001470       ??$_Const_cast@$$CBD@std@@YAPADPBD@Z 10002470 f i Hooks.obj
 0001:00001470       ??$forward@M@std@@YA$$QAMAAM@Z 10002470 f i NetvarManager.obj
 0001:00001470       ??$forward@AAPAVIBaseClientDLL@@@std@@YAAAPAVIBaseClientDLL@@AAPAV1@@Z 10002470 f i Hooks.obj
 0001:00001470       ??$_Get_unwrapped_n@Umulti_select_item@zgui@@H$0A@@std@@YAPAUmulti_select_item@zgui@@QAU12@H@Z 10002470 f i Menu.obj
 0001:00001470       ??$forward@V?$allocator@VVector@@@std@@@std@@YA$$QAV?$allocator@VVector@@@0@AAV10@@Z 10002470 f i Aimbot.obj
 0001:00001470       ??$_Unfancy@PAV?$ConfigValue@M@@@std@@YAPAPAV?$ConfigValue@M@@PAPAV1@@Z 10002470 f i TGFCfg.obj
 0001:00001470       ??$_Unfancy@V?$_List_unchecked_iterator@V?$_List_val@U?$_List_simple_types@U?$pair@$$CBV?$basic_string@DU?$char_traits@D@std@@V?$allocator@D@2@@std@@V?$shared_ptr@UNode@NetvarTree@@@2@@std@@@std@@@std@@@std@@@std@@YAPAV?$_List_unchecked_iterator@V?$_List_val@U?$_List_simple_types@U?$pair@$$CBV?$basic_string@DU?$char_traits@D@std@@V?$allocator@D@2@@std@@V?$shared_ptr@UNode@NetvarTree@@@2@@std@@@std@@@std@@@0@PAV10@@Z 10002470 f i Aimbot.obj
 0001:00001470       ??$addressof@V?$_List_val@U?$_List_simple_types@U?$pair@$$CBV?$basic_string@DU?$char_traits@D@std@@V?$allocator@D@2@@std@@V?$shared_ptr@UNode@NetvarTree@@@2@@std@@@std@@@std@@@std@@YAPAV?$_List_val@U?$_List_simple_types@U?$pair@$$CBV?$basic_string@DU?$char_traits@D@std@@V?$allocator@D@2@@std@@V?$shared_ptr@UNode@NetvarTree@@@2@@std@@@std@@@0@AAV10@@Z 10002470 f i Aimbot.obj
 0001:00001470       ??$forward@AAUVertex_t@@@std@@YAAAUVertex_t@@AAU1@@Z 10002470 f i ESP.obj
 0001:00001470       ??$forward@ABV?$allocator@Umulti_select_item@zgui@@@std@@@std@@YAABV?$allocator@Umulti_select_item@zgui@@@0@ABV10@@Z 10002470 f i Menu.obj
 0001:00001470       ??$_Get_size_of_n@$00@std@@YAII@Z 10002470 f i Aimbot.obj
 0001:00001470       ??$forward@AAU?$equal_to@V?$basic_string@DU?$char_traits@D@std@@V?$allocator@D@2@@std@@@std@@@std@@YAAAU?$equal_to@V?$basic_string@DU?$char_traits@D@std@@V?$allocator@D@2@@std@@@0@AAU10@@Z 10002470 f i NetvarManager.obj
 0001:00001470       ??$move@AAUPlayerRecords@@@std@@YA$$QAUPlayerRecords@@AAU1@@Z 10002470 f i LagComp.obj
 0001:00001470       ??$forward@ABUvec2@zgui@@@std@@YAABUvec2@zgui@@ABU12@@Z 10002470 f i zgui.obj
 0001:00001470       ??$_Get_unwrapped_n@PAV?$ConfigValue@H@@H$0A@@std@@YAPAPAV?$ConfigValue@H@@QAPAV1@H@Z 10002470 f i TGFCfg.obj
 0001:00001470       ??$forward@ABQAD@std@@YAABQADABQAD@Z 10002470 f i Aimbot.obj
 0001:00001470       ??$_Get_unwrapped@Uzgui_control_render_t@zgui@@@std@@YAPAUzgui_control_render_t@zgui@@QAU12@@Z 10002470 f i zgui.obj
 0001:00001470       ??$forward@VVector@@@std@@YA$$QAVVector@@AAV1@@Z 10002470 f i Aimbot.obj
 0001:00001470       ??$forward@AAU?$pair@$$CBV?$basic_string@DU?$char_traits@D@std@@V?$allocator@D@2@@std@@V?$shared_ptr@UNode@NetvarTree@@@2@@std@@@std@@YAAAU?$pair@$$CBV?$basic_string@DU?$char_traits@D@std@@V?$allocator@D@2@@std@@V?$shared_ptr@UNode@NetvarTree@@@2@@0@AAU10@@Z 10002470 f i Aimbot.obj
 0001:00001470       ??$forward@V?$basic_string@DU?$char_traits@D@std@@V?$allocator@D@2@@std@@@std@@YA$$QAV?$basic_string@DU?$char_traits@D@std@@V?$allocator@D@2@@0@AAV10@@Z 10002470 f i Aimbot.obj
 0001:00001470       ??$forward@V?$allocator@V?$basic_string@DU?$char_traits@D@std@@V?$allocator@D@2@@std@@@std@@@std@@YA$$QAV?$allocator@V?$basic_string@DU?$char_traits@D@std@@V?$allocator@D@2@@std@@@0@AAV10@@Z 10002470 f i zgui.obj
 0001:00001470       ??$forward@AAPAVIPanel@@@std@@YAAAPAVIPanel@@AAPAV1@@Z 10002470 f i Hooks.obj
 0001:00001470       ??$forward@AAPAVVMTHook@@@std@@YAAAPAVVMTHook@@AAPAV1@@Z 10002470 f i Hooks.obj
 0001:00001470       ??$move@AAUVertex_t@@@std@@YA$$QAUVertex_t@@AAU1@@Z 10002470 f i ESP.obj
 0001:00001470       ??$move@AAVVector@@@std@@YA$$QAVVector@@AAV1@@Z 10002470 f i Aimbot.obj
 0001:00001470       ??$forward@ABV?$allocator@PBD@std@@@std@@YAABV?$allocator@PBD@0@ABV10@@Z 10002470 f i Hooks.obj
 0001:00001470       ??$_Unfancy@PAV?$ConfigValue@H@@@std@@YAPAPAV?$ConfigValue@H@@PAPAV1@@Z 10002470 f i TGFCfg.obj
 0001:00001470       ??$_Kfn@$$CBV?$basic_string@DU?$char_traits@D@std@@V?$allocator@D@2@@std@@V?$shared_ptr@UNode@NetvarTree@@@2@@?$_Umap_traits@V?$basic_string@DU?$char_traits@D@std@@V?$allocator@D@2@@std@@V?$shared_ptr@UNode@NetvarTree@@@2@V?$_Uhash_compare@V?$basic_string@DU?$char_traits@D@std@@V?$allocator@D@2@@std@@U?$hash@V?$basic_string@DU?$char_traits@D@std@@V?$allocator@D@2@@std@@@2@U?$equal_to@V?$basic_string@DU?$char_traits@D@std@@V?$allocator@D@2@@std@@@2@@2@V?$allocator@U?$pair@$$CBV?$basic_string@DU?$char_traits@D@std@@V?$allocator@D@2@@std@@V?$shared_ptr@UNode@NetvarTree@@@2@@std@@@2@$0A@@std@@SAABV?$basic_string@DU?$char_traits@D@std@@V?$allocator@D@2@@1@ABU?$pair@$$CBV?$basic_string@DU?$char_traits@D@std@@V?$allocator@D@2@@std@@V?$shared_ptr@UNode@NetvarTree@@@2@@1@@Z 10002470 f i Aimbot.obj
 0001:00001470       ??$forward@ABV?$allocator@U?$pair@$$CBV?$basic_string@DU?$char_traits@D@std@@V?$allocator@D@2@@std@@V?$shared_ptr@UNode@NetvarTree@@@2@@std@@@std@@@std@@YAABV?$allocator@U?$pair@$$CBV?$basic_string@DU?$char_traits@D@std@@V?$allocator@D@2@@std@@V?$shared_ptr@UNode@NetvarTree@@@2@@std@@@0@ABV10@@Z 10002470 f i NetvarManager.obj
 0001:00001470       ??$forward@ABV?$_List_unchecked_iterator@V?$_List_val@U?$_List_simple_types@U?$pair@$$CBV?$basic_string@DU?$char_traits@D@std@@V?$allocator@D@2@@std@@V?$shared_ptr@UNode@NetvarTree@@@2@@std@@@std@@@std@@@std@@@std@@YAABV?$_List_unchecked_iterator@V?$_List_val@U?$_List_simple_types@U?$pair@$$CBV?$basic_string@DU?$char_traits@D@std@@V?$allocator@D@2@@std@@V?$shared_ptr@UNode@NetvarTree@@@2@@std@@@std@@@std@@@0@ABV10@@Z 10002470 f i Aimbot.obj
 0001:00001470       ??$addressof@V?$_Vector_val@U?$_Simple_types@Vtrace_info@@@std@@@std@@@std@@YAPAV?$_Vector_val@U?$_Simple_types@Vtrace_info@@@std@@@0@AAV10@@Z 10002470 f i Hooks.obj
 0001:00001470       ??$_Get_unwrapped@$$CBUmulti_select_item@zgui@@@std@@YAPBUmulti_select_item@zgui@@QBU12@@Z 10002470 f i Menu.obj
 0001:00001470       ??$forward@AAPAVISurface@@@std@@YAAAPAVISurface@@AAPAV1@@Z 10002470 f i Hooks.obj
 0001:00001470       ??$addressof@D@std@@YAPADAAD@Z 10002470 f i zgui.obj
 0001:00001470       ??$_Refancy@PAD$0A@@std@@YAPADPAD@Z 10002470 f i Hooks.obj
 0001:00001470       ??$move@AAV?$vector@VVector@@V?$allocator@VVector@@@std@@@std@@@std@@YA$$QAV?$vector@VVector@@V?$allocator@VVector@@@std@@@0@AAV10@@Z 10002470 f i Aimbot.obj
 0001:00001470       ??$move@AAV?$tuple@$$QAV?$basic_string@DU?$char_traits@D@std@@V?$allocator@D@2@@std@@@std@@@std@@YA$$QAV?$tuple@$$QAV?$basic_string@DU?$char_traits@D@std@@V?$allocator@D@2@@std@@@0@AAV10@@Z 10002470 f i Aimbot.obj
 0001:00001470       ??$move@AAV?$shared_ptr@UNode@NetvarTree@@@std@@@std@@YA$$QAV?$shared_ptr@UNode@NetvarTree@@@0@AAV10@@Z 10002470 f i NetvarManager.obj
 0001:00001470       ??$_Unfancy@D@std@@YAPADPAD@Z 10002470 f i Aimbot.obj
 0001:00001470       ??$_Get_unwrapped_n@V?$_List_unchecked_iterator@V?$_List_val@U?$_List_simple_types@U?$pair@$$CBV?$basic_string@DU?$char_traits@D@std@@V?$allocator@D@2@@std@@V?$shared_ptr@UNode@NetvarTree@@@2@@std@@@std@@@std@@@std@@H$0A@@std@@YAPAV?$_List_unchecked_iterator@V?$_List_val@U?$_List_simple_types@U?$pair@$$CBV?$basic_string@DU?$char_traits@D@std@@V?$allocator@D@2@@std@@V?$shared_ptr@UNode@NetvarTree@@@2@@std@@@std@@@std@@@0@QAV10@H@Z 10002470 f i Aimbot.obj
 0001:00001470       ??$_Convert_size@I@std@@YAII@Z 10002470 f i Aimbot.obj
 0001:00001470       ??$_Get_unwrapped_n@UHitMarker_t@@H$0A@@std@@YAPAUHitMarker_t@@QAU1@H@Z 10002470 f i Hooks.obj
 0001:00001470       ??$forward@PBD@std@@YA$$QAPBDAAPBD@Z 10002470 f i NetvarManager.obj
 0001:00001470       ??$forward@AAPAU?$_List_node@U?$pair@$$CBV?$basic_string@DU?$char_traits@D@std@@V?$allocator@D@2@@std@@V?$shared_ptr@UNode@NetvarTree@@@2@@std@@PAX@std@@@std@@YAAAPAU?$_List_node@U?$pair@$$CBV?$basic_string@DU?$char_traits@D@std@@V?$allocator@D@2@@std@@V?$shared_ptr@UNode@NetvarTree@@@2@@std@@PAX@0@AAPAU10@@Z 10002470 f i Aimbot.obj
 0001:00001470       ??$forward@ABV?$allocator@D@std@@@std@@YAABV?$allocator@D@0@ABV10@@Z 10002470 f i zgui.obj
 0001:00001470       ??$_Get_unwrapped@VVector@@@std@@YAPAVVector@@QAV1@@Z 10002470 f i Aimbot.obj
 0001:00001470       ??$move@AAH@std@@YA$$QAHAAH@Z 10002470 f i Aimbot.obj
 0001:00001480       ??$_Copy_memmove@PAPAV?$ConfigValue@M@@PAPAV1@@std@@YAPAPAV?$ConfigValue@M@@PAPAV1@00@Z 10002480 f i TGFCfg.obj
 0001:00001480       ??$_Copy_memmove@PAHPAH@std@@YAPAHPAH00@Z 10002480 f i Aimbot.obj
 0001:00001480       ??$_Copy_memmove@PAPAUvec2@zgui@@PAPAU12@@std@@YAPAPAUvec2@zgui@@PAPAU12@00@Z 10002480 f i zgui.obj
 0001:00001480       ??$_Copy_memmove@PBQBDPAPBD@std@@YAPAPBDPBQBD0PAPBD@Z 10002480 f i Hooks.obj
 0001:00001480       ??$_Copy_memmove@PAPAV?$ConfigValue@H@@PAPAV1@@std@@YAPAPAV?$ConfigValue@H@@PAPAV1@00@Z 10002480 f i TGFCfg.obj
 0001:00001480       ??$_Copy_memmove@PAPAV?$ConfigValue@_N@@PAPAV1@@std@@YAPAPAV?$ConfigValue@_N@@PAPAV1@00@Z 10002480 f i TGFCfg.obj
 0001:00001480       ??$_Copy_memmove@PAUHitMarker_t@@PAU1@@std@@YAPAUHitMarker_t@@PAU1@00@Z 10002480 f i Hooks.obj
 0001:00001480       ??$_Copy_memmove@PAPAUPlayerRecords@@PAPAU1@@std@@YAPAPAUPlayerRecords@@PAPAU1@00@Z 10002480 f i LagComp.obj
 0001:000014c0       ??$_Deallocate@$07$0A@@std@@YAXPAXI@Z 100024c0 f i Aimbot.obj
 0001:000014f0       ??$_Adl_verify_range@V?$_String_const_iterator@V?$_String_val@U?$_Simple_types@D@std@@@std@@@std@@V12@@std@@YAXABV?$_String_const_iterator@V?$_String_val@U?$_Simple_types@D@std@@@std@@@0@0@Z 100024f0 f i ESP.obj
 0001:000014f0       ??$_Destroy_range1@V?$allocator@UHitMarker_t@@@std@@@std@@YAXPAUHitMarker_t@@0AAV?$allocator@UHitMarker_t@@@0@U?$integral_constant@_N$00@0@@Z 100024f0 f i Hooks.obj
 0001:000014f0       ?Log@Utils@@SAXABV?$basic_string@DU?$char_traits@D@std@@V?$allocator@D@2@@std@@ZZ 100024f0 f i Hooks.obj
 0001:000014f0       ??$destroy@U_Container_proxy@std@@@?$_Default_allocator_traits@V?$allocator@U_Container_proxy@std@@@std@@@std@@SAXAAV?$allocator@U_Container_proxy@std@@@1@QAU_Container_proxy@1@@Z 100024f0 f i LagComp.obj
 0001:000014f0       ??$_Adl_verify_range@PBDPBD@std@@YAXABQBD0@Z 100024f0 f i zgui.obj
 0001:000014f0       ??$destroy@Uvec2@zgui@@@?$_Default_allocator_traits@V?$allocator@Uvec2@zgui@@@std@@@std@@SAXAAV?$allocator@Uvec2@zgui@@@1@QAUvec2@zgui@@@Z 100024f0 f i zgui.obj
 0001:000014f0       ??$_Adl_verify_range@V?$_Deque_iterator@V?$_Deque_val@U?$_Deque_simple_types@UPlayerRecords@@@std@@@std@@@std@@V12@@std@@YAXABV?$_Deque_iterator@V?$_Deque_val@U?$_Deque_simple_types@UPlayerRecords@@@std@@@std@@@0@0@Z 100024f0 f i LagComp.obj
 0001:000014f0       ??$_Destroy_range1@V?$allocator@V?$_List_unchecked_iterator@V?$_List_val@U?$_List_simple_types@U?$pair@$$CBV?$basic_string@DU?$char_traits@D@std@@V?$allocator@D@2@@std@@V?$shared_ptr@UNode@NetvarTree@@@2@@std@@@std@@@std@@@std@@@std@@@std@@YAXPAV?$_List_unchecked_iterator@V?$_List_val@U?$_List_simple_types@U?$pair@$$CBV?$basic_string@DU?$char_traits@D@std@@V?$allocator@D@2@@std@@V?$shared_ptr@UNode@NetvarTree@@@2@@std@@@std@@@std@@@0@0AAV?$allocator@V?$_List_unchecked_iterator@V?$_List_val@U?$_List_simple_types@U?$pair@$$CBV?$basic_string@DU?$char_traits@D@std@@V?$allocator@D@2@@std@@V?$shared_ptr@UNode@NetvarTree@@@2@@std@@@std@@@std@@@std@@@0@U?$integral_constant@_N$00@0@@Z 100024f0 f i Aimbot.obj
 0001:000014f0       ??$_Destroy_range1@V?$allocator@PAUPlayerRecords@@@std@@@std@@YAXPAPAUPlayerRecords@@0AAV?$allocator@PAUPlayerRecords@@@0@U?$integral_constant@_N$00@0@@Z 100024f0 f i LagComp.obj
 0001:000014f0       ??$destroy@PA_W@?$_Default_allocator_traits@V?$allocator@_W@std@@@std@@SAXAAV?$allocator@_W@1@QAPA_W@Z 100024f0 f i Hooks.obj
 0001:000014f0       ??$_Adl_verify_range@V?$_String_iterator@V?$_String_val@U?$_Simple_types@D@std@@@std@@@std@@V12@@std@@YAXABV?$_String_iterator@V?$_String_val@U?$_Simple_types@D@std@@@std@@@0@0@Z 100024f0 f i Hooks.obj
 0001:000014f0       ??$_Destroy_range1@V?$allocator@PAUvec2@zgui@@@std@@@std@@YAXPAPAUvec2@zgui@@0AAV?$allocator@PAUvec2@zgui@@@0@U?$integral_constant@_N$00@0@@Z 100024f0 f i zgui.obj
 0001:000014f0       ??$_Destroy_range1@V?$allocator@PAV?$ConfigValue@_N@@@std@@@std@@YAXPAPAV?$ConfigValue@_N@@0AAV?$allocator@PAV?$ConfigValue@_N@@@0@U?$integral_constant@_N$00@0@@Z 100024f0 f i TGFCfg.obj
 0001:000014f0       ??$destroy@Vtrace_info@@@?$_Default_allocator_traits@V?$allocator@Vtrace_info@@@std@@@std@@SAXAAV?$allocator@Vtrace_info@@@1@QAVtrace_info@@@Z 100024f0 f i Hooks.obj
 0001:000014f0       ??$_Adl_verify_range@PADPAD@std@@YAXABQAD0@Z 100024f0 f i zgui.obj
 0001:000014f0       ??$destroy@PAUPlayerRecords@@@?$_Default_allocator_traits@V?$allocator@PAUPlayerRecords@@@std@@@std@@SAXAAV?$allocator@PAUPlayerRecords@@@1@QAPAUPlayerRecords@@@Z 100024f0 f i LagComp.obj
 0001:000014f0       ??$_Pocca@V?$allocator@D@std@@@std@@YAXAAV?$allocator@D@0@ABV10@U?$integral_constant@_N$0A@@0@@Z 100024f0 f i TGFCfg.obj
 0001:000014f0       ??$destroy@PAD@?$_Default_allocator_traits@V?$allocator@D@std@@@std@@SAXAAV?$allocator@D@1@QAPAD@Z 100024f0 f i Aimbot.obj
 0001:000014f0       ??$destroy@PAU?$_List_node@U?$pair@$$CBV?$basic_string@DU?$char_traits@D@std@@V?$allocator@D@2@@std@@V?$shared_ptr@UNode@NetvarTree@@@2@@std@@PAX@std@@@?$_Default_allocator_traits@V?$allocator@U?$_List_node@U?$pair@$$CBV?$basic_string@DU?$char_traits@D@std@@V?$allocator@D@2@@std@@V?$shared_ptr@UNode@NetvarTree@@@2@@std@@PAX@std@@@std@@@std@@SAXAAV?$allocator@U?$_List_node@U?$pair@$$CBV?$basic_string@DU?$char_traits@D@std@@V?$allocator@D@2@@std@@V?$shared_ptr@UNode@NetvarTree@@@2@@std@@PAX@std@@@1@QAPAU?$_List_node@U?$pair@$$CBV?$basic_string@DU?$char_traits@D@std@@V?$allocator@D@2@@std@@V?$shared_ptr@UNode@NetvarTree@@@2@@std@@PAX@1@@Z 100024f0 f i Aimbot.obj
 0001:000014f0       ??$_Destroy_range1@V?$allocator@H@std@@@std@@YAXPAH0AAV?$allocator@H@0@U?$integral_constant@_N$00@0@@Z 100024f0 f i Aimbot.obj
 0001:000014f0       ??$_Destroy_range1@V?$allocator@VVector@@@std@@@std@@YAXPAVVector@@0AAV?$allocator@VVector@@@0@U?$integral_constant@_N$00@0@@Z 100024f0 f i Aimbot.obj
 0001:000014f0       ??$_Destroy_range1@V?$allocator@PAV?$ConfigValue@M@@@std@@@std@@YAXPAPAV?$ConfigValue@M@@0AAV?$allocator@PAV?$ConfigValue@M@@@0@U?$integral_constant@_N$00@0@@Z 100024f0 f i TGFCfg.obj
 0001:000014f0       ??$_Destroy_range1@V?$allocator@PAVIMaterial@@@std@@@std@@YAXPAPAVIMaterial@@0AAV?$allocator@PAVIMaterial@@@0@U?$integral_constant@_N$00@0@@Z 100024f0 f i Chams.obj
 0001:000014f0       ??$destroy@PAUvec2@zgui@@@?$_Default_allocator_traits@V?$allocator@PAUvec2@zgui@@@std@@@std@@SAXAAV?$allocator@PAUvec2@zgui@@@1@QAPAUvec2@zgui@@@Z 100024f0 f i zgui.obj
 0001:000014f0       ??$destroy@UPlayerRecords@@@?$_Default_allocator_traits@V?$allocator@UPlayerRecords@@@std@@@std@@SAXAAV?$allocator@UPlayerRecords@@@1@QAUPlayerRecords@@@Z 100024f0 f i LagComp.obj
 0001:000014f0       ??$_Destroy_range1@V?$allocator@PBD@std@@@std@@YAXPAPBD0AAV?$allocator@PBD@0@U?$integral_constant@_N$00@0@@Z 100024f0 f i Hooks.obj
 0001:000014f0       ??$_Destroy_range1@V?$allocator@UVertex_t@@@std@@@std@@YAXPAUVertex_t@@0AAV?$allocator@UVertex_t@@@0@U?$integral_constant@_N$00@0@@Z 100024f0 f i ESP.obj
 0001:000014f0       ??$_Destroy_range1@V?$allocator@PAV?$ConfigValue@H@@@std@@@std@@YAXPAPAV?$ConfigValue@H@@0AAV?$allocator@PAV?$ConfigValue@H@@@0@U?$integral_constant@_N$00@0@@Z 100024f0 f i TGFCfg.obj
 0001:000014f0       ??$_Destroy_range1@V?$allocator@Vtrace_info@@@std@@@std@@YAXPAVtrace_info@@0AAV?$allocator@Vtrace_info@@@0@U?$integral_constant@_N$00@0@@Z 100024f0 f i Hooks.obj
 0001:000014f0       ??$_Destroy_range1@V?$allocator@Umulti_select_item@zgui@@@std@@@std@@YAXPAUmulti_select_item@zgui@@0AAV?$allocator@Umulti_select_item@zgui@@@0@U?$integral_constant@_N$00@0@@Z 100024f0 f i zgui.obj
 0001:000014f0       ??$_Enable_shared_from_this1@UNode@NetvarTree@@U12@@std@@YAXABV?$shared_ptr@UNode@NetvarTree@@@0@PAUNode@NetvarTree@@U?$integral_constant@_N$0A@@0@@Z 100024f0 f i NetvarManager.obj
 0001:000014f0       ??$destroy@UHitMarker_t@@@?$_Default_allocator_traits@V?$allocator@UHitMarker_t@@@std@@@std@@SAXAAV?$allocator@UHitMarker_t@@@1@QAUHitMarker_t@@@Z 100024f0 f i Hooks.obj
 0001:00001500       ??$_Destroy_range@V?$allocator@PAUvec2@zgui@@@std@@@std@@YAXPAPAUvec2@zgui@@0AAV?$allocator@PAUvec2@zgui@@@0@@Z 10002500 f i zgui.obj
 0001:00001500       ??$_Destroy_range@V?$allocator@UHitMarker_t@@@std@@@std@@YAXPAUHitMarker_t@@0AAV?$allocator@UHitMarker_t@@@0@@Z 10002500 f i Hooks.obj
 0001:00001500       ??$_Destroy_range@V?$allocator@V?$_List_unchecked_iterator@V?$_List_val@U?$_List_simple_types@U?$pair@$$CBV?$basic_string@DU?$char_traits@D@std@@V?$allocator@D@2@@std@@V?$shared_ptr@UNode@NetvarTree@@@2@@std@@@std@@@std@@@std@@@std@@@std@@YAXPAV?$_List_unchecked_iterator@V?$_List_val@U?$_List_simple_types@U?$pair@$$CBV?$basic_string@DU?$char_traits@D@std@@V?$allocator@D@2@@std@@V?$shared_ptr@UNode@NetvarTree@@@2@@std@@@std@@@std@@@0@0AAV?$allocator@V?$_List_unchecked_iterator@V?$_List_val@U?$_List_simple_types@U?$pair@$$CBV?$basic_string@DU?$char_traits@D@std@@V?$allocator@D@2@@std@@V?$shared_ptr@UNode@NetvarTree@@@2@@std@@@std@@@std@@@std@@@0@@Z 10002500 f i Aimbot.obj
 0001:00001500       ??$_Destroy_range@V?$allocator@Umulti_select_item@zgui@@@std@@@std@@YAXPAUmulti_select_item@zgui@@0AAV?$allocator@Umulti_select_item@zgui@@@0@@Z 10002500 f i zgui.obj
 0001:00001500       ??$_Destroy_range@V?$allocator@PAV?$ConfigValue@M@@@std@@@std@@YAXPAPAV?$ConfigValue@M@@0AAV?$allocator@PAV?$ConfigValue@M@@@0@@Z 10002500 f i TGFCfg.obj
 0001:00001500       ??$_Destroy_range@V?$allocator@PAUPlayerRecords@@@std@@@std@@YAXPAPAUPlayerRecords@@0AAV?$allocator@PAUPlayerRecords@@@0@@Z 10002500 f i LagComp.obj
 0001:00001500       ??$_Destroy_range@V?$allocator@PAVIMaterial@@@std@@@std@@YAXPAPAVIMaterial@@0AAV?$allocator@PAVIMaterial@@@0@@Z 10002500 f i Chams.obj
 0001:00001500       ??$_Destroy_range@V?$allocator@PAV?$ConfigValue@H@@@std@@@std@@YAXPAPAV?$ConfigValue@H@@0AAV?$allocator@PAV?$ConfigValue@H@@@0@@Z 10002500 f i TGFCfg.obj
 0001:00001500       ??$_Destroy_range@V?$allocator@VVector@@@std@@@std@@YAXPAVVector@@0AAV?$allocator@VVector@@@0@@Z 10002500 f i Aimbot.obj
 0001:00001500       ??$_Destroy_range@V?$allocator@Vtrace_info@@@std@@@std@@YAXPAVtrace_info@@0AAV?$allocator@Vtrace_info@@@0@@Z 10002500 f i Hooks.obj
 0001:00001500       ??$_Destroy_range@V?$allocator@PBD@std@@@std@@YAXPAPBD0AAV?$allocator@PBD@0@@Z 10002500 f i Hooks.obj
 0001:00001500       ??$_Destroy_range@V?$allocator@H@std@@@std@@YAXPAH0AAV?$allocator@H@0@@Z 10002500 f i Aimbot.obj
 0001:00001500       ??$_Destroy_range@V?$allocator@UVertex_t@@@std@@@std@@YAXPAUVertex_t@@0AAV?$allocator@UVertex_t@@@0@@Z 10002500 f i ESP.obj
 0001:00001500       ??$_Destroy_range@V?$allocator@PAV?$ConfigValue@_N@@@std@@@std@@YAXPAPAV?$ConfigValue@_N@@0AAV?$allocator@PAV?$ConfigValue@_N@@@0@@Z 10002500 f i TGFCfg.obj
 0001:00001530       ??$_Emplace_back@ABV?$_List_unchecked_iterator@V?$_List_val@U?$_List_simple_types@U?$pair@$$CBV?$basic_string@DU?$char_traits@D@std@@V?$allocator@D@2@@std@@V?$shared_ptr@UNode@NetvarTree@@@2@@std@@@std@@@std@@@std@@@?$_Uninitialized_backout_al@PAV?$_List_unchecked_iterator@V?$_List_val@U?$_List_simple_types@U?$pair@$$CBV?$basic_string@DU?$char_traits@D@std@@V?$allocator@D@2@@std@@V?$shared_ptr@UNode@NetvarTree@@@2@@std@@@std@@@std@@@std@@V?$allocator@V?$_List_unchecked_iterator@V?$_List_val@U?$_List_simple_types@U?$pair@$$CBV?$basic_string@DU?$char_traits@D@std@@V?$allocator@D@2@@std@@V?$shared_ptr@UNode@NetvarTree@@@2@@std@@@std@@@std@@@std@@@2@@std@@QAEXABV?$_List_unchecked_iterator@V?$_List_val@U?$_List_simple_types@U?$pair@$$CBV?$basic_string@DU?$char_traits@D@std@@V?$allocator@D@2@@std@@V?$shared_ptr@UNode@NetvarTree@@@2@@std@@@std@@@std@@@1@@Z 10002530 f i Aimbot.obj
 0001:00001530       ??$_Emplace_back@V?$_List_unchecked_iterator@V?$_List_val@U?$_List_simple_types@U?$pair@$$CBV?$basic_string@DU?$char_traits@D@std@@V?$allocator@D@2@@std@@V?$shared_ptr@UNode@NetvarTree@@@2@@std@@@std@@@std@@@std@@@?$_Uninitialized_backout_al@PAV?$_List_unchecked_iterator@V?$_List_val@U?$_List_simple_types@U?$pair@$$CBV?$basic_string@DU?$char_traits@D@std@@V?$allocator@D@2@@std@@V?$shared_ptr@UNode@NetvarTree@@@2@@std@@@std@@@std@@@std@@V?$allocator@V?$_List_unchecked_iterator@V?$_List_val@U?$_List_simple_types@U?$pair@$$CBV?$basic_string@DU?$char_traits@D@std@@V?$allocator@D@2@@std@@V?$shared_ptr@UNode@NetvarTree@@@2@@std@@@std@@@std@@@std@@@2@@std@@QAEX$$QAV?$_List_unchecked_iterator@V?$_List_val@U?$_List_simple_types@U?$pair@$$CBV?$basic_string@DU?$char_traits@D@std@@V?$allocator@D@2@@std@@V?$shared_ptr@UNode@NetvarTree@@@2@@std@@@std@@@std@@@1@@Z 10002530 f i Aimbot.obj
 0001:00001590       ??$_Emplace_back@VVector@@@?$_Uninitialized_backout_al@PAVVector@@V?$allocator@VVector@@@std@@@std@@QAEX$$QAVVector@@@Z 10002590 f i Aimbot.obj
 0001:00001590       ??$_Emplace_back@ABUmulti_select_item@zgui@@@?$_Uninitialized_backout_al@PAUmulti_select_item@zgui@@V?$allocator@Umulti_select_item@zgui@@@std@@@std@@QAEXABUmulti_select_item@zgui@@@Z 10002590 f i Menu.obj
 0001:000015f0       ??$_Emplace_back_with_unused_capacity@AAVVector@@@?$vector@VVector@@V?$allocator@VVector@@@std@@@std@@AAEAAVVector@@AAV2@@Z 100025f0 f i Aimbot.obj
 0001:000016a0       ??$_Emplace_back_with_unused_capacity@H@?$vector@HV?$allocator@H@std@@@std@@AAEAAH$$QAH@Z 100026a0 f i Aimbot.obj
 0001:000016a0       ??$_Emplace_back_with_unused_capacity@PAV?$ConfigValue@M@@@?$vector@PAV?$ConfigValue@M@@V?$allocator@PAV?$ConfigValue@M@@@std@@@std@@AAEAAPAV?$ConfigValue@M@@$$QAPAV2@@Z 100026a0 f i TGFCfg.obj
 0001:000016a0       ??$_Emplace_back_with_unused_capacity@PAV?$ConfigValue@H@@@?$vector@PAV?$ConfigValue@H@@V?$allocator@PAV?$ConfigValue@H@@@std@@@std@@AAEAAPAV?$ConfigValue@H@@$$QAPAV2@@Z 100026a0 f i TGFCfg.obj
 0001:000016a0       ??$_Emplace_back_with_unused_capacity@PAV?$ConfigValue@_N@@@?$vector@PAV?$ConfigValue@_N@@V?$allocator@PAV?$ConfigValue@_N@@@std@@@std@@AAEAAPAV?$ConfigValue@_N@@$$QAPAV2@@Z 100026a0 f i TGFCfg.obj
 0001:00001750       ??$_Emplace_reallocate@AAVVector@@@?$vector@VVector@@V?$allocator@VVector@@@std@@@std@@QAEPAVVector@@QAV2@AAV2@@Z 10002750 f i Aimbot.obj
 0001:00001940       ??$_Emplace_reallocate@PAV?$ConfigValue@M@@@?$vector@PAV?$ConfigValue@M@@V?$allocator@PAV?$ConfigValue@M@@@std@@@std@@QAEPAPAV?$ConfigValue@M@@QAPAV2@$$QAPAV2@@Z 10002940 f i TGFCfg.obj
 0001:00001940       ??$_Emplace_reallocate@H@?$vector@HV?$allocator@H@std@@@std@@QAEPAHQAH$$QAH@Z 10002940 f i Aimbot.obj
 0001:00001940       ??$_Emplace_reallocate@PAV?$ConfigValue@_N@@@?$vector@PAV?$ConfigValue@_N@@V?$allocator@PAV?$ConfigValue@_N@@@std@@@std@@QAEPAPAV?$ConfigValue@_N@@QAPAV2@$$QAPAV2@@Z 10002940 f i TGFCfg.obj
 0001:00001940       ??$_Emplace_reallocate@PAV?$ConfigValue@H@@@?$vector@PAV?$ConfigValue@H@@V?$allocator@PAV?$ConfigValue@H@@@std@@@std@@QAEPAPAV?$ConfigValue@H@@QAPAV2@$$QAPAV2@@Z 10002940 f i TGFCfg.obj
 0001:00001b30       ??$_Ptr_copy_cat@$$CBV?$basic_string@DU?$char_traits@D@std@@V?$allocator@D@2@@std@@V12@@std@@YA?AU_General_ptr_iterator_tag@0@ABQBV?$basic_string@DU?$char_traits@D@std@@V?$allocator@D@2@@0@ABQAV20@@Z 10002b30 f i Menu.obj
 0001:00001b30       ??$_Ptr_move_cat@V?$basic_string@DU?$char_traits@D@std@@V?$allocator@D@2@@std@@V12@@std@@YA?AU_General_ptr_iterator_tag@0@ABQAV?$basic_string@DU?$char_traits@D@std@@V?$allocator@D@2@@0@0@Z 10002b30 f i zgui.obj
 0001:00001b30       ??$_Fill_memset_is_safe@PAV?$_List_unchecked_iterator@V?$_List_val@U?$_List_simple_types@U?$pair@$$CBV?$basic_string@DU?$char_traits@D@std@@V?$allocator@D@2@@std@@V?$shared_ptr@UNode@NetvarTree@@@2@@std@@@std@@@std@@@std@@V12@@std@@YA?AU?$integral_constant@_N$0A@@0@ABQAV?$_List_unchecked_iterator@V?$_List_val@U?$_List_simple_types@U?$pair@$$CBV?$basic_string@DU?$char_traits@D@std@@V?$allocator@D@2@@std@@V?$shared_ptr@UNode@NetvarTree@@@2@@std@@@std@@@std@@@0@ABV20@@Z 10002b30 f i Aimbot.obj
 0001:00001b30       ??$_Ptr_move_cat@UVertex_t@@U1@@std@@YA?AU_General_ptr_iterator_tag@0@ABQAUVertex_t@@0@Z 10002b30 f i ESP.obj
 0001:00001b30       ??$_Ptr_move_cat@V?$_Deque_unchecked_iterator@V?$_Deque_val@U?$_Deque_simple_types@UPlayerRecords@@@std@@@std@@@std@@V12@@std@@YA?AU_General_ptr_iterator_tag@0@ABV?$_Deque_unchecked_iterator@V?$_Deque_val@U?$_Deque_simple_types@UPlayerRecords@@@std@@@std@@@0@0@Z 10002b30 f i LagComp.obj
 0001:00001b30       ??$_Ptr_copy_cat@UVertex_t@@U1@@std@@YA?AU_General_ptr_iterator_tag@0@ABQAUVertex_t@@0@Z 10002b30 f i ESP.obj
 0001:00001b30       ??$_Ptr_move_cat@VVector@@V1@@std@@YA?AU_General_ptr_iterator_tag@0@ABQAVVector@@0@Z 10002b30 f i Aimbot.obj
 0001:00001b30       ??$_Ptr_move_cat@Uzgui_control_render_t@zgui@@U12@@std@@YA?AU_General_ptr_iterator_tag@0@ABQAUzgui_control_render_t@zgui@@0@Z 10002b30 f i zgui.obj
 0001:00001b30       ??$_Ptr_move_cat@Vtrace_info@@V1@@std@@YA?AU_General_ptr_iterator_tag@0@ABQAVtrace_info@@0@Z 10002b30 f i Hooks.obj
 0001:00001b40       ??$_Fill_unchecked1@PAV?$_List_unchecked_iterator@V?$_List_val@U?$_List_simple_types@U?$pair@$$CBV?$basic_string@DU?$char_traits@D@std@@V?$allocator@D@2@@std@@V?$shared_ptr@UNode@NetvarTree@@@2@@std@@@std@@@std@@@std@@V12@@std@@YAXPAV?$_List_unchecked_iterator@V?$_List_val@U?$_List_simple_types@U?$pair@$$CBV?$basic_string@DU?$char_traits@D@std@@V?$allocator@D@2@@std@@V?$shared_ptr@UNode@NetvarTree@@@2@@std@@@std@@@std@@@0@0ABV10@U?$integral_constant@_N$0A@@0@@Z 10002b40 f i Aimbot.obj
 0001:00001b70       ??$_Fill_unchecked@PAV?$_List_unchecked_iterator@V?$_List_val@U?$_List_simple_types@U?$pair@$$CBV?$basic_string@DU?$char_traits@D@std@@V?$allocator@D@2@@std@@V?$shared_ptr@UNode@NetvarTree@@@2@@std@@@std@@@std@@@std@@V12@@std@@YAXPAV?$_List_unchecked_iterator@V?$_List_val@U?$_List_simple_types@U?$pair@$$CBV?$basic_string@DU?$char_traits@D@std@@V?$allocator@D@2@@std@@V?$shared_ptr@UNode@NetvarTree@@@2@@std@@@std@@@std@@@0@0ABV10@@Z 10002b70 f i Aimbot.obj
 0001:00001bb0       ??$_Freenode0@V?$allocator@U?$_List_node@U?$pair@$$CBV?$basic_string@DU?$char_traits@D@std@@V?$allocator@D@2@@std@@V?$shared_ptr@UNode@NetvarTree@@@2@@std@@PAX@std@@@std@@@?$_List_node@U?$pair@$$CBV?$basic_string@DU?$char_traits@D@std@@V?$allocator@D@2@@std@@V?$shared_ptr@UNode@NetvarTree@@@2@@std@@PAX@std@@SAXAAV?$allocator@U?$_List_node@U?$pair@$$CBV?$basic_string@DU?$char_traits@D@std@@V?$allocator@D@2@@std@@V?$shared_ptr@UNode@NetvarTree@@@2@@std@@PAX@std@@@1@PAU01@@Z 10002bb0 f i Aimbot.obj
 0001:00001c20       ??$_Get_size_of_n@$03@std@@YAII@Z 10002c20 f i Aimbot.obj
 0001:00001c50       ??$_Get_size_of_n@$0CI@@std@@YAII@Z 10002c50 f i Aimbot.obj
 0001:00001c80       ??$_Get_size_of_n@$0M@@std@@YAII@Z 10002c80 f i Aimbot.obj
 0001:00001cb0       ??$_Hash_array_representation@D@std@@YAIQBDI@Z 10002cb0 f i Aimbot.obj
 0001:00001cd0       ??$_Idl_distance@PAPAV?$ConfigValue@H@@PAPAV1@@std@@YAHABQAPAV?$ConfigValue@H@@0@Z 10002cd0 f i TGFCfg.obj
 0001:00001cd0       ??$_Idl_distance@PAPAV?$ConfigValue@M@@PAPAV1@@std@@YAHABQAPAV?$ConfigValue@M@@0@Z 10002cd0 f i TGFCfg.obj
 0001:00001cd0       ??$_Idl_distance@PAPAV?$ConfigValue@_N@@PAPAV1@@std@@YAHABQAPAV?$ConfigValue@_N@@0@Z 10002cd0 f i TGFCfg.obj
 0001:00001cd0       ??$_Idl_distance@PAV?$_List_unchecked_iterator@V?$_List_val@U?$_List_simple_types@U?$pair@$$CBV?$basic_string@DU?$char_traits@D@std@@V?$allocator@D@2@@std@@V?$shared_ptr@UNode@NetvarTree@@@2@@std@@@std@@@std@@@std@@PAV12@@std@@YAHABQAV?$_List_unchecked_iterator@V?$_List_val@U?$_List_simple_types@U?$pair@$$CBV?$basic_string@DU?$char_traits@D@std@@V?$allocator@D@2@@std@@V?$shared_ptr@UNode@NetvarTree@@@2@@std@@@std@@@std@@@0@0@Z 10002cd0 f i Aimbot.obj
 0001:00001cd0       ??$_Idl_distance@PAPAUPlayerRecords@@PAPAU1@@std@@YAHABQAPAUPlayerRecords@@0@Z 10002cd0 f i LagComp.obj
 0001:00001cd0       ??$_Idl_distance@PAPAUvec2@zgui@@PAPAU12@@std@@YAHABQAPAUvec2@zgui@@0@Z 10002cd0 f i zgui.obj
 0001:00001cd0       ??$_Idl_distance@PAHPAH@std@@YAHABQAH0@Z 10002cd0 f i Aimbot.obj
 0001:00001cd0       ??$_Idl_distance@PBQBDPBQBD@std@@YAHABQBQBD0@Z 10002cd0 f i Hooks.obj
 0001:00001cf0       ??$_Idl_distance@PBUmulti_select_item@zgui@@PBU12@@std@@YAHABQBUmulti_select_item@zgui@@0@Z 10002cf0 f i Menu.obj
 0001:00001cf0       ??$_Idl_distance@PAVVector@@PAV1@@std@@YAHABQAVVector@@0@Z 10002cf0 f i Aimbot.obj
 0001:00001d10       ??$_Insert@AAU?$pair@$$CBV?$basic_string@DU?$char_traits@D@std@@V?$allocator@D@2@@std@@V?$shared_ptr@UNode@NetvarTree@@@2@@std@@V?$_List_unchecked_iterator@V?$_List_val@U?$_List_simple_types@U?$pair@$$CBV?$basic_string@DU?$char_traits@D@std@@V?$allocator@D@2@@std@@V?$shared_ptr@UNode@NetvarTree@@@2@@std@@@std@@@std@@@2@@?$_Hash@V?$_Umap_traits@V?$basic_string@DU?$char_traits@D@std@@V?$allocator@D@2@@std@@V?$shared_ptr@UNode@NetvarTree@@@2@V?$_Uhash_compare@V?$basic_string@DU?$char_traits@D@std@@V?$allocator@D@2@@std@@U?$hash@V?$basic_string@DU?$char_traits@D@std@@V?$allocator@D@2@@std@@@2@U?$equal_to@V?$basic_string@DU?$char_traits@D@std@@V?$allocator@D@2@@std@@@2@@2@V?$allocator@U?$pair@$$CBV?$basic_string@DU?$char_traits@D@std@@V?$allocator@D@2@@std@@V?$shared_ptr@UNode@NetvarTree@@@2@@std@@@2@$0A@@std@@@std@@IAE?AU?$pair@V?$_List_iterator@V?$_List_val@U?$_List_simple_types@U?$pair@$$CBV?$basic_string@DU?$char_traits@D@std@@V?$allocator@D@2@@std@@V?$shared_ptr@UNode@NetvarTree@@@2@@std@@@std@@@std@@@std@@_N@1@AAU?$pair@$$CBV?$basic_string@DU?$char_traits@D@std@@V?$allocator@D@2@@std@@V?$shared_ptr@UNode@NetvarTree@@@2@@1@V?$_List_unchecked_iterator@V?$_List_val@U?$_List_simple_types@U?$pair@$$CBV?$basic_string@DU?$char_traits@D@std@@V?$allocator@D@2@@std@@V?$shared_ptr@UNode@NetvarTree@@@2@@std@@@std@@@std@@@1@@Z 10002d10 f i Aimbot.obj
 0001:00001fb0       ??$_Insert@ABUpiecewise_construct_t@std@@V?$tuple@$$QAV?$basic_string@DU?$char_traits@D@std@@V?$allocator@D@2@@std@@@2@V?$tuple@$$V@2@@?$list@U?$pair@$$CBV?$basic_string@DU?$char_traits@D@std@@V?$allocator@D@2@@std@@V?$shared_ptr@UNode@NetvarTree@@@2@@std@@V?$allocator@U?$pair@$$CBV?$basic_string@DU?$char_traits@D@std@@V?$allocator@D@2@@std@@V?$shared_ptr@UNode@NetvarTree@@@2@@std@@@2@@std@@QAEXV?$_List_unchecked_const_iterator@V?$_List_val@U?$_List_simple_types@U?$pair@$$CBV?$basic_string@DU?$char_traits@D@std@@V?$allocator@D@2@@std@@V?$shared_ptr@UNode@NetvarTree@@@2@@std@@@std@@@std@@U_Iterator_base0@2@@1@ABUpiecewise_construct_t@1@$$QAV?$tuple@$$QAV?$basic_string@DU?$char_traits@D@std@@V?$allocator@D@2@@std@@@1@$$QAV?$tuple@$$V@1@@Z 10002fb0 f i Aimbot.obj
 0001:00002040       ??$_Max_value@I@std@@YAABIABI0@Z 10003040 f i Aimbot.obj
 0001:00002040       ??$_Max_value@PAD@std@@YAABQADABQAD0@Z 10003040 f i zgui.obj
 0001:00002070       ??$_Min_value@I@std@@YAABIABI0@Z 10003070 f i Aimbot.obj
 0001:000020a0       ??$_Ptr_copy_cat@$$CBUmulti_select_item@zgui@@U12@@std@@YA?AU_Trivially_copyable_ptr_iterator_tag@0@ABQBUmulti_select_item@zgui@@ABQAU23@@Z 100030a0 f i Menu.obj
 0001:000020a0       ??$_Ptr_copy_cat@PAUPlayerRecords@@PAU1@@std@@YA?AU_Really_trivial_ptr_iterator_tag@0@ABQAPAUPlayerRecords@@0@Z 100030a0 f i LagComp.obj
 0001:000020a0       ??$_Ptr_copy_cat@QBDPBD@std@@YA?AU_Really_trivial_ptr_iterator_tag@0@ABQBQBDABQAPBD@Z 100030a0 f i Hooks.obj
 0001:000020a0       ??$_Ptr_move_cat@PAV?$ConfigValue@H@@PAV1@@std@@YA?AU_Really_trivial_ptr_iterator_tag@0@ABQAPAV?$ConfigValue@H@@0@Z 100030a0 f i TGFCfg.obj
 0001:000020a0       ??$_Ptr_copy_cat@PAUvec2@zgui@@PAU12@@std@@YA?AU_Really_trivial_ptr_iterator_tag@0@ABQAPAUvec2@zgui@@0@Z 100030a0 f i zgui.obj
 0001:000020a0       ??$_Ptr_move_cat@V?$_List_unchecked_iterator@V?$_List_val@U?$_List_simple_types@U?$pair@$$CBV?$basic_string@DU?$char_traits@D@std@@V?$allocator@D@2@@std@@V?$shared_ptr@UNode@NetvarTree@@@2@@std@@@std@@@std@@@std@@V12@@std@@YA?AU_Trivially_copyable_ptr_iterator_tag@0@ABQAV?$_List_unchecked_iterator@V?$_List_val@U?$_List_simple_types@U?$pair@$$CBV?$basic_string@DU?$char_traits@D@std@@V?$allocator@D@2@@std@@V?$shared_ptr@UNode@NetvarTree@@@2@@std@@@std@@@std@@@0@0@Z 100030a0 f i Aimbot.obj
 0001:000020a0       ??$_Ptr_move_cat@UHitMarker_t@@U1@@std@@YA?AU_Really_trivial_ptr_iterator_tag@0@ABQAUHitMarker_t@@0@Z 100030a0 f i Hooks.obj
 0001:000020a0       ??$_Ptr_move_cat@PAV?$ConfigValue@M@@PAV1@@std@@YA?AU_Really_trivial_ptr_iterator_tag@0@ABQAPAV?$ConfigValue@M@@0@Z 100030a0 f i TGFCfg.obj
 0001:000020a0       ??$_Ptr_move_cat@PAV?$ConfigValue@_N@@PAV1@@std@@YA?AU_Really_trivial_ptr_iterator_tag@0@ABQAPAV?$ConfigValue@_N@@0@Z 100030a0 f i TGFCfg.obj
 0001:000020a0       ??$_Ptr_move_cat@HH@std@@YA?AU_Really_trivial_ptr_iterator_tag@0@ABQAH0@Z 100030a0 f i Aimbot.obj
 0001:000020b0       ??$_Reallocate_for@V<lambda_9366063389c5f42a00a5088cf24e69de>@@PBD@?$basic_string@DU?$char_traits@D@std@@V?$allocator@D@2@@std@@QAEAAV01@IV<lambda_9366063389c5f42a00a5088cf24e69de>@@PBD@Z 100030b0 f i Aimbot.obj
 0001:00002190       ??$_Seek_wrapped@H@std@@YAXAAPAHQAH@Z 10003190 f i Aimbot.obj
 0001:00002190       ??$_Seek_wrapped@PBD@std@@YAXAAPAPBDQAPBD@Z 10003190 f i Hooks.obj
 0001:00002190       ??$_Seek_wrapped@UHitMarker_t@@@std@@YAXAAPAUHitMarker_t@@QAU1@@Z 10003190 f i Hooks.obj
 0001:00002190       ??$_Seek_wrapped@PAUPlayerRecords@@@std@@YAXAAPAPAUPlayerRecords@@QAPAU1@@Z 10003190 f i LagComp.obj
 0001:00002190       ??$_Seek_wrapped@Umulti_select_item@zgui@@@std@@YAXAAPAUmulti_select_item@zgui@@QAU12@@Z 10003190 f i Menu.obj
 0001:00002190       ??$_Seek_wrapped@Uzgui_control_render_t@zgui@@@std@@YAXAAPAUzgui_control_render_t@zgui@@QAU12@@Z 10003190 f i zgui.obj
 0001:00002190       ??$_Seek_wrapped@PAV?$ConfigValue@_N@@@std@@YAXAAPAPAV?$ConfigValue@_N@@QAPAV1@@Z 10003190 f i TGFCfg.obj
 0001:00002190       ??$_Seek_wrapped@Vtrace_info@@@std@@YAXAAPAVtrace_info@@QAV1@@Z 10003190 f i Hooks.obj
 0001:00002190       ??$_Seek_wrapped@PAV?$ConfigValue@H@@@std@@YAXAAPAPAV?$ConfigValue@H@@QAPAV1@@Z 10003190 f i TGFCfg.obj
 0001:00002190       ??$_Seek_wrapped@V?$_List_unchecked_iterator@V?$_List_val@U?$_List_simple_types@U?$pair@$$CBV?$basic_string@DU?$char_traits@D@std@@V?$allocator@D@2@@std@@V?$shared_ptr@UNode@NetvarTree@@@2@@std@@@std@@@std@@@std@@@std@@YAXAAPAV?$_List_unchecked_iterator@V?$_List_val@U?$_List_simple_types@U?$pair@$$CBV?$basic_string@DU?$char_traits@D@std@@V?$allocator@D@2@@std@@V?$shared_ptr@UNode@NetvarTree@@@2@@std@@@std@@@std@@@0@QAV10@@Z 10003190 f i Aimbot.obj
 0001:00002190       ??$_Seek_wrapped@VVector@@@std@@YAXAAPAVVector@@QAV1@@Z 10003190 f i Aimbot.obj
 0001:00002190       ??$_Seek_wrapped@UVertex_t@@@std@@YAXAAPAUVertex_t@@QAU1@@Z 10003190 f i ESP.obj
 0001:00002190       ??$_Seek_wrapped@PAUvec2@zgui@@@std@@YAXAAPAPAUvec2@zgui@@QAPAU12@@Z 10003190 f i zgui.obj
 0001:00002190       ??$_Seek_wrapped@V?$basic_string@DU?$char_traits@D@std@@V?$allocator@D@2@@std@@@std@@YAXAAPAV?$basic_string@DU?$char_traits@D@std@@V?$allocator@D@2@@0@QAV10@@Z 10003190 f i zgui.obj
 0001:00002190       ??$_Seek_wrapped@PAV?$ConfigValue@M@@@std@@YAXAAPAPAV?$ConfigValue@M@@QAPAV1@@Z 10003190 f i TGFCfg.obj
 0001:000021a0       ??$_Traits_equal@U?$char_traits@D@std@@@std@@YA_NQBDI0I@Z 100031a0 f i Aimbot.obj
 0001:000021e0       ??$_Try_emplace@V?$basic_string@DU?$char_traits@D@std@@V?$allocator@D@2@@std@@$$V@?$unordered_map@V?$basic_string@DU?$char_traits@D@std@@V?$allocator@D@2@@std@@V?$shared_ptr@UNode@NetvarTree@@@2@U?$hash@V?$basic_string@DU?$char_traits@D@std@@V?$allocator@D@2@@std@@@2@U?$equal_to@V?$basic_string@DU?$char_traits@D@std@@V?$allocator@D@2@@std@@@2@V?$allocator@U?$pair@$$CBV?$basic_string@DU?$char_traits@D@std@@V?$allocator@D@2@@std@@V?$shared_ptr@UNode@NetvarTree@@@2@@std@@@2@@std@@QAE?AU?$pair@V?$_List_iterator@V?$_List_val@U?$_List_simple_types@U?$pair@$$CBV?$basic_string@DU?$char_traits@D@std@@V?$allocator@D@2@@std@@V?$shared_ptr@UNode@NetvarTree@@@2@@std@@@std@@@std@@@std@@_N@1@$$QAV?$basic_string@DU?$char_traits@D@std@@V?$allocator@D@2@@1@@Z 100031e0 f i Aimbot.obj
 0001:00002280       ??$_Uninit_alloc_fill_n1@PAV?$_List_unchecked_iterator@V?$_List_val@U?$_List_simple_types@U?$pair@$$CBV?$basic_string@DU?$char_traits@D@std@@V?$allocator@D@2@@std@@V?$shared_ptr@UNode@NetvarTree@@@2@@std@@@std@@@std@@@std@@IV?$allocator@V?$_List_unchecked_iterator@V?$_List_val@U?$_List_simple_types@U?$pair@$$CBV?$basic_string@DU?$char_traits@D@std@@V?$allocator@D@2@@std@@V?$shared_ptr@UNode@NetvarTree@@@2@@std@@@std@@@std@@@std@@@2@@std@@YAPAV?$_List_unchecked_iterator@V?$_List_val@U?$_List_simple_types@U?$pair@$$CBV?$basic_string@DU?$char_traits@D@std@@V?$allocator@D@2@@std@@V?$shared_ptr@UNode@NetvarTree@@@2@@std@@@std@@@std@@@0@QAV10@IABV10@AAV?$allocator@V?$_List_unchecked_iterator@V?$_List_val@U?$_List_simple_types@U?$pair@$$CBV?$basic_string@DU?$char_traits@D@std@@V?$allocator@D@2@@std@@V?$shared_ptr@UNode@NetvarTree@@@2@@std@@@std@@@std@@@std@@@0@U?$integral_constant@_N$0A@@0@@Z 10003280 f i Aimbot.obj
 0001:00002300       ??$_Uninitialized_fill_n@PAV?$_List_unchecked_iterator@V?$_List_val@U?$_List_simple_types@U?$pair@$$CBV?$basic_string@DU?$char_traits@D@std@@V?$allocator@D@2@@std@@V?$shared_ptr@UNode@NetvarTree@@@2@@std@@@std@@@std@@@std@@IV?$allocator@V?$_List_unchecked_iterator@V?$_List_val@U?$_List_simple_types@U?$pair@$$CBV?$basic_string@DU?$char_traits@D@std@@V?$allocator@D@2@@std@@V?$shared_ptr@UNode@NetvarTree@@@2@@std@@@std@@@std@@@std@@@2@@std@@YAPAV?$_List_unchecked_iterator@V?$_List_val@U?$_List_simple_types@U?$pair@$$CBV?$basic_string@DU?$char_traits@D@std@@V?$allocator@D@2@@std@@V?$shared_ptr@UNode@NetvarTree@@@2@@std@@@std@@@std@@@0@QAV10@IABV10@AAV?$allocator@V?$_List_unchecked_iterator@V?$_List_val@U?$_List_simple_types@U?$pair@$$CBV?$basic_string@DU?$char_traits@D@std@@V?$allocator@D@2@@std@@V?$shared_ptr@UNode@NetvarTree@@@2@@std@@@std@@@std@@@std@@@0@@Z 10003300 f i Aimbot.obj
 0001:00002330       ??$_Uninitialized_move@PAPAV?$ConfigValue@_N@@PAPAV1@V?$allocator@PAV?$ConfigValue@_N@@@std@@@std@@YAPAPAV?$ConfigValue@_N@@QAPAV1@0PAPAV1@AAV?$allocator@PAV?$ConfigValue@_N@@@0@@Z 10003330 f i TGFCfg.obj
 0001:00002330       ??$_Uninitialized_copy@PAPAUPlayerRecords@@PAPAU1@V?$allocator@PAUPlayerRecords@@@std@@@std@@YAPAPAUPlayerRecords@@QAPAU1@0PAPAU1@AAV?$allocator@PAUPlayerRecords@@@0@@Z 10003330 f i LagComp.obj
 0001:00002330       ??$_Uninitialized_copy@PAPAUvec2@zgui@@PAPAU12@V?$allocator@PAUvec2@zgui@@@std@@@std@@YAPAPAUvec2@zgui@@QAPAU12@0PAPAU12@AAV?$allocator@PAUvec2@zgui@@@0@@Z 10003330 f i zgui.obj
 0001:00002330       ??$_Uninitialized_move@PAPAV?$ConfigValue@H@@PAPAV1@V?$allocator@PAV?$ConfigValue@H@@@std@@@std@@YAPAPAV?$ConfigValue@H@@QAPAV1@0PAPAV1@AAV?$allocator@PAV?$ConfigValue@H@@@0@@Z 10003330 f i TGFCfg.obj
 0001:00002330       ??$_Uninitialized_move@PAHPAHV?$allocator@H@std@@@std@@YAPAHQAH0PAHAAV?$allocator@H@0@@Z 10003330 f i Aimbot.obj
 0001:00002330       ??$_Uninitialized_copy@PBQBDPAPBDV?$allocator@PBD@std@@@std@@YAPAPBDQBQBD0PAPBDAAV?$allocator@PBD@0@@Z 10003330 f i Hooks.obj
 0001:00002330       ??$_Uninitialized_move@PAPAV?$ConfigValue@M@@PAPAV1@V?$allocator@PAV?$ConfigValue@M@@@std@@@std@@YAPAPAV?$ConfigValue@M@@QAPAV1@0PAPAV1@AAV?$allocator@PAV?$ConfigValue@M@@@0@@Z 10003330 f i TGFCfg.obj
 0001:00002400       ??$_Uninitialized_move@PAV?$_List_unchecked_iterator@V?$_List_val@U?$_List_simple_types@U?$pair@$$CBV?$basic_string@DU?$char_traits@D@std@@V?$allocator@D@2@@std@@V?$shared_ptr@UNode@NetvarTree@@@2@@std@@@std@@@std@@@std@@PAV12@V?$allocator@V?$_List_unchecked_iterator@V?$_List_val@U?$_List_simple_types@U?$pair@$$CBV?$basic_string@DU?$char_traits@D@std@@V?$allocator@D@2@@std@@V?$shared_ptr@UNode@NetvarTree@@@2@@std@@@std@@@std@@@std@@@2@@std@@YAPAV?$_List_unchecked_iterator@V?$_List_val@U?$_List_simple_types@U?$pair@$$CBV?$basic_string@DU?$char_traits@D@std@@V?$allocator@D@2@@std@@V?$shared_ptr@UNode@NetvarTree@@@2@@std@@@std@@@std@@@0@QAV10@0PAV10@AAV?$allocator@V?$_List_unchecked_iterator@V?$_List_val@U?$_List_simple_types@U?$pair@$$CBV?$basic_string@DU?$char_traits@D@std@@V?$allocator@D@2@@std@@V?$shared_ptr@UNode@NetvarTree@@@2@@std@@@std@@@std@@@std@@@0@@Z 10003400 f i Aimbot.obj
 0001:000024c0       ??$_Uninitialized_move@PAVVector@@PAV1@V?$allocator@VVector@@@std@@@std@@YAPAVVector@@QAV1@0PAV1@AAV?$allocator@VVector@@@0@@Z 100034c0 f i Aimbot.obj
 0001:00002580       ??$_Uninitialized_move_al_unchecked@PAV?$ConfigValue@_N@@PAV1@V?$allocator@PAV?$ConfigValue@_N@@@std@@@std@@YAPAPAV?$ConfigValue@_N@@QAPAV1@00AAV?$allocator@PAV?$ConfigValue@_N@@@0@U_Really_trivial_ptr_iterator_tag@0@U?$integral_constant@_N$00@0@@Z 10003580 f i TGFCfg.obj
 0001:00002580       ??$_Uninitialized_move_al_unchecked@HHV?$allocator@H@std@@@std@@YAPAHQAH00AAV?$allocator@H@0@U_Really_trivial_ptr_iterator_tag@0@U?$integral_constant@_N$00@0@@Z 10003580 f i Aimbot.obj
 0001:00002580       ??$_Uninitialized_move_al_unchecked@UHitMarker_t@@U1@V?$allocator@UHitMarker_t@@@std@@@std@@YAPAUHitMarker_t@@QAU1@00AAV?$allocator@UHitMarker_t@@@0@U_Really_trivial_ptr_iterator_tag@0@U?$integral_constant@_N$00@0@@Z 10003580 f i Hooks.obj
 0001:00002580       ??$_Uninitialized_move_al_unchecked@PAV?$ConfigValue@M@@PAV1@V?$allocator@PAV?$ConfigValue@M@@@std@@@std@@YAPAPAV?$ConfigValue@M@@QAPAV1@00AAV?$allocator@PAV?$ConfigValue@M@@@0@U_Really_trivial_ptr_iterator_tag@0@U?$integral_constant@_N$00@0@@Z 10003580 f i TGFCfg.obj
 0001:00002580       ??$_Uninitialized_copy_al_unchecked@QBDPBDV?$allocator@PBD@std@@@std@@YAPAPBDQBQBD0QAPBDAAV?$allocator@PBD@0@U_Really_trivial_ptr_iterator_tag@0@U?$integral_constant@_N$00@0@@Z 10003580 f i Hooks.obj
 0001:00002580       ??$_Uninitialized_copy_al_unchecked@PAUPlayerRecords@@PAU1@V?$allocator@PAUPlayerRecords@@@std@@@std@@YAPAPAUPlayerRecords@@QAPAU1@00AAV?$allocator@PAUPlayerRecords@@@0@U_Really_trivial_ptr_iterator_tag@0@U?$integral_constant@_N$00@0@@Z 10003580 f i LagComp.obj
 0001:00002580       ??$_Uninitialized_copy_al_unchecked@PAUvec2@zgui@@PAU12@V?$allocator@PAUvec2@zgui@@@std@@@std@@YAPAPAUvec2@zgui@@QAPAU12@00AAV?$allocator@PAUvec2@zgui@@@0@U_Really_trivial_ptr_iterator_tag@0@U?$integral_constant@_N$00@0@@Z 10003580 f i zgui.obj
 0001:00002580       ??$_Uninitialized_move_al_unchecked@PAV?$ConfigValue@H@@PAV1@V?$allocator@PAV?$ConfigValue@H@@@std@@@std@@YAPAPAV?$ConfigValue@H@@QAPAV1@00AAV?$allocator@PAV?$ConfigValue@H@@@0@U_Really_trivial_ptr_iterator_tag@0@U?$integral_constant@_N$00@0@@Z 10003580 f i TGFCfg.obj
 0001:00002580       ??$_Move_unchecked1@PAUHitMarker_t@@PAU1@@std@@YAPAUHitMarker_t@@PAU1@00U_Trivially_copyable_ptr_iterator_tag@0@@Z 10003580 f i Hooks.obj
 0001:000025a0       ??$_Uninitialized_move_al_unchecked@PAV?$_List_unchecked_iterator@V?$_List_val@U?$_List_simple_types@U?$pair@$$CBV?$basic_string@DU?$char_traits@D@std@@V?$allocator@D@2@@std@@V?$shared_ptr@UNode@NetvarTree@@@2@@std@@@std@@@std@@@std@@PAV12@V?$allocator@V?$_List_unchecked_iterator@V?$_List_val@U?$_List_simple_types@U?$pair@$$CBV?$basic_string@DU?$char_traits@D@std@@V?$allocator@D@2@@std@@V?$shared_ptr@UNode@NetvarTree@@@2@@std@@@std@@@std@@@std@@@2@@std@@YAPAV?$_List_unchecked_iterator@V?$_List_val@U?$_List_simple_types@U?$pair@$$CBV?$basic_string@DU?$char_traits@D@std@@V?$allocator@D@2@@std@@V?$shared_ptr@UNode@NetvarTree@@@2@@std@@@std@@@std@@@0@PAV10@QAV10@1AAV?$allocator@V?$_List_unchecked_iterator@V?$_List_val@U?$_List_simple_types@U?$pair@$$CBV?$basic_string@DU?$char_traits@D@std@@V?$allocator@D@2@@std@@V?$shared_ptr@UNode@NetvarTree@@@2@@std@@@std@@@std@@@std@@@0@U_General_ptr_iterator_tag@0@U_Unused_parameter@0@@Z 100035a0 f i Aimbot.obj
 0001:00002630       ??$_Uninitialized_move_al_unchecked@PAVVector@@PAV1@V?$allocator@VVector@@@std@@@std@@YAPAVVector@@PAV1@QAV1@1AAV?$allocator@VVector@@@0@U_General_ptr_iterator_tag@0@U_Unused_parameter@0@@Z 10003630 f i Aimbot.obj
 0001:000026c0       ??$construct@PAV?$ConfigValue@_N@@PAV1@@?$_Default_allocator_traits@V?$allocator@PAV?$ConfigValue@_N@@@std@@@std@@SAXAAV?$allocator@PAV?$ConfigValue@_N@@@1@QAPAV?$ConfigValue@_N@@$$QAPAV3@@Z 100036c0 f i TGFCfg.obj
 0001:000026c0       ??$construct@PADABQAD@?$_Default_allocator_traits@V?$allocator@D@std@@@std@@SAXAAV?$allocator@D@1@QAPADABQAD@Z 100036c0 f i Aimbot.obj
 0001:000026c0       ??$construct@PA_WABQA_W@?$_Default_allocator_traits@V?$allocator@_W@std@@@std@@SAXAAV?$allocator@_W@1@QAPA_WABQA_W@Z 100036c0 f i Hooks.obj
 0001:000026c0       ??$construct@HH@?$_Default_allocator_traits@V?$allocator@H@std@@@std@@SAXAAV?$allocator@H@1@QAH$$QAH@Z 100036c0 f i Aimbot.obj
 0001:000026c0       ??$construct@PAV?$ConfigValue@M@@PAV1@@?$_Default_allocator_traits@V?$allocator@PAV?$ConfigValue@M@@@std@@@std@@SAXAAV?$allocator@PAV?$ConfigValue@M@@@1@QAPAV?$ConfigValue@M@@$$QAPAV3@@Z 100036c0 f i TGFCfg.obj
 0001:000026c0       ??$construct@PAV?$ConfigValue@H@@PAV1@@?$_Default_allocator_traits@V?$allocator@PAV?$ConfigValue@H@@@std@@@std@@SAXAAV?$allocator@PAV?$ConfigValue@H@@@1@QAPAV?$ConfigValue@H@@$$QAPAV3@@Z 100036c0 f i TGFCfg.obj
 0001:000026c0       ??$construct@PAU?$_List_node@U?$pair@$$CBV?$basic_string@DU?$char_traits@D@std@@V?$allocator@D@2@@std@@V?$shared_ptr@UNode@NetvarTree@@@2@@std@@PAX@std@@AAPAU12@@?$_Default_allocator_traits@V?$allocator@U?$_List_node@U?$pair@$$CBV?$basic_string@DU?$char_traits@D@std@@V?$allocator@D@2@@std@@V?$shared_ptr@UNode@NetvarTree@@@2@@std@@PAX@std@@@std@@@std@@SAXAAV?$allocator@U?$_List_node@U?$pair@$$CBV?$basic_string@DU?$char_traits@D@std@@V?$allocator@D@2@@std@@V?$shared_ptr@UNode@NetvarTree@@@2@@std@@PAX@std@@@1@QAPAU?$_List_node@U?$pair@$$CBV?$basic_string@DU?$char_traits@D@std@@V?$allocator@D@2@@std@@V?$shared_ptr@UNode@NetvarTree@@@2@@std@@PAX@1@AAPAU31@@Z 100036c0 f i Aimbot.obj
 0001:000026f0       ??$construct@U?$pair@$$CBV?$basic_string@DU?$char_traits@D@std@@V?$allocator@D@2@@std@@V?$shared_ptr@UNode@NetvarTree@@@2@@std@@ABUpiecewise_construct_t@2@V?$tuple@$$QAV?$basic_string@DU?$char_traits@D@std@@V?$allocator@D@2@@std@@@2@V?$tuple@$$V@2@@?$_Default_allocator_traits@V?$allocator@U?$_List_node@U?$pair@$$CBV?$basic_string@DU?$char_traits@D@std@@V?$allocator@D@2@@std@@V?$shared_ptr@UNode@NetvarTree@@@2@@std@@PAX@std@@@std@@@std@@SAXAAV?$allocator@U?$_List_node@U?$pair@$$CBV?$basic_string@DU?$char_traits@D@std@@V?$allocator@D@2@@std@@V?$shared_ptr@UNode@NetvarTree@@@2@@std@@PAX@std@@@1@QAU?$pair@$$CBV?$basic_string@DU?$char_traits@D@std@@V?$allocator@D@2@@std@@V?$shared_ptr@UNode@NetvarTree@@@2@@1@ABUpiecewise_construct_t@1@$$QAV?$tuple@$$QAV?$basic_string@DU?$char_traits@D@std@@V?$allocator@D@2@@std@@@1@$$QAV?$tuple@$$V@1@@Z 100036f0 f i Aimbot.obj
 0001:00002770       ??$construct@V?$_List_unchecked_iterator@V?$_List_val@U?$_List_simple_types@U?$pair@$$CBV?$basic_string@DU?$char_traits@D@std@@V?$allocator@D@2@@std@@V?$shared_ptr@UNode@NetvarTree@@@2@@std@@@std@@@std@@@std@@V12@@?$_Default_allocator_traits@V?$allocator@V?$_List_unchecked_iterator@V?$_List_val@U?$_List_simple_types@U?$pair@$$CBV?$basic_string@DU?$char_traits@D@std@@V?$allocator@D@2@@std@@V?$shared_ptr@UNode@NetvarTree@@@2@@std@@@std@@@std@@@std@@@std@@@std@@SAXAAV?$allocator@V?$_List_unchecked_iterator@V?$_List_val@U?$_List_simple_types@U?$pair@$$CBV?$basic_string@DU?$char_traits@D@std@@V?$allocator@D@2@@std@@V?$shared_ptr@UNode@NetvarTree@@@2@@std@@@std@@@std@@@std@@@1@QAV?$_List_unchecked_iterator@V?$_List_val@U?$_List_simple_types@U?$pair@$$CBV?$basic_string@DU?$char_traits@D@std@@V?$allocator@D@2@@std@@V?$shared_ptr@UNode@NetvarTree@@@2@@std@@@std@@@std@@@1@$$QAV31@@Z 10003770 f i Aimbot.obj
 0001:00002770       ??$construct@V?$_List_unchecked_iterator@V?$_List_val@U?$_List_simple_types@U?$pair@$$CBV?$basic_string@DU?$char_traits@D@std@@V?$allocator@D@2@@std@@V?$shared_ptr@UNode@NetvarTree@@@2@@std@@@std@@@std@@@std@@ABV12@@?$_Default_allocator_traits@V?$allocator@V?$_List_unchecked_iterator@V?$_List_val@U?$_List_simple_types@U?$pair@$$CBV?$basic_string@DU?$char_traits@D@std@@V?$allocator@D@2@@std@@V?$shared_ptr@UNode@NetvarTree@@@2@@std@@@std@@@std@@@std@@@std@@@std@@SAXAAV?$allocator@V?$_List_unchecked_iterator@V?$_List_val@U?$_List_simple_types@U?$pair@$$CBV?$basic_string@DU?$char_traits@D@std@@V?$allocator@D@2@@std@@V?$shared_ptr@UNode@NetvarTree@@@2@@std@@@std@@@std@@@std@@@1@QAV?$_List_unchecked_iterator@V?$_List_val@U?$_List_simple_types@U?$pair@$$CBV?$basic_string@DU?$char_traits@D@std@@V?$allocator@D@2@@std@@V?$shared_ptr@UNode@NetvarTree@@@2@@std@@@std@@@std@@@1@ABV31@@Z 10003770 f i Aimbot.obj
 0001:000027a0       ??$construct@VVector@@AAV1@@?$_Default_allocator_traits@V?$allocator@VVector@@@std@@@std@@SAXAAV?$allocator@VVector@@@1@QAVVector@@AAV3@@Z 100037a0 f i Aimbot.obj
 0001:000027a0       ??$construct@Umulti_select_item@zgui@@ABU12@@?$_Default_allocator_traits@V?$allocator@Umulti_select_item@zgui@@@std@@@std@@SAXAAV?$allocator@Umulti_select_item@zgui@@@1@QAUmulti_select_item@zgui@@ABU34@@Z 100037a0 f i Menu.obj
 0001:000027a0       ??$construct@VVector@@V1@@?$_Default_allocator_traits@V?$allocator@VVector@@@std@@@std@@SAXAAV?$allocator@VVector@@@1@QAVVector@@$$QAV3@@Z 100037a0 f i Aimbot.obj
 0001:000027e0       ??$destroy@U?$pair@$$CBV?$basic_string@DU?$char_traits@D@std@@V?$allocator@D@2@@std@@V?$shared_ptr@UNode@NetvarTree@@@2@@std@@@?$_Default_allocator_traits@V?$allocator@U?$_List_node@U?$pair@$$CBV?$basic_string@DU?$char_traits@D@std@@V?$allocator@D@2@@std@@V?$shared_ptr@UNode@NetvarTree@@@2@@std@@PAX@std@@@std@@@std@@SAXAAV?$allocator@U?$_List_node@U?$pair@$$CBV?$basic_string@DU?$char_traits@D@std@@V?$allocator@D@2@@std@@V?$shared_ptr@UNode@NetvarTree@@@2@@std@@PAX@std@@@1@QAU?$pair@$$CBV?$basic_string@DU?$char_traits@D@std@@V?$allocator@D@2@@std@@V?$shared_ptr@UNode@NetvarTree@@@2@@1@@Z 100037e0 f i Aimbot.obj
 0001:000027f0       ??$emplace@ABUpiecewise_construct_t@std@@V?$tuple@$$QAV?$basic_string@DU?$char_traits@D@std@@V?$allocator@D@2@@std@@@2@V?$tuple@$$V@2@@?$_Hash@V?$_Umap_traits@V?$basic_string@DU?$char_traits@D@std@@V?$allocator@D@2@@std@@V?$shared_ptr@UNode@NetvarTree@@@2@V?$_Uhash_compare@V?$basic_string@DU?$char_traits@D@std@@V?$allocator@D@2@@std@@U?$hash@V?$basic_string@DU?$char_traits@D@std@@V?$allocator@D@2@@std@@@2@U?$equal_to@V?$basic_string@DU?$char_traits@D@std@@V?$allocator@D@2@@std@@@2@@2@V?$allocator@U?$pair@$$CBV?$basic_string@DU?$char_traits@D@std@@V?$allocator@D@2@@std@@V?$shared_ptr@UNode@NetvarTree@@@2@@std@@@2@$0A@@std@@@std@@QAE?AU?$pair@V?$_List_iterator@V?$_List_val@U?$_List_simple_types@U?$pair@$$CBV?$basic_string@DU?$char_traits@D@std@@V?$allocator@D@2@@std@@V?$shared_ptr@UNode@NetvarTree@@@2@@std@@@std@@@std@@@std@@_N@1@ABUpiecewise_construct_t@1@$$QAV?$tuple@$$QAV?$basic_string@DU?$char_traits@D@std@@V?$allocator@D@2@@std@@@1@$$QAV?$tuple@$$V@1@@Z 100037f0 f i Aimbot.obj
 0001:00002880       ??$emplace_back@AAVVector@@@?$vector@VVector@@V?$allocator@VVector@@@std@@@std@@QAEAAVVector@@AAV2@@Z 10003880 f i Aimbot.obj
 0001:000028f0       ??$emplace_back@PAV?$ConfigValue@H@@@?$vector@PAV?$ConfigValue@H@@V?$allocator@PAV?$ConfigValue@H@@@std@@@std@@QAEAAPAV?$ConfigValue@H@@$$QAPAV2@@Z 100038f0 f i TGFCfg.obj
 0001:000028f0       ??$emplace_back@PAV?$ConfigValue@M@@@?$vector@PAV?$ConfigValue@M@@V?$allocator@PAV?$ConfigValue@M@@@std@@@std@@QAEAAPAV?$ConfigValue@M@@$$QAPAV2@@Z 100038f0 f i TGFCfg.obj
 0001:000028f0       ??$emplace_back@H@?$vector@HV?$allocator@H@std@@@std@@QAEAAH$$QAH@Z 100038f0 f i Aimbot.obj
 0001:000028f0       ??$emplace_back@PAV?$ConfigValue@_N@@@?$vector@PAV?$ConfigValue@_N@@V?$allocator@PAV?$ConfigValue@_N@@@std@@@std@@QAEAAPAV?$ConfigValue@_N@@$$QAPAV2@@Z 100038f0 f i TGFCfg.obj
 0001:00002960       ??$emplace_front@ABUpiecewise_construct_t@std@@V?$tuple@$$QAV?$basic_string@DU?$char_traits@D@std@@V?$allocator@D@2@@std@@@2@V?$tuple@$$V@2@@?$list@U?$pair@$$CBV?$basic_string@DU?$char_traits@D@std@@V?$allocator@D@2@@std@@V?$shared_ptr@UNode@NetvarTree@@@2@@std@@V?$allocator@U?$pair@$$CBV?$basic_string@DU?$char_traits@D@std@@V?$allocator@D@2@@std@@V?$shared_ptr@UNode@NetvarTree@@@2@@std@@@2@@std@@QAEAAU?$pair@$$CBV?$basic_string@DU?$char_traits@D@std@@V?$allocator@D@2@@std@@V?$shared_ptr@UNode@NetvarTree@@@2@@1@ABUpiecewise_construct_t@1@$$QAV?$tuple@$$QAV?$basic_string@DU?$char_traits@D@std@@V?$allocator@D@2@@std@@@1@$$QAV?$tuple@$$V@1@@Z 10003960 f i Aimbot.obj
 0001:000029e0       ??$erase@V?$_List_iterator@V?$_List_val@U?$_List_simple_types@U?$pair@$$CBV?$basic_string@DU?$char_traits@D@std@@V?$allocator@D@2@@std@@V?$shared_ptr@UNode@NetvarTree@@@2@@std@@@std@@@std@@@std@@X@?$_Hash@V?$_Umap_traits@V?$basic_string@DU?$char_traits@D@std@@V?$allocator@D@2@@std@@V?$shared_ptr@UNode@NetvarTree@@@2@V?$_Uhash_compare@V?$basic_string@DU?$char_traits@D@std@@V?$allocator@D@2@@std@@U?$hash@V?$basic_string@DU?$char_traits@D@std@@V?$allocator@D@2@@std@@@2@U?$equal_to@V?$basic_string@DU?$char_traits@D@std@@V?$allocator@D@2@@std@@@2@@2@V?$allocator@U?$pair@$$CBV?$basic_string@DU?$char_traits@D@std@@V?$allocator@D@2@@std@@V?$shared_ptr@UNode@NetvarTree@@@2@@std@@@2@$0A@@std@@@std@@QAE?AV?$_List_iterator@V?$_List_val@U?$_List_simple_types@U?$pair@$$CBV?$basic_string@DU?$char_traits@D@std@@V?$allocator@D@2@@std@@V?$shared_ptr@UNode@NetvarTree@@@2@@std@@@std@@@std@@@1@V21@@Z 100039e0 f i Aimbot.obj
 0001:00002a10       ??$forward_as_tuple@$$V@std@@YA?AV?$tuple@$$V@0@XZ 10003a10 f i Aimbot.obj
 0001:00002a20       ??$forward_as_tuple@V?$basic_string@DU?$char_traits@D@std@@V?$allocator@D@2@@std@@@std@@YA?AV?$tuple@$$QAV?$basic_string@DU?$char_traits@D@std@@V?$allocator@D@2@@std@@@0@$$QAV?$basic_string@DU?$char_traits@D@std@@V?$allocator@D@2@@0@@Z 10003a20 f i Aimbot.obj
 0001:00002a40       ??$get@$0A@$$QAV?$basic_string@DU?$char_traits@D@std@@V?$allocator@D@2@@std@@@std@@YA$$QAV?$basic_string@DU?$char_traits@D@std@@V?$allocator@D@2@@0@$$QAV?$tuple@$$QAV?$basic_string@DU?$char_traits@D@std@@V?$allocator@D@2@@std@@@0@@Z 10003a40 f i Aimbot.obj
 0001:00002a60       ??$try_emplace@$$V@?$unordered_map@V?$basic_string@DU?$char_traits@D@std@@V?$allocator@D@2@@std@@V?$shared_ptr@UNode@NetvarTree@@@2@U?$hash@V?$basic_string@DU?$char_traits@D@std@@V?$allocator@D@2@@std@@@2@U?$equal_to@V?$basic_string@DU?$char_traits@D@std@@V?$allocator@D@2@@std@@@2@V?$allocator@U?$pair@$$CBV?$basic_string@DU?$char_traits@D@std@@V?$allocator@D@2@@std@@V?$shared_ptr@UNode@NetvarTree@@@2@@std@@@2@@std@@QAE?AU?$pair@V?$_List_iterator@V?$_List_val@U?$_List_simple_types@U?$pair@$$CBV?$basic_string@DU?$char_traits@D@std@@V?$allocator@D@2@@std@@V?$shared_ptr@UNode@NetvarTree@@@2@@std@@@std@@@std@@@std@@_N@1@$$QAV?$basic_string@DU?$char_traits@D@std@@V?$allocator@D@2@@1@@Z 10003a60 f i Aimbot.obj
 0001:00002a90       ??0?$_Deque_const_iterator@V?$_Deque_val@U?$_Deque_simple_types@UPlayerRecords@@@std@@@std@@@std@@QAE@ABV01@@Z 10003a90 f i Aimbot.obj
 0001:00002a90       ??0?$_Deque_const_iterator@V?$_Deque_val@U?$_Deque_simple_types@UPlayerRecords@@@std@@@std@@@std@@QAE@$$QAV01@@Z 10003a90 f i LagComp.obj
 0001:00002a90       ??0?$_Deque_const_iterator@V?$_Deque_val@U?$_Deque_simple_types@Uvec2@zgui@@@std@@@std@@@std@@QAE@ABV01@@Z 10003a90 f i zgui.obj
 0001:00002ac0       ??0?$_Deque_const_iterator@V?$_Deque_val@U?$_Deque_simple_types@Uvec2@zgui@@@std@@@std@@@std@@QAE@IPBU_Container_base12@1@@Z 10003ac0 f i zgui.obj
 0001:00002ac0       ??0?$_Deque_const_iterator@V?$_Deque_val@U?$_Deque_simple_types@UPlayerRecords@@@std@@@std@@@std@@QAE@IPBU_Container_base12@1@@Z 10003ac0 f i Aimbot.obj
 0001:00002b20       ??0?$_Deque_iterator@V?$_Deque_val@U?$_Deque_simple_types@UPlayerRecords@@@std@@@std@@@std@@QAE@ABV01@@Z 10003b20 f i Aimbot.obj
 0001:00002b20       ??0?$_Deque_iterator@V?$_Deque_val@U?$_Deque_simple_types@Uvec2@zgui@@@std@@@std@@@std@@QAE@ABV01@@Z 10003b20 f i zgui.obj
 0001:00002b20       ??0?$_Deque_iterator@V?$_Deque_val@U?$_Deque_simple_types@UPlayerRecords@@@std@@@std@@@std@@QAE@$$QAV01@@Z 10003b20 f i LagComp.obj
 0001:00002b40       ??0?$_Deque_iterator@V?$_Deque_val@U?$_Deque_simple_types@Uvec2@zgui@@@std@@@std@@@std@@QAE@IPBU_Container_base12@1@@Z 10003b40 f i zgui.obj
 0001:00002b40       ??0?$_Deque_iterator@V?$_Deque_val@U?$_Deque_simple_types@UPlayerRecords@@@std@@@std@@@std@@QAE@IPBU_Container_base12@1@@Z 10003b40 f i Aimbot.obj
 0001:00002b60       ??0?$_List_unchecked_iterator@V?$_List_val@U?$_List_simple_types@U?$pair@$$CBV?$basic_string@DU?$char_traits@D@std@@V?$allocator@D@2@@std@@V?$shared_ptr@UNode@NetvarTree@@@2@@std@@@std@@@std@@@std@@QAE@PAU?$_List_node@U?$pair@$$CBV?$basic_string@DU?$char_traits@D@std@@V?$allocator@D@2@@std@@V?$shared_ptr@UNode@NetvarTree@@@2@@std@@PAX@1@PBV?$_List_val@U?$_List_simple_types@U?$pair@$$CBV?$basic_string@DU?$char_traits@D@std@@V?$allocator@D@2@@std@@V?$shared_ptr@UNode@NetvarTree@@@2@@std@@@std@@@1@@Z 10003b60 f i Aimbot.obj
 0001:00002b60       ??0?$_Vector_iterator@V?$_Vector_val@U?$_Simple_types@UHitMarker_t@@@std@@@std@@@std@@QAE@PAUHitMarker_t@@PBU_Container_base0@1@@Z 10003b60 f i Hooks.obj
 0001:00002b60       ??0?$_List_const_iterator@V?$_List_val@U?$_List_simple_types@U?$pair@$$CBV?$basic_string@DU?$char_traits@D@std@@V?$allocator@D@2@@std@@V?$shared_ptr@UNode@NetvarTree@@@2@@std@@@std@@@std@@@std@@QAE@PAU?$_List_node@U?$pair@$$CBV?$basic_string@DU?$char_traits@D@std@@V?$allocator@D@2@@std@@V?$shared_ptr@UNode@NetvarTree@@@2@@std@@PAX@1@PBV?$_List_val@U?$_List_simple_types@U?$pair@$$CBV?$basic_string@DU?$char_traits@D@std@@V?$allocator@D@2@@std@@V?$shared_ptr@UNode@NetvarTree@@@2@@std@@@std@@@1@@Z 10003b60 f i Aimbot.obj
 0001:00002b60       ??0?$_String_iterator@V?$_String_val@U?$_Simple_types@D@std@@@std@@@std@@QAE@PADPBU_Container_base0@1@@Z 10003b60 f i Hooks.obj
 0001:00002b60       ??0?$_Vector_iterator@V?$_Vector_val@U?$_Simple_types@Vtrace_info@@@std@@@std@@@std@@QAE@PAVtrace_info@@PBU_Container_base0@1@@Z 10003b60 f i Hooks.obj
 0001:00002b80       ??0?$_List_iterator@V?$_List_val@U?$_List_simple_types@U?$pair@$$CBV?$basic_string@DU?$char_traits@D@std@@V?$allocator@D@2@@std@@V?$shared_ptr@UNode@NetvarTree@@@2@@std@@@std@@@std@@@std@@QAE@PAU?$_List_node@U?$pair@$$CBV?$basic_string@DU?$char_traits@D@std@@V?$allocator@D@2@@std@@V?$shared_ptr@UNode@NetvarTree@@@2@@std@@PAX@1@PBV?$_List_val@U?$_List_simple_types@U?$pair@$$CBV?$basic_string@DU?$char_traits@D@std@@V?$allocator@D@2@@std@@V?$shared_ptr@UNode@NetvarTree@@@2@@std@@@std@@@1@@Z 10003b80 f i Aimbot.obj
 0001:00002ba0       ??0?$_String_const_iterator@V?$_String_val@U?$_Simple_types@D@std@@@std@@@std@@QAE@PBDPBU_Container_base0@1@@Z 10003ba0 f i Hooks.obj
 0001:00002ba0       ??0?$_Vector_const_iterator@V?$_Vector_val@U?$_Simple_types@Vtrace_info@@@std@@@std@@@std@@QAE@PAVtrace_info@@PBU_Container_base0@1@@Z 10003ba0 f i Hooks.obj
 0001:00002ba0       ??0?$_Vector_const_iterator@V?$_Vector_val@U?$_Simple_types@UHitMarker_t@@@std@@@std@@@std@@QAE@PAUHitMarker_t@@PBU_Container_base0@1@@Z 10003ba0 f i Hooks.obj
 0001:00002ba0       ??0?$_List_unchecked_const_iterator@V?$_List_val@U?$_List_simple_types@U?$pair@$$CBV?$basic_string@DU?$char_traits@D@std@@V?$allocator@D@2@@std@@V?$shared_ptr@UNode@NetvarTree@@@2@@std@@@std@@@std@@U_Iterator_base0@2@@std@@QAE@PAU?$_List_node@U?$pair@$$CBV?$basic_string@DU?$char_traits@D@std@@V?$allocator@D@2@@std@@V?$shared_ptr@UNode@NetvarTree@@@2@@std@@PAX@1@PBV?$_List_val@U?$_List_simple_types@U?$pair@$$CBV?$basic_string@DU?$char_traits@D@std@@V?$allocator@D@2@@std@@V?$shared_ptr@UNode@NetvarTree@@@2@@std@@@std@@@1@@Z 10003ba0 f i Aimbot.obj
 0001:00002bd0       ??0_Container_base12@std@@QAE@XZ 10003bd0 f i LagComp.obj
 0001:00002bd0       ??0?$_List_unchecked_const_iterator@V?$_List_val@U?$_List_simple_types@U?$pair@$$CBV?$basic_string@DU?$char_traits@D@std@@V?$allocator@D@2@@std@@V?$shared_ptr@UNode@NetvarTree@@@2@@std@@@std@@@std@@U_Iterator_base0@2@@std@@QAE@XZ 10003bd0 f i Aimbot.obj
 0001:00002bf0       ??0?$_List_unchecked_iterator@V?$_List_val@U?$_List_simple_types@U?$pair@$$CBV?$basic_string@DU?$char_traits@D@std@@V?$allocator@D@2@@std@@V?$shared_ptr@UNode@NetvarTree@@@2@@std@@@std@@@std@@@std@@QAE@XZ 10003bf0 f i Aimbot.obj
 0001:00002c10       ??0_Container_proxy@std@@QAE@XZ 10003c10 f i LagComp.obj
 0001:00002c10       ??0_Iterator_base12@std@@QAE@XZ 10003c10 f i Aimbot.obj
 0001:00002c10       ??0?$_Ptr_base@UNode@NetvarTree@@@std@@IAE@XZ 10003c10 f i Aimbot.obj
 0001:00002c10       ??0?$_List_val@U?$_List_simple_types@U?$pair@$$CBV?$basic_string@DU?$char_traits@D@std@@V?$allocator@D@2@@std@@V?$shared_ptr@UNode@NetvarTree@@@2@@std@@@std@@@std@@QAE@XZ 10003c10 f i NetvarManager.obj
 0001:00002c40       ??0?$_String_alloc@U?$_String_base_types@DV?$allocator@D@std@@@std@@@std@@QAE@XZ 10003c40 f i Aimbot.obj
 0001:00002c70       ??0?$_String_val@U?$_Simple_types@D@std@@@std@@QAE@XZ 10003c70 f i Aimbot.obj
 0001:00002c70       ??0?$_String_val@U?$_Simple_types@_W@std@@@std@@QAE@XZ 10003c70 f i Hooks.obj
 0001:00002ca0       ??0?$_Uninitialized_backout_al@PAUmulti_select_item@zgui@@V?$allocator@Umulti_select_item@zgui@@@std@@@std@@QAE@PAUmulti_select_item@zgui@@AAV?$allocator@Umulti_select_item@zgui@@@1@@Z 10003ca0 f i Menu.obj
 0001:00002ca0       ??0?$_Uninitialized_backout_al@PAUzgui_control_render_t@zgui@@V?$allocator@Uzgui_control_render_t@zgui@@@std@@@std@@QAE@PAUzgui_control_render_t@zgui@@AAV?$allocator@Uzgui_control_render_t@zgui@@@1@@Z 10003ca0 f i zgui.obj
 0001:00002ca0       ??0?$_Uninitialized_backout_al@PAVVector@@V?$allocator@VVector@@@std@@@std@@QAE@PAVVector@@AAV?$allocator@VVector@@@1@@Z 10003ca0 f i Aimbot.obj
 0001:00002ca0       ??0?$_Uninitialized_backout_al@PAV?$_List_unchecked_iterator@V?$_List_val@U?$_List_simple_types@U?$pair@$$CBV?$basic_string@DU?$char_traits@D@std@@V?$allocator@D@2@@std@@V?$shared_ptr@UNode@NetvarTree@@@2@@std@@@std@@@std@@@std@@V?$allocator@V?$_List_unchecked_iterator@V?$_List_val@U?$_List_simple_types@U?$pair@$$CBV?$basic_string@DU?$char_traits@D@std@@V?$allocator@D@2@@std@@V?$shared_ptr@UNode@NetvarTree@@@2@@std@@@std@@@std@@@std@@@2@@std@@QAE@PAV?$_List_unchecked_iterator@V?$_List_val@U?$_List_simple_types@U?$pair@$$CBV?$basic_string@DU?$char_traits@D@std@@V?$allocator@D@2@@std@@V?$shared_ptr@UNode@NetvarTree@@@2@@std@@@std@@@std@@@1@AAV?$allocator@V?$_List_unchecked_iterator@V?$_List_val@U?$_List_simple_types@U?$pair@$$CBV?$basic_string@DU?$char_traits@D@std@@V?$allocator@D@2@@std@@V?$shared_ptr@UNode@NetvarTree@@@2@@std@@@std@@@std@@@std@@@1@@Z 10003ca0 f i Aimbot.obj
 0001:00002ca0       ??0?$_Uninitialized_backout_al@PAV?$basic_string@DU?$char_traits@D@std@@V?$allocator@D@2@@std@@V?$allocator@V?$basic_string@DU?$char_traits@D@std@@V?$allocator@D@2@@std@@@2@@std@@QAE@PAV?$basic_string@DU?$char_traits@D@std@@V?$allocator@D@2@@1@AAV?$allocator@V?$basic_string@DU?$char_traits@D@std@@V?$allocator@D@2@@std@@@1@@Z 10003ca0 f i zgui.obj
 0001:00002ca0       ??0?$_Uninitialized_backout_al@PAVtrace_info@@V?$allocator@Vtrace_info@@@std@@@std@@QAE@PAVtrace_info@@AAV?$allocator@Vtrace_info@@@1@@Z 10003ca0 f i Hooks.obj
 0001:00002ca0       ??0?$_Uninitialized_backout_al@PAUVertex_t@@V?$allocator@UVertex_t@@@std@@@std@@QAE@PAUVertex_t@@AAV?$allocator@UVertex_t@@@1@@Z 10003ca0 f i ESP.obj
 0001:00002cd0       ??0?$_Vector_alloc@U?$_Vec_base_types@V?$basic_string@DU?$char_traits@D@std@@V?$allocator@D@2@@std@@V?$allocator@V?$basic_string@DU?$char_traits@D@std@@V?$allocator@D@2@@std@@@2@@std@@@std@@QAE@XZ 10003cd0 f i zgui.obj
 0001:00002cd0       ??0?$_Vector_alloc@U?$_Vec_base_types@PAV?$ConfigValue@_N@@V?$allocator@PAV?$ConfigValue@_N@@@std@@@std@@@std@@QAE@XZ 10003cd0 f i TGFCfg.obj
 0001:00002cd0       ??0?$_Vector_alloc@U?$_Vec_base_types@Uzgui_control_render_t@zgui@@V?$allocator@Uzgui_control_render_t@zgui@@@std@@@std@@@std@@QAE@XZ 10003cd0 f i zgui.obj
 0001:00002cd0       ??0?$_Vector_alloc@U?$_Vec_base_types@VVector@@V?$allocator@VVector@@@std@@@std@@@std@@QAE@XZ 10003cd0 f i Aimbot.obj
 0001:00002cd0       ??0?$_Vector_alloc@U?$_Vec_base_types@UVertex_t@@V?$allocator@UVertex_t@@@std@@@std@@@std@@QAE@XZ 10003cd0 f i ESP.obj
 0001:00002cd0       ??0?$_Vector_alloc@U?$_Vec_base_types@PAV?$ConfigValue@H@@V?$allocator@PAV?$ConfigValue@H@@@std@@@std@@@std@@QAE@XZ 10003cd0 f i TGFCfg.obj
 0001:00002cd0       ??0?$_Vector_alloc@U?$_Vec_base_types@PAV?$ConfigValue@M@@V?$allocator@PAV?$ConfigValue@M@@@std@@@std@@@std@@QAE@XZ 10003cd0 f i TGFCfg.obj
 0001:00002cd0       ??0?$_Vector_alloc@U?$_Vec_base_types@PAVIMaterial@@V?$allocator@PAVIMaterial@@@std@@@std@@@std@@QAE@XZ 10003cd0 f i Chams.obj
 0001:00002cd0       ??0?$_Vector_alloc@U?$_Vec_base_types@Vtrace_info@@V?$allocator@Vtrace_info@@@std@@@std@@@std@@QAE@XZ 10003cd0 f i Hooks.obj
 0001:00002cd0       ??0?$_Vector_alloc@U?$_Vec_base_types@UHitMarker_t@@V?$allocator@UHitMarker_t@@@std@@@std@@@std@@QAE@XZ 10003cd0 f i Hooks.obj
 0001:00002cd0       ??0?$_Vector_alloc@U?$_Vec_base_types@HV?$allocator@H@std@@@std@@@std@@QAE@XZ 10003cd0 f i Aimbot.obj
 0001:00002d00       ??0?$_Vector_val@U?$_Simple_types@H@std@@@std@@QAE@XZ 10003d00 f i Aimbot.obj
 0001:00002d00       ??0?$_Vector_val@U?$_Simple_types@PAV?$ConfigValue@H@@@std@@@std@@QAE@XZ 10003d00 f i TGFCfg.obj
 0001:00002d00       ??0?$_Vector_val@U?$_Simple_types@VVector@@@std@@@std@@QAE@XZ 10003d00 f i Aimbot.obj
 0001:00002d00       ??0?$_Vector_val@U?$_Simple_types@PBD@std@@@std@@QAE@XZ 10003d00 f i Hooks.obj
 0001:00002d00       ??0?$_Vector_val@U?$_Simple_types@V?$_List_unchecked_iterator@V?$_List_val@U?$_List_simple_types@U?$pair@$$CBV?$basic_string@DU?$char_traits@D@std@@V?$allocator@D@2@@std@@V?$shared_ptr@UNode@NetvarTree@@@2@@std@@@std@@@std@@@std@@@std@@@std@@QAE@XZ 10003d00 f i NetvarManager.obj
 0001:00002d00       ??0?$_Vector_val@U?$_Simple_types@PAV?$ConfigValue@M@@@std@@@std@@QAE@XZ 10003d00 f i TGFCfg.obj
 0001:00002d00       ??0?$_Vector_val@U?$_Simple_types@PAVIMaterial@@@std@@@std@@QAE@XZ 10003d00 f i Chams.obj
 0001:00002d00       ??0?$_Vector_val@U?$_Simple_types@V?$basic_string@DU?$char_traits@D@std@@V?$allocator@D@2@@std@@@std@@@std@@QAE@XZ 10003d00 f i zgui.obj
 0001:00002d00       ??0?$_Vector_val@U?$_Simple_types@Umulti_select_item@zgui@@@std@@@std@@QAE@XZ 10003d00 f i Menu.obj
 0001:00002d00       ??0?$_Vector_val@U?$_Simple_types@UVertex_t@@@std@@@std@@QAE@XZ 10003d00 f i ESP.obj
 0001:00002d00       ??0?$_Vector_val@U?$_Simple_types@UHitMarker_t@@@std@@@std@@QAE@XZ 10003d00 f i Hooks.obj
 0001:00002d00       ??0?$_Vector_val@U?$_Simple_types@Vtrace_info@@@std@@@std@@QAE@XZ 10003d00 f i Hooks.obj
 0001:00002d00       ??0?$_Vector_val@U?$_Simple_types@Uzgui_control_render_t@zgui@@@std@@@std@@QAE@XZ 10003d00 f i zgui.obj
 0001:00002d00       ??0?$_Vector_val@U?$_Simple_types@PAV?$ConfigValue@_N@@@std@@@std@@QAE@XZ 10003d00 f i TGFCfg.obj
 0001:00002d30       ?_Get_first@?$_Compressed_pair@V?$allocator@D@std@@V?$_String_val@U?$_Simple_types@D@std@@@2@$00@std@@QAEAAV?$allocator@D@2@XZ 10003d30 f i Aimbot.obj
 0001:00002d30       ?_Get_second@?$_Compressed_pair@V?$allocator@Vtrace_info@@@std@@V?$_Vector_val@U?$_Simple_types@Vtrace_info@@@std@@@2@$00@std@@QAEAAV?$_Vector_val@U?$_Simple_types@Vtrace_info@@@std@@@2@XZ 10003d30 f i Hooks.obj
 0001:00002d30       ?_Get_second@?$_Compressed_pair@V?$allocator@PAVIMaterial@@@std@@V?$_Vector_val@U?$_Simple_types@PAVIMaterial@@@std@@@2@$00@std@@QBEABV?$_Vector_val@U?$_Simple_types@PAVIMaterial@@@std@@@2@XZ 10003d30 f i Chams.obj
 0001:00002d30       ?_Get_first@?$_Compressed_pair@U?$hash@V?$basic_string@DU?$char_traits@D@std@@V?$allocator@D@2@@std@@@std@@V?$_Compressed_pair@U?$equal_to@V?$basic_string@DU?$char_traits@D@std@@V?$allocator@D@2@@std@@@std@@M$00@2@$00@std@@QBEABU?$hash@V?$basic_string@DU?$char_traits@D@std@@V?$allocator@D@2@@std@@@2@XZ 10003d30 f i Aimbot.obj
 0001:00002d30       ?_Get_first@?$_Compressed_pair@U?$default_delete@VShadowVTManager@@@std@@PAVShadowVTManager@@$00@std@@QAEAAU?$default_delete@VShadowVTManager@@@2@XZ 10003d30 f i Hooks.obj
 0001:00002d30       ?_Get_second@?$_Compressed_pair@U?$equal_to@V?$basic_string@DU?$char_traits@D@std@@V?$allocator@D@2@@std@@@std@@M$00@std@@QBEABMXZ 10003d30 f i Aimbot.obj
 0001:00002d30       ??0?$allocator@VVector@@@std@@QAE@XZ 10003d30 f i Aimbot.obj
 0001:00002d30       ?_Get_second@?$_Compressed_pair@U?$hash@V?$basic_string@DU?$char_traits@D@std@@V?$allocator@D@2@@std@@@std@@V?$_Compressed_pair@U?$equal_to@V?$basic_string@DU?$char_traits@D@std@@V?$allocator@D@2@@std@@@std@@M$00@2@$00@std@@QBEABV?$_Compressed_pair@U?$equal_to@V?$basic_string@DU?$char_traits@D@std@@V?$allocator@D@2@@std@@@std@@M$00@2@XZ 10003d30 f i Aimbot.obj
 0001:00002d30       ?_Get_second@?$_Compressed_pair@V?$allocator@UVertex_t@@@std@@V?$_Vector_val@U?$_Simple_types@UVertex_t@@@std@@@2@$00@std@@QBEABV?$_Vector_val@U?$_Simple_types@UVertex_t@@@std@@@2@XZ 10003d30 f i ESP.obj
 0001:00002d30       ??0?$allocator@Uzgui_control_render_t@zgui@@@std@@QAE@XZ 10003d30 f i zgui.obj
 0001:00002d30       ?_Get_first@?$_Compressed_pair@U?$default_delete@VVMTHook@@@std@@PAVVMTHook@@$00@std@@QAEAAU?$default_delete@VVMTHook@@@2@XZ 10003d30 f i Hooks.obj
 0001:00002d30       ?_Get_second@?$_Compressed_pair@V?$allocator@VVector@@@std@@V?$_Vector_val@U?$_Simple_types@VVector@@@std@@@2@$00@std@@QAEAAV?$_Vector_val@U?$_Simple_types@VVector@@@std@@@2@XZ 10003d30 f i Aimbot.obj
 0001:00002d30       ?_Get_first@?$_Compressed_pair@V?$allocator@Uzgui_control_render_t@zgui@@@std@@V?$_Vector_val@U?$_Simple_types@Uzgui_control_render_t@zgui@@@std@@@2@$00@std@@QBEABV?$allocator@Uzgui_control_render_t@zgui@@@2@XZ 10003d30 f i zgui.obj
 0001:00002d30       ?_Get_first@?$_Compressed_pair@V?$allocator@PAV?$ConfigValue@H@@@std@@V?$_Vector_val@U?$_Simple_types@PAV?$ConfigValue@H@@@std@@@2@$00@std@@QAEAAV?$allocator@PAV?$ConfigValue@H@@@2@XZ 10003d30 f i TGFCfg.obj
 0001:00002d30       ?_Get_first@?$_Compressed_pair@V?$allocator@UHitMarker_t@@@std@@V?$_Vector_val@U?$_Simple_types@UHitMarker_t@@@std@@@2@$00@std@@QAEAAV?$allocator@UHitMarker_t@@@2@XZ 10003d30 f i Hooks.obj
 0001:00002d30       ?_Get_second@?$_Compressed_pair@V?$allocator@Uvec2@zgui@@@std@@V?$_Deque_val@U?$_Deque_simple_types@Uvec2@zgui@@@std@@@2@$00@std@@QAEAAV?$_Deque_val@U?$_Deque_simple_types@Uvec2@zgui@@@std@@@2@XZ 10003d30 f i zgui.obj
 0001:00002d30       ?_Get_first@?$_Compressed_pair@V?$allocator@PAV?$ConfigValue@M@@@std@@V?$_Vector_val@U?$_Simple_types@PAV?$ConfigValue@M@@@std@@@2@$00@std@@QAEAAV?$allocator@PAV?$ConfigValue@M@@@2@XZ 10003d30 f i TGFCfg.obj
 0001:00002d30       ??0?$allocator@U?$pair@$$CBV?$basic_string@DU?$char_traits@D@std@@V?$allocator@D@2@@std@@V?$shared_ptr@UNode@NetvarTree@@@2@@std@@@std@@QAE@XZ 10003d30 f i NetvarManager.obj
 0001:00002d30       ?_Get_first@?$_Compressed_pair@V?$allocator@PAV?$ConfigValue@_N@@@std@@V?$_Vector_val@U?$_Simple_types@PAV?$ConfigValue@_N@@@std@@@2@$00@std@@QAEAAV?$allocator@PAV?$ConfigValue@_N@@@2@XZ 10003d30 f i TGFCfg.obj
 0001:00002d30       ?_Get_second@?$_Compressed_pair@V?$allocator@V?$_List_unchecked_iterator@V?$_List_val@U?$_List_simple_types@U?$pair@$$CBV?$basic_string@DU?$char_traits@D@std@@V?$allocator@D@2@@std@@V?$shared_ptr@UNode@NetvarTree@@@2@@std@@@std@@@std@@@std@@@std@@V?$_Vector_val@U?$_Simple_types@V?$_List_unchecked_iterator@V?$_List_val@U?$_List_simple_types@U?$pair@$$CBV?$basic_string@DU?$char_traits@D@std@@V?$allocator@D@2@@std@@V?$shared_ptr@UNode@NetvarTree@@@2@@std@@@std@@@std@@@std@@@std@@@2@$00@std@@QBEABV?$_Vector_val@U?$_Simple_types@V?$_List_unchecked_iterator@V?$_List_val@U?$_List_simple_types@U?$pair@$$CBV?$basic_string@DU?$char_traits@D@std@@V?$allocator@D@2@@std@@V?$shared_ptr@UNode@NetvarTree@@@2@@std@@@std@@@std@@@std@@@std@@@2@XZ 10003d30 f i Aimbot.obj
 0001:00002d30       ?_Get_second@?$_Compressed_pair@U?$default_delete@VVMTHook@@@std@@PAVVMTHook@@$00@std@@QAEAAPAVVMTHook@@XZ 10003d30 f i Hooks.obj
 0001:00002d30       ?_Get_second@?$_Compressed_pair@V?$allocator@Uzgui_control_render_t@zgui@@@std@@V?$_Vector_val@U?$_Simple_types@Uzgui_control_render_t@zgui@@@std@@@2@$00@std@@QBEABV?$_Vector_val@U?$_Simple_types@Uzgui_control_render_t@zgui@@@std@@@2@XZ 10003d30 f i zgui.obj
 0001:00002d30       ?_Get_second@?$_Compressed_pair@U?$hash@V?$basic_string@DU?$char_traits@D@std@@V?$allocator@D@2@@std@@@std@@V?$_Compressed_pair@U?$equal_to@V?$basic_string@DU?$char_traits@D@std@@V?$allocator@D@2@@std@@@std@@M$00@2@$00@std@@QAEAAV?$_Compressed_pair@U?$equal_to@V?$basic_string@DU?$char_traits@D@std@@V?$allocator@D@2@@std@@@std@@M$00@2@XZ 10003d30 f i NetvarManager.obj
 0001:00002d30       ?_Get_second@?$_Compressed_pair@V?$allocator@U?$_List_node@U?$pair@$$CBV?$basic_string@DU?$char_traits@D@std@@V?$allocator@D@2@@std@@V?$shared_ptr@UNode@NetvarTree@@@2@@std@@PAX@std@@@std@@V?$_List_val@U?$_List_simple_types@U?$pair@$$CBV?$basic_string@DU?$char_traits@D@std@@V?$allocator@D@2@@std@@V?$shared_ptr@UNode@NetvarTree@@@2@@std@@@std@@@2@$00@std@@QAEAAV?$_List_val@U?$_List_simple_types@U?$pair@$$CBV?$basic_string@DU?$char_traits@D@std@@V?$allocator@D@2@@std@@V?$shared_ptr@UNode@NetvarTree@@@2@@std@@@std@@@2@XZ 10003d30 f i Aimbot.obj
 0001:00002d30       ?_Get_first@?$_Compressed_pair@V?$allocator@PBD@std@@V?$_Vector_val@U?$_Simple_types@PBD@std@@@2@$00@std@@QBEABV?$allocator@PBD@2@XZ 10003d30 f i Hooks.obj
 0001:00002d30       ?_Get_second@?$_Compressed_pair@U?$default_delete@VVMTHook@@@std@@PAVVMTHook@@$00@std@@QBEABQAVVMTHook@@XZ 10003d30 f i Chams.obj
 0001:00002d30       ?_Get_first@?$_Compressed_pair@V?$allocator@PAVIMaterial@@@std@@V?$_Vector_val@U?$_Simple_types@PAVIMaterial@@@std@@@2@$00@std@@QAEAAV?$allocator@PAVIMaterial@@@2@XZ 10003d30 f i Chams.obj
 0001:00002d30       ??0?$allocator@UPlayerRecords@@@std@@QAE@XZ 10003d30 f i LagComp.obj
 0001:00002d30       ?_Get_second@?$_Compressed_pair@V?$allocator@Uvec2@zgui@@@std@@V?$_Deque_val@U?$_Deque_simple_types@Uvec2@zgui@@@std@@@2@$00@std@@QBEABV?$_Deque_val@U?$_Deque_simple_types@Uvec2@zgui@@@std@@@2@XZ 10003d30 f i zgui.obj
 0001:00002d30       ?_Get_first@?$_Compressed_pair@V?$allocator@VVector@@@std@@V?$_Vector_val@U?$_Simple_types@VVector@@@std@@@2@$00@std@@QAEAAV?$allocator@VVector@@@2@XZ 10003d30 f i Aimbot.obj
 0001:00002d30       ?data@?$array@UVertex_t@@$02@std@@QAEPAUVertex_t@@XZ 10003d30 f i ESP.obj
 0001:00002d30       ?_Get_second@?$_Compressed_pair@U?$default_delete@$$BY0A@I@std@@PAI$00@std@@QAEAAPAIXZ 10003d30 f i Hooks.obj
 0001:00002d30       ??0?$allocator@_W@std@@QAE@XZ 10003d30 f i Hooks.obj
 0001:00002d30       ?_Get_second@?$_Compressed_pair@U?$equal_to@V?$basic_string@DU?$char_traits@D@std@@V?$allocator@D@2@@std@@@std@@M$00@std@@QAEAAMXZ 10003d30 f i NetvarManager.obj
 0001:00002d30       ??0?$allocator@PAV?$ConfigValue@H@@@std@@QAE@XZ 10003d30 f i TGFCfg.obj
 0001:00002d30       ?_Get_second@?$_Compressed_pair@V?$allocator@V?$basic_string@DU?$char_traits@D@std@@V?$allocator@D@2@@std@@@std@@V?$_Vector_val@U?$_Simple_types@V?$basic_string@DU?$char_traits@D@std@@V?$allocator@D@2@@std@@@std@@@2@$00@std@@QAEAAV?$_Vector_val@U?$_Simple_types@V?$basic_string@DU?$char_traits@D@std@@V?$allocator@D@2@@std@@@std@@@2@XZ 10003d30 f i zgui.obj
 0001:00002d30       ?_Get_second@?$_Compressed_pair@V?$allocator@Vtrace_info@@@std@@V?$_Vector_val@U?$_Simple_types@Vtrace_info@@@std@@@2@$00@std@@QBEABV?$_Vector_val@U?$_Simple_types@Vtrace_info@@@std@@@2@XZ 10003d30 f i Hooks.obj
 0001:00002d30       ?_Get_first@?$_Compressed_pair@V?$allocator@Vtrace_info@@@std@@V?$_Vector_val@U?$_Simple_types@Vtrace_info@@@std@@@2@$00@std@@QBEABV?$allocator@Vtrace_info@@@2@XZ 10003d30 f i Hooks.obj
 0001:00002d30       ?_Get_second@?$_Compressed_pair@V?$allocator@_W@std@@V?$_String_val@U?$_Simple_types@_W@std@@@2@$00@std@@QBEABV?$_String_val@U?$_Simple_types@_W@std@@@2@XZ 10003d30 f i Hooks.obj
 0001:00002d30       ?_Get_second@?$_Compressed_pair@V?$allocator@PBD@std@@V?$_Vector_val@U?$_Simple_types@PBD@std@@@2@$00@std@@QBEABV?$_Vector_val@U?$_Simple_types@PBD@std@@@2@XZ 10003d30 f i Hooks.obj
 0001:00002d30       ?_Get_second@?$_Compressed_pair@V?$allocator@Umulti_select_item@zgui@@@std@@V?$_Vector_val@U?$_Simple_types@Umulti_select_item@zgui@@@std@@@2@$00@std@@QAEAAV?$_Vector_val@U?$_Simple_types@Umulti_select_item@zgui@@@std@@@2@XZ 10003d30 f i zgui.obj
 0001:00002d30       ?_Get_first@?$_Compressed_pair@V?$allocator@Vtrace_info@@@std@@V?$_Vector_val@U?$_Simple_types@Vtrace_info@@@std@@@2@$00@std@@QAEAAV?$allocator@Vtrace_info@@@2@XZ 10003d30 f i Hooks.obj
 0001:00002d30       ?_Get_second@?$_Compressed_pair@V?$allocator@V?$_List_unchecked_iterator@V?$_List_val@U?$_List_simple_types@U?$pair@$$CBV?$basic_string@DU?$char_traits@D@std@@V?$allocator@D@2@@std@@V?$shared_ptr@UNode@NetvarTree@@@2@@std@@@std@@@std@@@std@@@std@@V?$_Vector_val@U?$_Simple_types@V?$_List_unchecked_iterator@V?$_List_val@U?$_List_simple_types@U?$pair@$$CBV?$basic_string@DU?$char_traits@D@std@@V?$allocator@D@2@@std@@V?$shared_ptr@UNode@NetvarTree@@@2@@std@@@std@@@std@@@std@@@std@@@2@$00@std@@QAEAAV?$_Vector_val@U?$_Simple_types@V?$_List_unchecked_iterator@V?$_List_val@U?$_List_simple_types@U?$pair@$$CBV?$basic_string@DU?$char_traits@D@std@@V?$allocator@D@2@@std@@V?$shared_ptr@UNode@NetvarTree@@@2@@std@@@std@@@std@@@std@@@std@@@2@XZ 10003d30 f i Aimbot.obj
 0001:00002d30       ??0?$tuple@$$V@std@@QAE@XZ 10003d30 f i Aimbot.obj
 0001:00002d30       ?_Get_first@?$_Compressed_pair@U?$equal_to@V?$basic_string@DU?$char_traits@D@std@@V?$allocator@D@2@@std@@@std@@M$00@std@@QBEABU?$equal_to@V?$basic_string@DU?$char_traits@D@std@@V?$allocator@D@2@@std@@@2@XZ 10003d30 f i Aimbot.obj
 0001:00002d30       ?_Get_second@?$_Compressed_pair@V?$allocator@PAV?$ConfigValue@M@@@std@@V?$_Vector_val@U?$_Simple_types@PAV?$ConfigValue@M@@@std@@@2@$00@std@@QBEABV?$_Vector_val@U?$_Simple_types@PAV?$ConfigValue@M@@@std@@@2@XZ 10003d30 f i TGFCfg.obj
 0001:00002d30       ?_Get_second@?$_Compressed_pair@V?$allocator@D@std@@V?$_String_val@U?$_Simple_types@D@std@@@2@$00@std@@QAEAAV?$_String_val@U?$_Simple_types@D@std@@@2@XZ 10003d30 f i Aimbot.obj
 0001:00002d30       ?_Get_second@?$_Compressed_pair@U?$default_delete@VShadowVTManager@@@std@@PAVShadowVTManager@@$00@std@@QBEABQAVShadowVTManager@@XZ 10003d30 f i Hooks.obj
 0001:00002d30       ??0?$allocator@H@std@@QAE@XZ 10003d30 f i Aimbot.obj
 0001:00002d30       ?_Get_second@?$_Compressed_pair@V?$allocator@VVector@@@std@@V?$_Vector_val@U?$_Simple_types@VVector@@@std@@@2@$00@std@@QBEABV?$_Vector_val@U?$_Simple_types@VVector@@@std@@@2@XZ 10003d30 f i Aimbot.obj
 0001:00002d30       ??0Vector2D@@QAE@XZ        10003d30 f i ESP.obj
 0001:00002d30       ?_Get_second@?$_Compressed_pair@V?$allocator@Uzgui_control_render_t@zgui@@@std@@V?$_Vector_val@U?$_Simple_types@Uzgui_control_render_t@zgui@@@std@@@2@$00@std@@QAEAAV?$_Vector_val@U?$_Simple_types@Uzgui_control_render_t@zgui@@@std@@@2@XZ 10003d30 f i zgui.obj
 0001:00002d30       ??0?$allocator@Vtrace_info@@@std@@QAE@XZ 10003d30 f i Hooks.obj
 0001:00002d30       ??0?$allocator@V?$basic_string@DU?$char_traits@D@std@@V?$allocator@D@2@@std@@@std@@QAE@XZ 10003d30 f i zgui.obj
 0001:00002d30       ??0matrix3x4_t@@QAE@XZ     10003d30 f i Aimbot.obj
 0001:00002d30       ?_Get_second@?$_Compressed_pair@V?$allocator@UVertex_t@@@std@@V?$_Vector_val@U?$_Simple_types@UVertex_t@@@std@@@2@$00@std@@QAEAAV?$_Vector_val@U?$_Simple_types@UVertex_t@@@std@@@2@XZ 10003d30 f i ESP.obj
 0001:00002d30       ?_Get_second@?$_Compressed_pair@V?$allocator@UHitMarker_t@@@std@@V?$_Vector_val@U?$_Simple_types@UHitMarker_t@@@std@@@2@$00@std@@QAEAAV?$_Vector_val@U?$_Simple_types@UHitMarker_t@@@std@@@2@XZ 10003d30 f i Hooks.obj
 0001:00002d30       ??0Vector@@QAE@XZ          10003d30 f i Aimbot.obj
 0001:00002d30       ?_Get_first@?$_Compressed_pair@U?$default_delete@VNetvarTree@@@std@@PAVNetvarTree@@$00@std@@QAEAAU?$default_delete@VNetvarTree@@@2@XZ 10003d30 f i Hooks.obj
 0001:00002d30       ??0_Bxty@?$_String_val@U?$_Simple_types@_W@std@@@std@@QAE@XZ 10003d30 f i Hooks.obj
 0001:00002d30       ??0?$allocator@UVertex_t@@@std@@QAE@XZ 10003d30 f i ESP.obj
 0001:00002d30       ?_Get_first@?$_Compressed_pair@U?$default_delete@$$BY0A@I@std@@PAI$00@std@@QAEAAU?$default_delete@$$BY0A@I@2@XZ 10003d30 f i Hooks.obj
 0001:00002d30       ?_Get_first@?$_Compressed_pair@V?$allocator@H@std@@V?$_Vector_val@U?$_Simple_types@H@std@@@2@$00@std@@QAEAAV?$allocator@H@2@XZ 10003d30 f i Aimbot.obj
 0001:00002d30       ??0?$allocator@PAV?$ConfigValue@_N@@@std@@QAE@XZ 10003d30 f i TGFCfg.obj
 0001:00002d30       ?_Get_first@?$_Compressed_pair@V?$allocator@V?$basic_string@DU?$char_traits@D@std@@V?$allocator@D@2@@std@@@std@@V?$_Vector_val@U?$_Simple_types@V?$basic_string@DU?$char_traits@D@std@@V?$allocator@D@2@@std@@@std@@@2@$00@std@@QAEAAV?$allocator@V?$basic_string@DU?$char_traits@D@std@@V?$allocator@D@2@@std@@@2@XZ 10003d30 f i zgui.obj
 0001:00002d30       ?_Get_first@?$_Compressed_pair@V?$allocator@U?$_List_node@U?$pair@$$CBV?$basic_string@DU?$char_traits@D@std@@V?$allocator@D@2@@std@@V?$shared_ptr@UNode@NetvarTree@@@2@@std@@PAX@std@@@std@@V?$_List_val@U?$_List_simple_types@U?$pair@$$CBV?$basic_string@DU?$char_traits@D@std@@V?$allocator@D@2@@std@@V?$shared_ptr@UNode@NetvarTree@@@2@@std@@@std@@@2@$00@std@@QBEABV?$allocator@U?$_List_node@U?$pair@$$CBV?$basic_string@DU?$char_traits@D@std@@V?$allocator@D@2@@std@@V?$shared_ptr@UNode@NetvarTree@@@2@@std@@PAX@std@@@2@XZ 10003d30 f i Aimbot.obj
 0001:00002d30       ?_Get_first@?$_Compressed_pair@V?$allocator@UVertex_t@@@std@@V?$_Vector_val@U?$_Simple_types@UVertex_t@@@std@@@2@$00@std@@QAEAAV?$allocator@UVertex_t@@@2@XZ 10003d30 f i ESP.obj
 0001:00002d30       ?_Get_first@?$_Compressed_pair@V?$allocator@Umulti_select_item@zgui@@@std@@V?$_Vector_val@U?$_Simple_types@Umulti_select_item@zgui@@@std@@@2@$00@std@@QAEAAV?$allocator@Umulti_select_item@zgui@@@2@XZ 10003d30 f i zgui.obj
 0001:00002d30       ?_Get_first@?$_Compressed_pair@V?$allocator@PBD@std@@V?$_Vector_val@U?$_Simple_types@PBD@std@@@2@$00@std@@QAEAAV?$allocator@PBD@2@XZ 10003d30 f i Hooks.obj
 0001:00002d30       ?_Get_second@?$_Compressed_pair@V?$allocator@PAV?$ConfigValue@_N@@@std@@V?$_Vector_val@U?$_Simple_types@PAV?$ConfigValue@_N@@@std@@@2@$00@std@@QBEABV?$_Vector_val@U?$_Simple_types@PAV?$ConfigValue@_N@@@std@@@2@XZ 10003d30 f i TGFCfg.obj
 0001:00002d30       ?_Get_second@?$_Compressed_pair@V?$allocator@_W@std@@V?$_String_val@U?$_Simple_types@_W@std@@@2@$00@std@@QAEAAV?$_String_val@U?$_Simple_types@_W@std@@@2@XZ 10003d30 f i Hooks.obj
 0001:00002d30       ?_Get_second@?$_Compressed_pair@U?$default_delete@$$BY0A@I@std@@PAI$00@std@@QBEABQAIXZ 10003d30 f i Hooks.obj
 0001:00002d30       ?_Get_first@?$_Compressed_pair@V?$allocator@UPlayerRecords@@@std@@V?$_Deque_val@U?$_Deque_simple_types@UPlayerRecords@@@std@@@2@$00@std@@QAEAAV?$allocator@UPlayerRecords@@@2@XZ 10003d30 f i LagComp.obj
 0001:00002d30       ?_Get_second@?$_Compressed_pair@U?$default_delete@V_Facet_base@std@@@std@@PAV_Facet_base@2@$00@std@@QBEABQAV_Facet_base@2@XZ 10003d30 f i zgui.obj
 0001:00002d30       ?_Unchecked_begin@?$array@VVector2D@@$02@std@@QAEPAVVector2D@@XZ 10003d30 f i ESP.obj
 0001:00002d30       ?_Get_first@?$_Compressed_pair@V?$allocator@UVertex_t@@@std@@V?$_Vector_val@U?$_Simple_types@UVertex_t@@@std@@@2@$00@std@@QBEABV?$allocator@UVertex_t@@@2@XZ 10003d30 f i ESP.obj
 0001:00002d30       ??D?$ostreambuf_iterator@DU?$char_traits@D@std@@@std@@QAEAAV01@XZ 10003d30 f i zgui.obj
 0001:00002d30       ?_Get_second@?$_Compressed_pair@V?$allocator@PAV?$ConfigValue@_N@@@std@@V?$_Vector_val@U?$_Simple_types@PAV?$ConfigValue@_N@@@std@@@2@$00@std@@QAEAAV?$_Vector_val@U?$_Simple_types@PAV?$ConfigValue@_N@@@std@@@2@XZ 10003d30 f i TGFCfg.obj
 0001:00002d30       ??0?$allocator@Uvec2@zgui@@@std@@QAE@XZ 10003d30 f i zgui.obj
 0001:00002d30       ?_Get_first@?$_Compressed_pair@V?$allocator@D@std@@V?$_String_val@U?$_Simple_types@D@std@@@2@$00@std@@QBEABV?$allocator@D@2@XZ 10003d30 f i Aimbot.obj
 0001:00002d30       ?_Get_first@?$_Compressed_pair@V?$allocator@H@std@@V?$_Vector_val@U?$_Simple_types@H@std@@@2@$00@std@@QBEABV?$allocator@H@2@XZ 10003d30 f i Aimbot.obj
 0001:00002d30       ?_Get_second@?$_Compressed_pair@V?$allocator@UPlayerRecords@@@std@@V?$_Deque_val@U?$_Deque_simple_types@UPlayerRecords@@@std@@@2@$00@std@@QBEABV?$_Deque_val@U?$_Deque_simple_types@UPlayerRecords@@@std@@@2@XZ 10003d30 f i Aimbot.obj
 0001:00002d30       ??0?$allocator@PBD@std@@QAE@XZ 10003d30 f i Hooks.obj
 0001:00002d30       ??0?$allocator@PAV?$ConfigValue@M@@@std@@QAE@XZ 10003d30 f i TGFCfg.obj
 0001:00002d30       ?_Get_second@?$_Compressed_pair@V?$allocator@PAV?$ConfigValue@M@@@std@@V?$_Vector_val@U?$_Simple_types@PAV?$ConfigValue@M@@@std@@@2@$00@std@@QAEAAV?$_Vector_val@U?$_Simple_types@PAV?$ConfigValue@M@@@std@@@2@XZ 10003d30 f i TGFCfg.obj
 0001:00002d30       ??0?$allocator@PAVIMaterial@@@std@@QAE@XZ 10003d30 f i Chams.obj
 0001:00002d30       ?_Get_first@?$_Compressed_pair@V?$allocator@V?$_List_unchecked_iterator@V?$_List_val@U?$_List_simple_types@U?$pair@$$CBV?$basic_string@DU?$char_traits@D@std@@V?$allocator@D@2@@std@@V?$shared_ptr@UNode@NetvarTree@@@2@@std@@@std@@@std@@@std@@@std@@V?$_Vector_val@U?$_Simple_types@V?$_List_unchecked_iterator@V?$_List_val@U?$_List_simple_types@U?$pair@$$CBV?$basic_string@DU?$char_traits@D@std@@V?$allocator@D@2@@std@@V?$shared_ptr@UNode@NetvarTree@@@2@@std@@@std@@@std@@@std@@@std@@@2@$00@std@@QAEAAV?$allocator@V?$_List_unchecked_iterator@V?$_List_val@U?$_List_simple_types@U?$pair@$$CBV?$basic_string@DU?$char_traits@D@std@@V?$allocator@D@2@@std@@V?$shared_ptr@UNode@NetvarTree@@@2@@std@@@std@@@std@@@std@@@2@XZ 10003d30 f i Aimbot.obj
 0001:00002d30       ?_Get_first@?$_Compressed_pair@V?$allocator@UHitMarker_t@@@std@@V?$_Vector_val@U?$_Simple_types@UHitMarker_t@@@std@@@2@$00@std@@QBEABV?$allocator@UHitMarker_t@@@2@XZ 10003d30 f i Hooks.obj
 0001:00002d30       ?_Get_first@?$_Compressed_pair@U?$default_delete@V_Facet_base@std@@@std@@PAV_Facet_base@2@$00@std@@QAEAAU?$default_delete@V_Facet_base@std@@@2@XZ 10003d30 f i zgui.obj
 0001:00002d30       ?_Get_second@?$_Compressed_pair@V?$allocator@U?$_List_node@U?$pair@$$CBV?$basic_string@DU?$char_traits@D@std@@V?$allocator@D@2@@std@@V?$shared_ptr@UNode@NetvarTree@@@2@@std@@PAX@std@@@std@@V?$_List_val@U?$_List_simple_types@U?$pair@$$CBV?$basic_string@DU?$char_traits@D@std@@V?$allocator@D@2@@std@@V?$shared_ptr@UNode@NetvarTree@@@2@@std@@@std@@@2@$00@std@@QBEABV?$_List_val@U?$_List_simple_types@U?$pair@$$CBV?$basic_string@DU?$char_traits@D@std@@V?$allocator@D@2@@std@@V?$shared_ptr@UNode@NetvarTree@@@2@@std@@@std@@@2@XZ 10003d30 f i Aimbot.obj
 0001:00002d30       ?_Get_first@?$_Compressed_pair@V?$allocator@PAV?$ConfigValue@H@@@std@@V?$_Vector_val@U?$_Simple_types@PAV?$ConfigValue@H@@@std@@@2@$00@std@@QBEABV?$allocator@PAV?$ConfigValue@H@@@2@XZ 10003d30 f i TGFCfg.obj
 0001:00002d30       ?_Get_second@?$_Compressed_pair@U?$default_delete@VNetvarTree@@@std@@PAVNetvarTree@@$00@std@@QBEABQAVNetvarTree@@XZ 10003d30 f i Aimbot.obj
 0001:00002d30       ?_Get_first@?$_Compressed_pair@V?$allocator@U?$_List_node@U?$pair@$$CBV?$basic_string@DU?$char_traits@D@std@@V?$allocator@D@2@@std@@V?$shared_ptr@UNode@NetvarTree@@@2@@std@@PAX@std@@@std@@V?$_List_val@U?$_List_simple_types@U?$pair@$$CBV?$basic_string@DU?$char_traits@D@std@@V?$allocator@D@2@@std@@V?$shared_ptr@UNode@NetvarTree@@@2@@std@@@std@@@2@$00@std@@QAEAAV?$allocator@U?$_List_node@U?$pair@$$CBV?$basic_string@DU?$char_traits@D@std@@V?$allocator@D@2@@std@@V?$shared_ptr@UNode@NetvarTree@@@2@@std@@PAX@std@@@2@XZ 10003d30 f i Aimbot.obj
 0001:00002d30       ??0?$allocator@D@std@@QAE@XZ 10003d30 f i Aimbot.obj
 0001:00002d30       ?_Get_first@?$_Compressed_pair@V?$allocator@PAV?$ConfigValue@_N@@@std@@V?$_Vector_val@U?$_Simple_types@PAV?$ConfigValue@_N@@@std@@@2@$00@std@@QBEABV?$allocator@PAV?$ConfigValue@_N@@@2@XZ 10003d30 f i TGFCfg.obj
 0001:00002d30       ?_Get_second@?$_Compressed_pair@V?$allocator@PAVIMaterial@@@std@@V?$_Vector_val@U?$_Simple_types@PAVIMaterial@@@std@@@2@$00@std@@QAEAAV?$_Vector_val@U?$_Simple_types@PAVIMaterial@@@std@@@2@XZ 10003d30 f i Chams.obj
 0001:00002d30       ?_Get_second@?$_Compressed_pair@U?$default_delete@V_Facet_base@std@@@std@@PAV_Facet_base@2@$00@std@@QAEAAPAV_Facet_base@2@XZ 10003d30 f i zgui.obj
 0001:00002d30       ?_Get_second@?$_Compressed_pair@V?$allocator@UHitMarker_t@@@std@@V?$_Vector_val@U?$_Simple_types@UHitMarker_t@@@std@@@2@$00@std@@QBEABV?$_Vector_val@U?$_Simple_types@UHitMarker_t@@@std@@@2@XZ 10003d30 f i Hooks.obj
 0001:00002d30       ?_Get_first@?$_Compressed_pair@V?$allocator@V?$_List_unchecked_iterator@V?$_List_val@U?$_List_simple_types@U?$pair@$$CBV?$basic_string@DU?$char_traits@D@std@@V?$allocator@D@2@@std@@V?$shared_ptr@UNode@NetvarTree@@@2@@std@@@std@@@std@@@std@@@std@@V?$_Vector_val@U?$_Simple_types@V?$_List_unchecked_iterator@V?$_List_val@U?$_List_simple_types@U?$pair@$$CBV?$basic_string@DU?$char_traits@D@std@@V?$allocator@D@2@@std@@V?$shared_ptr@UNode@NetvarTree@@@2@@std@@@std@@@std@@@std@@@std@@@2@$00@std@@QBEABV?$allocator@V?$_List_unchecked_iterator@V?$_List_val@U?$_List_simple_types@U?$pair@$$CBV?$basic_string@DU?$char_traits@D@std@@V?$allocator@D@2@@std@@V?$shared_ptr@UNode@NetvarTree@@@2@@std@@@std@@@std@@@std@@@2@XZ 10003d30 f i Aimbot.obj
 0001:00002d30       ??0?$allocator@UHitMarker_t@@@std@@QAE@XZ 10003d30 f i Hooks.obj
 0001:00002d30       ?_Get_second@?$_Compressed_pair@V?$allocator@H@std@@V?$_Vector_val@U?$_Simple_types@H@std@@@2@$00@std@@QBEABV?$_Vector_val@U?$_Simple_types@H@std@@@2@XZ 10003d30 f i Aimbot.obj
 0001:00002d30       ?_Get_first@?$_Compressed_pair@V?$allocator@Uzgui_control_render_t@zgui@@@std@@V?$_Vector_val@U?$_Simple_types@Uzgui_control_render_t@zgui@@@std@@@2@$00@std@@QAEAAV?$allocator@Uzgui_control_render_t@zgui@@@2@XZ 10003d30 f i zgui.obj
 0001:00002d30       ?_Get_first@?$_Compressed_pair@V?$allocator@V?$basic_string@DU?$char_traits@D@std@@V?$allocator@D@2@@std@@@std@@V?$_Vector_val@U?$_Simple_types@V?$basic_string@DU?$char_traits@D@std@@V?$allocator@D@2@@std@@@std@@@2@$00@std@@QBEABV?$allocator@V?$basic_string@DU?$char_traits@D@std@@V?$allocator@D@2@@std@@@2@XZ 10003d30 f i zgui.obj
 0001:00002d30       ??0?$allocator@Umulti_select_item@zgui@@@std@@QAE@XZ 10003d30 f i Menu.obj
 0001:00002d30       ??E?$ostreambuf_iterator@DU?$char_traits@D@std@@@std@@QAEAAV01@XZ 10003d30 f i zgui.obj
 0001:00002d30       ?_Get_first@?$_Compressed_pair@V?$allocator@VVector@@@std@@V?$_Vector_val@U?$_Simple_types@VVector@@@std@@@2@$00@std@@QBEABV?$allocator@VVector@@@2@XZ 10003d30 f i Aimbot.obj
 0001:00002d30       ?_Get_first@?$_Compressed_pair@V?$allocator@Umulti_select_item@zgui@@@std@@V?$_Vector_val@U?$_Simple_types@Umulti_select_item@zgui@@@std@@@2@$00@std@@QBEABV?$allocator@Umulti_select_item@zgui@@@2@XZ 10003d30 f i Menu.obj
 0001:00002d30       ?_Get_first@?$_Compressed_pair@V?$allocator@Uvec2@zgui@@@std@@V?$_Deque_val@U?$_Deque_simple_types@Uvec2@zgui@@@std@@@2@$00@std@@QAEAAV?$allocator@Uvec2@zgui@@@2@XZ 10003d30 f i zgui.obj
 0001:00002d30       ?_Get_second@?$_Compressed_pair@V?$allocator@UPlayerRecords@@@std@@V?$_Deque_val@U?$_Deque_simple_types@UPlayerRecords@@@std@@@2@$00@std@@QAEAAV?$_Deque_val@U?$_Deque_simple_types@UPlayerRecords@@@std@@@2@XZ 10003d30 f i Aimbot.obj
 0001:00002d30       ?_Get_second@?$_Compressed_pair@V?$allocator@Umulti_select_item@zgui@@@std@@V?$_Vector_val@U?$_Simple_types@Umulti_select_item@zgui@@@std@@@2@$00@std@@QBEABV?$_Vector_val@U?$_Simple_types@Umulti_select_item@zgui@@@std@@@2@XZ 10003d30 f i zgui.obj
 0001:00002d30       ??0_Bxty@?$_String_val@U?$_Simple_types@D@std@@@std@@QAE@XZ 10003d30 f i Aimbot.obj
 0001:00002d30       ?_Get_second@?$_Compressed_pair@V?$allocator@PBD@std@@V?$_Vector_val@U?$_Simple_types@PBD@std@@@2@$00@std@@QAEAAV?$_Vector_val@U?$_Simple_types@PBD@std@@@2@XZ 10003d30 f i Hooks.obj
 0001:00002d30       ?_Get_second@?$_Compressed_pair@V?$allocator@PAV?$ConfigValue@H@@@std@@V?$_Vector_val@U?$_Simple_types@PAV?$ConfigValue@H@@@std@@@2@$00@std@@QAEAAV?$_Vector_val@U?$_Simple_types@PAV?$ConfigValue@H@@@std@@@2@XZ 10003d30 f i TGFCfg.obj
 0001:00002d30       ?_Get_second@?$_Compressed_pair@U?$default_delete@VNetvarTree@@@std@@PAVNetvarTree@@$00@std@@QAEAAPAVNetvarTree@@XZ 10003d30 f i Hooks.obj
 0001:00002d30       ?_Get_first@?$_Compressed_pair@V?$allocator@_W@std@@V?$_String_val@U?$_Simple_types@_W@std@@@2@$00@std@@QAEAAV?$allocator@_W@2@XZ 10003d30 f i Hooks.obj
 0001:00002d30       ?_Get_first@?$_Compressed_pair@V?$allocator@UPlayerRecords@@@std@@V?$_Deque_val@U?$_Deque_simple_types@UPlayerRecords@@@std@@@2@$00@std@@QBEABV?$allocator@UPlayerRecords@@@2@XZ 10003d30 f i LagComp.obj
 0001:00002d30       ?_Get_second@?$_Compressed_pair@V?$allocator@D@std@@V?$_String_val@U?$_Simple_types@D@std@@@2@$00@std@@QBEABV?$_String_val@U?$_Simple_types@D@std@@@2@XZ 10003d30 f i Aimbot.obj
 0001:00002d30       ?_Get_first@?$_Compressed_pair@V?$allocator@PAV?$ConfigValue@M@@@std@@V?$_Vector_val@U?$_Simple_types@PAV?$ConfigValue@M@@@std@@@2@$00@std@@QBEABV?$allocator@PAV?$ConfigValue@M@@@2@XZ 10003d30 f i TGFCfg.obj
 0001:00002d30       ?_Get_second@?$_Compressed_pair@V?$allocator@V?$basic_string@DU?$char_traits@D@std@@V?$allocator@D@2@@std@@@std@@V?$_Vector_val@U?$_Simple_types@V?$basic_string@DU?$char_traits@D@std@@V?$allocator@D@2@@std@@@std@@@2@$00@std@@QBEABV?$_Vector_val@U?$_Simple_types@V?$basic_string@DU?$char_traits@D@std@@V?$allocator@D@2@@std@@@std@@@2@XZ 10003d30 f i zgui.obj
 0001:00002d30       ?_Get_second@?$_Compressed_pair@V?$allocator@H@std@@V?$_Vector_val@U?$_Simple_types@H@std@@@2@$00@std@@QAEAAV?$_Vector_val@U?$_Simple_types@H@std@@@2@XZ 10003d30 f i Aimbot.obj
 0001:00002d30       ?_Get_first@?$_Compressed_pair@V?$allocator@_W@std@@V?$_String_val@U?$_Simple_types@_W@std@@@2@$00@std@@QBEABV?$allocator@_W@2@XZ 10003d30 f i Hooks.obj
 0001:00002d30       ?_Get_second@?$_Compressed_pair@V?$allocator@PAV?$ConfigValue@H@@@std@@V?$_Vector_val@U?$_Simple_types@PAV?$ConfigValue@H@@@std@@@2@$00@std@@QBEABV?$_Vector_val@U?$_Simple_types@PAV?$ConfigValue@H@@@std@@@2@XZ 10003d30 f i TGFCfg.obj
 0001:00002d30       ?_Get_first@?$_Compressed_pair@V?$allocator@Uvec2@zgui@@@std@@V?$_Deque_val@U?$_Deque_simple_types@Uvec2@zgui@@@std@@@2@$00@std@@QBEABV?$allocator@Uvec2@zgui@@@2@XZ 10003d30 f i zgui.obj
 0001:00002d40       ??0?$basic_string@DU?$char_traits@D@std@@V?$allocator@D@2@@std@@QAE@$$QAV01@@Z 10003d40 f i Aimbot.obj
 0001:00002dc0       ??0?$basic_string@DU?$char_traits@D@std@@V?$allocator@D@2@@std@@QAE@QBD@Z 10003dc0 f i Aimbot.obj
 0001:00002e20       ??0?$shared_ptr@UNode@NetvarTree@@@std@@QAE@XZ 10003e20 f i Aimbot.obj
 0001:00002e40       ??0?$tuple@$$QAV?$basic_string@DU?$char_traits@D@std@@V?$allocator@D@2@@std@@@std@@QAE@$$QAV01@@Z 10003e40 f i Aimbot.obj
 0001:00002e70       ??0?$vector@PAVIMaterial@@V?$allocator@PAVIMaterial@@@std@@@std@@QAE@XZ 10003e70 f i Chams.obj
 0001:00002e70       ??0?$vector@UHitMarker_t@@V?$allocator@UHitMarker_t@@@std@@@std@@QAE@XZ 10003e70 f i Hooks.obj
 0001:00002e70       ??0?$vector@Uzgui_control_render_t@zgui@@V?$allocator@Uzgui_control_render_t@zgui@@@std@@@std@@QAE@XZ 10003e70 f i zgui.obj
 0001:00002e70       ??0?$vector@PAV?$ConfigValue@_N@@V?$allocator@PAV?$ConfigValue@_N@@@std@@@std@@QAE@XZ 10003e70 f i TGFCfg.obj
 0001:00002e70       ??0?$vector@PAV?$ConfigValue@M@@V?$allocator@PAV?$ConfigValue@M@@@std@@@std@@QAE@XZ 10003e70 f i TGFCfg.obj
 0001:00002e70       ??0?$vector@PAV?$ConfigValue@H@@V?$allocator@PAV?$ConfigValue@H@@@std@@@std@@QAE@XZ 10003e70 f i TGFCfg.obj
 0001:00002e70       ??0?$vector@V?$basic_string@DU?$char_traits@D@std@@V?$allocator@D@2@@std@@V?$allocator@V?$basic_string@DU?$char_traits@D@std@@V?$allocator@D@2@@std@@@2@@std@@QAE@XZ 10003e70 f i zgui.obj
 0001:00002e70       ??0?$vector@HV?$allocator@H@std@@@std@@QAE@XZ 10003e70 f i Aimbot.obj
 0001:00002e70       ??0?$vector@VVector@@V?$allocator@VVector@@@std@@@std@@QAE@XZ 10003e70 f i Aimbot.obj
 0001:00002e70       ??0?$vector@Vtrace_info@@V?$allocator@Vtrace_info@@@std@@@std@@QAE@XZ 10003e70 f i Hooks.obj
 0001:00002e70       ??0?$vector@UVertex_t@@V?$allocator@UVertex_t@@@std@@@std@@QAE@XZ 10003e70 f i ESP.obj
 0001:00002eb0       ??0?$vector@VVector@@V?$allocator@VVector@@@std@@@std@@QAE@$$QAV01@@Z 10003eb0 f i Aimbot.obj
 0001:00002eb0       ??0?$vector@V?$basic_string@DU?$char_traits@D@std@@V?$allocator@D@2@@std@@V?$allocator@V?$basic_string@DU?$char_traits@D@std@@V?$allocator@D@2@@std@@@2@@std@@QAE@$$QAV01@@Z 10003eb0 f i zgui.obj
 0001:00002f30       ??0Aimbot@@QAE@XZ          10003f30 f i Aimbot.obj
 0001:00002f70       ??0CBaseHandle@@QAE@ABV0@@Z 10003f70 f i Aimbot.obj
 0001:00002f90       ??0C_Ray@@QAE@VVector@@0@Z 10003f90 f i Aimbot.obj
 0001:00002fe0       ??0C_Trace@@QAE@XZ         10003fe0 f i Aimbot.obj
 0001:00003010       ??0Vector2D@@QAE@MM@Z      10004010 f i Aimbot.obj
 0001:00003040       ??0Vector@@QAE@MMM@Z       10004040 f i Aimbot.obj
 0001:00003080       ??0VectorAligned@@QAE@XZ   10004080 f i Aimbot.obj
 0001:00003080       ??0cplane_t@@QAE@XZ        10004080 f i Aimbot.obj
 0001:000030a0       ??0_Iterator_base12@std@@QAE@ABU01@@Z 100040a0 f i Aimbot.obj
 0001:000030d0       ??1_Iostream_error_category@std@@UAE@XZ 100040d0 f i zgui.obj
 0001:000030d0       ??1?$_Compressed_pair@V?$allocator@D@std@@V?$_String_val@U?$_Simple_types@D@std@@@2@$00@std@@QAE@XZ 100040d0 f i Aimbot.obj
 0001:000030d0       ??1?$_Deque_iterator@V?$_Deque_val@U?$_Deque_simple_types@UPlayerRecords@@@std@@@std@@@std@@QAE@XZ 100040d0 f i Aimbot.obj
 0001:000030d0       ??1?$_Compressed_pair@V?$allocator@_W@std@@V?$_String_val@U?$_Simple_types@_W@std@@@2@$00@std@@QAE@XZ 100040d0 f i Hooks.obj
 0001:000030d0       ??1?$_Deque_iterator@V?$_Deque_val@U?$_Deque_simple_types@Uvec2@zgui@@@std@@@std@@@std@@QAE@XZ 100040d0 f i zgui.obj
 0001:000030f0       ??1?$_String_val@U?$_Simple_types@D@std@@@std@@QAE@XZ 100040f0 f i Aimbot.obj
 0001:000030f0       ??1?$_Deque_const_iterator@V?$_Deque_val@U?$_Deque_simple_types@UPlayerRecords@@@std@@@std@@@std@@QAE@XZ 100040f0 f i Aimbot.obj
 0001:000030f0       ??1?$_String_val@U?$_Simple_types@_W@std@@@std@@QAE@XZ 100040f0 f i Hooks.obj
 0001:000030f0       ??1?$_Deque_const_iterator@V?$_Deque_val@U?$_Deque_simple_types@Uvec2@zgui@@@std@@@std@@@std@@QAE@XZ 100040f0 f i zgui.obj
 0001:000030f0       ??1?$_Ref_count_obj@UNode@NetvarTree@@@std@@UAE@XZ 100040f0 f i NetvarManager.obj
 0001:000030f0       ??1_Generic_error_category@std@@UAE@XZ 100040f0 f i zgui.obj
 0001:00003110       ??1?$_String_alloc@U?$_String_base_types@_WV?$allocator@_W@std@@@std@@@std@@QAE@XZ 10004110 f i Hooks.obj
 0001:00003110       ??1?$_String_alloc@U?$_String_base_types@DV?$allocator@D@std@@@std@@@std@@QAE@XZ 10004110 f i Aimbot.obj
 0001:00003130       ??1?$_Uninitialized_backout_al@PAUVertex_t@@V?$allocator@UVertex_t@@@std@@@std@@QAE@XZ 10004130 f i ESP.obj
 0001:00003130       ??1?$_Uninitialized_backout_al@PAVVector@@V?$allocator@VVector@@@std@@@std@@QAE@XZ 10004130 f i Aimbot.obj
 0001:00003130       ??1?$_Uninitialized_backout_al@PAVtrace_info@@V?$allocator@Vtrace_info@@@std@@@std@@QAE@XZ 10004130 f i Hooks.obj
 0001:00003130       ??1?$_Uninitialized_backout_al@PAV?$_List_unchecked_iterator@V?$_List_val@U?$_List_simple_types@U?$pair@$$CBV?$basic_string@DU?$char_traits@D@std@@V?$allocator@D@2@@std@@V?$shared_ptr@UNode@NetvarTree@@@2@@std@@@std@@@std@@@std@@V?$allocator@V?$_List_unchecked_iterator@V?$_List_val@U?$_List_simple_types@U?$pair@$$CBV?$basic_string@DU?$char_traits@D@std@@V?$allocator@D@2@@std@@V?$shared_ptr@UNode@NetvarTree@@@2@@std@@@std@@@std@@@std@@@2@@std@@QAE@XZ 10004130 f i Aimbot.obj
 0001:00003130       ??1?$_Uninitialized_backout_al@PAUmulti_select_item@zgui@@V?$allocator@Umulti_select_item@zgui@@@std@@@std@@QAE@XZ 10004130 f i Menu.obj
 0001:00003180       ??1?$basic_string@DU?$char_traits@D@std@@V?$allocator@D@2@@std@@QAE@XZ 10004180 f i Aimbot.obj
 0001:000031c0       ??1?$pair@$$CBV?$basic_string@DU?$char_traits@D@std@@V?$allocator@D@2@@std@@V?$shared_ptr@UNode@NetvarTree@@@2@@std@@QAE@XZ 100041c0 f i Aimbot.obj
 0001:000031e0       ??1?$shared_ptr@UNode@NetvarTree@@@std@@QAE@XZ 100041e0 f i Aimbot.obj
 0001:00003220       ??1?$vector@PAV?$ConfigValue@H@@V?$allocator@PAV?$ConfigValue@H@@@std@@@std@@QAE@XZ 10004220 f i TGFCfg.obj
 0001:00003220       ??1?$vector@PBDV?$allocator@PBD@std@@@std@@QAE@XZ 10004220 f i Hooks.obj
 0001:00003220       ??1?$vector@PAV?$ConfigValue@M@@V?$allocator@PAV?$ConfigValue@M@@@std@@@std@@QAE@XZ 10004220 f i TGFCfg.obj
 0001:00003220       ??1?$vector@PAV?$ConfigValue@_N@@V?$allocator@PAV?$ConfigValue@_N@@@std@@@std@@QAE@XZ 10004220 f i TGFCfg.obj
 0001:00003220       ??1?$vector@HV?$allocator@H@std@@@std@@QAE@XZ 10004220 f i Aimbot.obj
 0001:00003220       ??1?$vector@V?$_List_unchecked_iterator@V?$_List_val@U?$_List_simple_types@U?$pair@$$CBV?$basic_string@DU?$char_traits@D@std@@V?$allocator@D@2@@std@@V?$shared_ptr@UNode@NetvarTree@@@2@@std@@@std@@@std@@@std@@V?$allocator@V?$_List_unchecked_iterator@V?$_List_val@U?$_List_simple_types@U?$pair@$$CBV?$basic_string@DU?$char_traits@D@std@@V?$allocator@D@2@@std@@V?$shared_ptr@UNode@NetvarTree@@@2@@std@@@std@@@std@@@std@@@2@@std@@QAE@XZ 10004220 f i Hooks.obj
 0001:00003220       ??1?$vector@PAVIMaterial@@V?$allocator@PAVIMaterial@@@std@@@std@@QAE@XZ 10004220 f i Chams.obj
 0001:00003260       ??1?$vector@VVector@@V?$allocator@VVector@@@std@@@std@@QAE@XZ 10004260 f i Aimbot.obj
 0001:00003260       ??1?$vector@Umulti_select_item@zgui@@V?$allocator@Umulti_select_item@zgui@@@std@@@std@@QAE@XZ 10004260 f i zgui.obj
 0001:000032a0       ??1error_category@std@@UAE@XZ 100042a0 f i zgui.obj
 0001:000032a0       ?_Unlock@?$basic_streambuf@DU?$char_traits@D@std@@@std@@UAEXXZ 100042a0 f i zgui.obj
 0001:000032a0       ??1_Bxty@?$_String_val@U?$_Simple_types@D@std@@@std@@QAE@XZ 100042a0 f i Aimbot.obj
 0001:000032a0       ?_Orphan_all@_Container_base12@std@@QAEXXZ 100042a0 f i LagComp.obj
 0001:000032a0       ?_Orphan_all@_Container_base0@std@@QAEXXZ 100042a0 f i Aimbot.obj
 0001:000032a0       ??1_Bxty@?$_String_val@U?$_Simple_types@_W@std@@@std@@QAE@XZ 100042a0 f i Hooks.obj
 0001:000032a0       ??1Address@@QAE@XZ         100042a0 f i Interfaces.obj
 0001:000032a0       ??1_Iterator_base12@std@@QAE@XZ 100042a0 f i Aimbot.obj
 0001:000032a0       ?_Lock@?$basic_streambuf@DU?$char_traits@D@std@@@std@@UAEXXZ 100042a0 f i zgui.obj
 0001:000032a0       ??1_Ref_count_base@std@@UAE@XZ 100042a0 f i NetvarManager.obj
 0001:000032b0       ??2@YAPAXIPAX@Z            100042b0 f i Aimbot.obj
 0001:000032c0       ??4Vector@@QAEAAV0@ABV0@@Z 100042c0 f i Aimbot.obj
 0001:00003300       ??4VectorAligned@@QAEAAV0@ABVVector@@@Z 10004300 f i Aimbot.obj
 0001:00003350       ??4_Iterator_base12@std@@QAEAAU01@ABU01@@Z 10004350 f i Aimbot.obj
 0001:00003390       ??8?$_List_unchecked_const_iterator@V?$_List_val@U?$_List_simple_types@U?$pair@$$CBV?$basic_string@DU?$char_traits@D@std@@V?$allocator@D@2@@std@@V?$shared_ptr@UNode@NetvarTree@@@2@@std@@@std@@@std@@U_Iterator_base0@2@@std@@QBE_NABV01@@Z 10004390 f i Aimbot.obj
 0001:00003390       ??8?$_List_const_iterator@V?$_List_val@U?$_List_simple_types@U?$pair@$$CBV?$basic_string@DU?$char_traits@D@std@@V?$allocator@D@2@@std@@V?$shared_ptr@UNode@NetvarTree@@@2@@std@@@std@@@std@@@std@@QBE_NABV01@@Z 10004390 f i Aimbot.obj
 0001:000033c0       ??9?$_List_unchecked_const_iterator@V?$_List_val@U?$_List_simple_types@U?$pair@$$CBV?$basic_string@DU?$char_traits@D@std@@V?$allocator@D@2@@std@@V?$shared_ptr@UNode@NetvarTree@@@2@@std@@@std@@@std@@U_Iterator_base0@2@@std@@QBE_NABV01@@Z 100043c0 f i Aimbot.obj
 0001:00003400       ??9Vector@@QBE_NABV0@@Z    10004400 f i Aimbot.obj
 0001:00003460       ??A?$unordered_map@V?$basic_string@DU?$char_traits@D@std@@V?$allocator@D@2@@std@@V?$shared_ptr@UNode@NetvarTree@@@2@U?$hash@V?$basic_string@DU?$char_traits@D@std@@V?$allocator@D@2@@std@@@2@U?$equal_to@V?$basic_string@DU?$char_traits@D@std@@V?$allocator@D@2@@std@@@2@V?$allocator@U?$pair@$$CBV?$basic_string@DU?$char_traits@D@std@@V?$allocator@D@2@@std@@V?$shared_ptr@UNode@NetvarTree@@@2@@std@@@2@@std@@QAEAAV?$shared_ptr@UNode@NetvarTree@@@1@$$QAV?$basic_string@DU?$char_traits@D@std@@V?$allocator@D@2@@1@@Z 10004460 f i Aimbot.obj
 0001:000034a0       ??A?$vector@V?$_List_unchecked_iterator@V?$_List_val@U?$_List_simple_types@U?$pair@$$CBV?$basic_string@DU?$char_traits@D@std@@V?$allocator@D@2@@std@@V?$shared_ptr@UNode@NetvarTree@@@2@@std@@@std@@@std@@@std@@V?$allocator@V?$_List_unchecked_iterator@V?$_List_val@U?$_List_simple_types@U?$pair@$$CBV?$basic_string@DU?$char_traits@D@std@@V?$allocator@D@2@@std@@V?$shared_ptr@UNode@NetvarTree@@@2@@std@@@std@@@std@@@std@@@2@@std@@QAEAAV?$_List_unchecked_iterator@V?$_List_val@U?$_List_simple_types@U?$pair@$$CBV?$basic_string@DU?$char_traits@D@std@@V?$allocator@D@2@@std@@V?$shared_ptr@UNode@NetvarTree@@@2@@std@@@std@@@std@@@1@I@Z 100044a0 f i Aimbot.obj
 0001:000034c0       ??A?$vector@VVector@@V?$allocator@VVector@@@std@@@std@@QAEAAVVector@@I@Z 100044c0 f i Aimbot.obj
 0001:000034c0       ??A?$vector@Umulti_select_item@zgui@@V?$allocator@Umulti_select_item@zgui@@@std@@@std@@QAEAAUmulti_select_item@zgui@@I@Z 100044c0 f i zgui.obj
 0001:000034e0       ??AVector@@QBEMH@Z         100044e0 f i Aimbot.obj
 0001:00003500       ??Amatrix3x4_t@@QAEPAMH@Z  10004500 f i Resolver.obj
 0001:00003500       ??AVMatrix@@QBEPBMH@Z      10004500 f i ESP.obj
 0001:00003500       ??Amatrix3x4_t@@QBEPBMH@Z  10004500 f i Aimbot.obj
 0001:00003500       ??AVMatrix@@QAEPAMH@Z      10004500 f i ESP.obj
 0001:00003520       ??C?$_List_iterator@V?$_List_val@U?$_List_simple_types@U?$pair@$$CBV?$basic_string@DU?$char_traits@D@std@@V?$allocator@D@2@@std@@V?$shared_ptr@UNode@NetvarTree@@@2@@std@@@std@@@std@@@std@@QBEPAU?$pair@$$CBV?$basic_string@DU?$char_traits@D@std@@V?$allocator@D@2@@std@@V?$shared_ptr@UNode@NetvarTree@@@2@@1@XZ 10004520 f i Aimbot.obj
 0001:00003540       ?get@?$unique_ptr@VShadowVTManager@@U?$default_delete@VShadowVTManager@@@std@@@std@@QBEPAVShadowVTManager@@XZ 10004540 f i Hooks.obj
 0001:00003540       ?get@?$unique_ptr@V_Facet_base@std@@U?$default_delete@V_Facet_base@std@@@2@@std@@QBEPAV_Facet_base@2@XZ 10004540 f i zgui.obj
 0001:00003540       ??C?$unique_ptr@VNetvarTree@@U?$default_delete@VNetvarTree@@@std@@@std@@QBEPAVNetvarTree@@XZ 10004540 f i Aimbot.obj
 0001:00003540       ??C?$unique_ptr@VVMTHook@@U?$default_delete@VVMTHook@@@std@@@std@@QBEPAVVMTHook@@XZ 10004540 f i Chams.obj
 0001:00003540       ?get@?$unique_ptr@VVMTHook@@U?$default_delete@VVMTHook@@@std@@@std@@QBEPAVVMTHook@@XZ 10004540 f i Hooks.obj
 0001:00003540       ?get@?$unique_ptr@$$BY0A@IU?$default_delete@$$BY0A@I@std@@@std@@QBEPAIXZ 10004540 f i Hooks.obj
 0001:00003540       ?get@?$unique_ptr@VNetvarTree@@U?$default_delete@VNetvarTree@@@std@@@std@@QBEPAVNetvarTree@@XZ 10004540 f i Hooks.obj
 0001:00003560       ??D?$_Deque_const_iterator@V?$_Deque_val@U?$_Deque_simple_types@UPlayerRecords@@@std@@@std@@@std@@QBEABUPlayerRecords@@XZ 10004560 f i Aimbot.obj
 0001:000035c0       ??D?$_Deque_iterator@V?$_Deque_val@U?$_Deque_simple_types@UPlayerRecords@@@std@@@std@@@std@@QBEAAUPlayerRecords@@XZ 100045c0 f i Aimbot.obj
 0001:000035e0       ??D?$_List_unchecked_const_iterator@V?$_List_val@U?$_List_simple_types@U?$pair@$$CBV?$basic_string@DU?$char_traits@D@std@@V?$allocator@D@2@@std@@V?$shared_ptr@UNode@NetvarTree@@@2@@std@@@std@@@std@@U_Iterator_base0@2@@std@@QBEABU?$pair@$$CBV?$basic_string@DU?$char_traits@D@std@@V?$allocator@D@2@@std@@V?$shared_ptr@UNode@NetvarTree@@@2@@1@XZ 100045e0 f i Aimbot.obj
 0001:000035e0       ??D?$_List_const_iterator@V?$_List_val@U?$_List_simple_types@U?$pair@$$CBV?$basic_string@DU?$char_traits@D@std@@V?$allocator@D@2@@std@@V?$shared_ptr@UNode@NetvarTree@@@2@@std@@@std@@@std@@@std@@QBEABU?$pair@$$CBV?$basic_string@DU?$char_traits@D@std@@V?$allocator@D@2@@std@@V?$shared_ptr@UNode@NetvarTree@@@2@@1@XZ 100045e0 f i Aimbot.obj
 0001:00003600       ??D?$_List_iterator@V?$_List_val@U?$_List_simple_types@U?$pair@$$CBV?$basic_string@DU?$char_traits@D@std@@V?$allocator@D@2@@std@@V?$shared_ptr@UNode@NetvarTree@@@2@@std@@@std@@@std@@@std@@QBEAAU?$pair@$$CBV?$basic_string@DU?$char_traits@D@std@@V?$allocator@D@2@@std@@V?$shared_ptr@UNode@NetvarTree@@@2@@1@XZ 10004600 f i Aimbot.obj
 0001:00003600       ??D?$_List_unchecked_iterator@V?$_List_val@U?$_List_simple_types@U?$pair@$$CBV?$basic_string@DU?$char_traits@D@std@@V?$allocator@D@2@@std@@V?$shared_ptr@UNode@NetvarTree@@@2@@std@@@std@@@std@@@std@@QBEAAU?$pair@$$CBV?$basic_string@DU?$char_traits@D@std@@V?$allocator@D@2@@std@@V?$shared_ptr@UNode@NetvarTree@@@2@@1@XZ 10004600 f i Aimbot.obj
 0001:00003620       ??DVector@@QBE?AV0@M@Z     10004620 f i Aimbot.obj
 0001:00003690       ??E?$_List_const_iterator@V?$_List_val@U?$_List_simple_types@U?$pair@$$CBV?$basic_string@DU?$char_traits@D@std@@V?$allocator@D@2@@std@@V?$shared_ptr@UNode@NetvarTree@@@2@@std@@@std@@@std@@@std@@QAE?AV01@H@Z 10004690 f i Aimbot.obj
 0001:000036c0       ??E?$_List_unchecked_const_iterator@V?$_List_val@U?$_List_simple_types@U?$pair@$$CBV?$basic_string@DU?$char_traits@D@std@@V?$allocator@D@2@@std@@V?$shared_ptr@UNode@NetvarTree@@@2@@std@@@std@@@std@@U_Iterator_base0@2@@std@@QAEAAV01@XZ 100046c0 f i Aimbot.obj
 0001:000036c0       ??E?$_List_const_iterator@V?$_List_val@U?$_List_simple_types@U?$pair@$$CBV?$basic_string@DU?$char_traits@D@std@@V?$allocator@D@2@@std@@V?$shared_ptr@UNode@NetvarTree@@@2@@std@@@std@@@std@@@std@@QAEAAV01@XZ 100046c0 f i Aimbot.obj
 0001:000036e0       ??E?$_List_unchecked_iterator@V?$_List_val@U?$_List_simple_types@U?$pair@$$CBV?$basic_string@DU?$char_traits@D@std@@V?$allocator@D@2@@std@@V?$shared_ptr@UNode@NetvarTree@@@2@@std@@@std@@@std@@@std@@QAEAAV01@XZ 100046e0 f i Aimbot.obj
 0001:00003700       ??F?$_List_unchecked_const_iterator@V?$_List_val@U?$_List_simple_types@U?$pair@$$CBV?$basic_string@DU?$char_traits@D@std@@V?$allocator@D@2@@std@@V?$shared_ptr@UNode@NetvarTree@@@2@@std@@@std@@@std@@U_Iterator_base0@2@@std@@QAEAAV01@XZ 10004700 f i Aimbot.obj
 0001:00003720       ??F?$_List_unchecked_iterator@V?$_List_val@U?$_List_simple_types@U?$pair@$$CBV?$basic_string@DU?$char_traits@D@std@@V?$allocator@D@2@@std@@V?$shared_ptr@UNode@NetvarTree@@@2@@std@@@std@@@std@@@std@@QAEAAV01@XZ 10004720 f i Aimbot.obj
 0001:00003740       ??GVector@@QBE?AV0@ABV0@@Z 10004740 f i Aimbot.obj
 0001:000037b0       ??H?$_Deque_iterator@V?$_Deque_val@U?$_Deque_simple_types@UPlayerRecords@@@std@@@std@@@std@@QBE?AV01@H@Z 100047b0 f i Aimbot.obj
 0001:00003830       ??HVector@@QBE?AV0@ABV0@@Z 10004830 f i Aimbot.obj
 0001:000038a0       ??R<lambda_9366063389c5f42a00a5088cf24e69de>@@QBEXQADIQBD@Z 100048a0 f i Aimbot.obj
 0001:00003aa0       ??R?$_Uhash_compare@V?$basic_string@DU?$char_traits@D@std@@V?$allocator@D@2@@std@@U?$hash@V?$basic_string@DU?$char_traits@D@std@@V?$allocator@D@2@@std@@@2@U?$equal_to@V?$basic_string@DU?$char_traits@D@std@@V?$allocator@D@2@@std@@@2@@std@@QBEIABV?$basic_string@DU?$char_traits@D@std@@V?$allocator@D@2@@1@@Z 10004aa0 f i Aimbot.obj
 0001:00003ad0       ??R?$_Uhash_compare@V?$basic_string@DU?$char_traits@D@std@@V?$allocator@D@2@@std@@U?$hash@V?$basic_string@DU?$char_traits@D@std@@V?$allocator@D@2@@std@@@2@U?$equal_to@V?$basic_string@DU?$char_traits@D@std@@V?$allocator@D@2@@std@@@2@@std@@QBE_NABV?$basic_string@DU?$char_traits@D@std@@V?$allocator@D@2@@1@0@Z 10004ad0 f i Aimbot.obj
 0001:00003b20       ??R?$equal_to@V?$basic_string@DU?$char_traits@D@std@@V?$allocator@D@2@@std@@@std@@QBE_NABV?$basic_string@DU?$char_traits@D@std@@V?$allocator@D@2@@1@0@Z 10004b20 f i Aimbot.obj
 0001:00003b40       ??R?$hash@V?$basic_string@DU?$char_traits@D@std@@V?$allocator@D@2@@std@@@std@@QBEIABV?$basic_string@DU?$char_traits@D@std@@V?$allocator@D@2@@1@@Z 10004b40 f i Aimbot.obj
 0001:00003b80       ??Y?$_Deque_iterator@V?$_Deque_val@U?$_Deque_simple_types@Uvec2@zgui@@@std@@@std@@@std@@QAEAAV01@H@Z 10004b80 f i zgui.obj
 0001:00003b80       ??Y?$_Deque_iterator@V?$_Deque_val@U?$_Deque_simple_types@UPlayerRecords@@@std@@@std@@@std@@QAEAAV01@H@Z 10004b80 f i Aimbot.obj
 0001:00003b80       ??Y?$_Deque_const_iterator@V?$_Deque_val@U?$_Deque_simple_types@UPlayerRecords@@@std@@@std@@@std@@QAEAAV01@H@Z 10004b80 f i LagComp.obj
 0001:00003ba0       ??YVector@@QAEAAV0@ABV0@@Z 10004ba0 f i Aimbot.obj
 0001:00003c00       ??YVector@@QAEAAV0@M@Z     10004c00 f i Aimbot.obj
 0001:00003c50       ??ZVector@@QAEAAV0@ABV0@@Z 10004c50 f i Aimbot.obj
 0001:00003cb0       ??_G?$pair@$$CBV?$basic_string@DU?$char_traits@D@std@@V?$allocator@D@2@@std@@V?$shared_ptr@UNode@NetvarTree@@@2@@std@@QAEPAXI@Z 10004cb0 f i Aimbot.obj
 0001:00003ce0       ??_H@YGXPAXIIP6EPAX0@Z@Z   10004ce0 f i Aimbot.obj
 0001:00003d20       ?Autostop@Aimbot@@AAEXXZ   10004d20 f   Aimbot.obj
 0001:00003e40       ?BaimIfLethal@Aimbot@@QAE_NPAVC_BaseEntity@@@Z 10004e40 f   Aimbot.obj
 0001:00003e80       ?Cross@Vector@@QBE?AV1@ABV1@@Z 10004e80 f i Aimbot.obj
 0001:00003eb0       ?CrossProduct@@YA?AVVector@@ABV1@0@Z 10004eb0 f i Aimbot.obj
 0001:00003f40       ?GetActiveWeapon@C_BaseEntity@@QAEPAVC_BaseCombatWeapon@@XZ 10004f40 f i Aimbot.obj
 0001:00004030       ?GetAimPunchAngle@C_BaseEntity@@QAE?AVVector@@XZ 10005030 f i Aimbot.obj
 0001:00004060       ?GetAmmo@C_BaseCombatWeapon@@QAEHXZ 10005060 f i Aimbot.obj
 0001:00004110       ?GetBaimHitbox@Aimbot@@QAEHXZ 10005110 f   Aimbot.obj
 0001:00004170       ?GetCSWpnData@C_BaseCombatWeapon@@QAEPAVWeaponInfo_t@@XZ 10005170 f i Aimbot.obj
 0001:00004190       ?GetEyeAngles@C_BaseEntity@@QAE?AVVector@@XZ 10005190 f i Aimbot.obj
 0001:00004250       ?GetEyePosition@C_BaseEntity@@QAE?AVVector@@XZ 10005250 f i Aimbot.obj
 0001:000042a0       ?GetFlags@C_BaseEntity@@QAE?AW4EntityFlags@@XZ 100052a0 f i Aimbot.obj
 0001:00004350       ?GetFloat@ConVar@@QAEMXZ   10005350 f i Aimbot.obj
 0001:00004380       ?GetHealth@C_BaseEntity@@QAEHXZ 10005380 f i Aimbot.obj
 0001:00004430       ?GetHitbox@mstudiohitboxset_t@@QBEPAUmstudiobbox_t@@H@Z 10005430 f i Aimbot.obj
 0001:00004450       ?GetHitboxSet@studiohdr_t@@QBEPAUmstudiohitboxset_t@@H@Z 10005450 f i Aimbot.obj
 0001:00004480       ?GetInaccuracy@C_BaseCombatWeapon@@QAEMXZ 10005480 f i Aimbot.obj
 0001:000044b0       ?GetItemDefinitionIndex@C_BaseCombatWeapon@@QAE?AW4ItemDefinitionIndex@@XZ 100054b0 f i Aimbot.obj
 0001:00004570       ?GetLastShotTime@C_BaseCombatWeapon@@QAEMXZ 10005570 f i Aimbot.obj
 0001:00004620       ?GetLifeState@C_BaseEntity@@QAE_NXZ 10005620 f i Aimbot.obj
 0001:000046d0       ?GetMultiplePointsForHitbox@Aimbot@@AAE?AV?$vector@VVector@@V?$allocator@VVector@@@std@@@std@@PAVC_BaseEntity@@0HQAVmatrix3x4_t@@@Z 100056d0 f   Aimbot.obj
 0001:000052d0       ?GetNextPrimaryAttack@C_BaseCombatWeapon@@QAEMXZ 100062d0 f i Aimbot.obj
 0001:00005390       ?GetOffsetRecursive@NetvarTree@@CAHAAV?$unordered_map@V?$basic_string@DU?$char_traits@D@std@@V?$allocator@D@2@@std@@V?$shared_ptr@UNode@NetvarTree@@@2@U?$hash@V?$basic_string@DU?$char_traits@D@std@@V?$allocator@D@2@@std@@@2@U?$equal_to@V?$basic_string@DU?$char_traits@D@std@@V?$allocator@D@2@@std@@@2@V?$allocator@U?$pair@$$CBV?$basic_string@DU?$char_traits@D@std@@V?$allocator@D@2@@std@@V?$shared_ptr@UNode@NetvarTree@@@2@@std@@@2@@std@@HPBD@Z 10006390 f i Aimbot.obj
 0001:00005400       ?GetSimulationTime@C_BaseEntity@@QAEMXZ 10006400 f i Aimbot.obj
 0001:000054b0       ?GetSpread@C_BaseCombatWeapon@@QAEMXZ 100064b0 f i Aimbot.obj
 0001:000054e0       ?GetStudiomodel@IVModelInfo@@QAEPAUstudiohdr_t@@PBUmodel_t@@@Z 100064e0 f i Aimbot.obj
 0001:00005510       ?GetTeam@C_BaseEntity@@QAEHXZ 10006510 f i Aimbot.obj
 0001:000055c0       ?GetTickBase@C_BaseEntity@@QAEHXZ 100065c0 f i Aimbot.obj
 0001:00005680       ?GetTickbase@Aimbot@@QAEHPAVCUserCmd@@@Z 10006680 f   Aimbot.obj
 0001:000056e0       ?GetVelocity@C_BaseEntity@@QAE?AVVector@@XZ 100066e0 f i Aimbot.obj
 0001:000057a0       ?HitChance@Aimbot@@QAE_NPAVC_BaseEntity@@PAVC_BaseCombatWeapon@@VVector@@2H@Z 100067a0 f   Aimbot.obj
 0001:00005d40       ?Hitscan@Aimbot@@AAE?AVVector@@PAVC_BaseEntity@@@Z 10006d40 f   Aimbot.obj
 0001:00006f00       ?Init@C_Ray@@QAEXABVVector@@0@Z 10007f00 f i Aimbot.obj
 0001:00006fc0       ?Init@Vector@@QAEXMMM@Z    10007fc0 f i Aimbot.obj
 0001:00007000       ?IsAlive@C_BaseEntity@@QAE_NXZ 10008000 f i Aimbot.obj
 0001:00007040       ?IsImmune@C_BaseEntity@@QAE_NXZ 10008040 f i Aimbot.obj
 0001:000070f0       ?IsScoped@C_BaseEntity@@QAE_NXZ 100080f0 f i Aimbot.obj
 0001:000071a0       ?IsValid@CBaseHandle@@QBE_NXZ 100081a0 f i Aimbot.obj
 0001:000071d0       ?Length2D@Vector@@QBEMXZ   100081d0 f i Aimbot.obj
 0001:00007230       ?Length@Vector@@QBEMXZ     10008230 f i Aimbot.obj
 0001:000072a0       ?LengthSqr@Vector@@QBEMXZ  100082a0 f i Aimbot.obj
 0001:000072f0       ?Normalize@Vector@@QAE?AV1@XZ 100082f0 f i Aimbot.obj
 0001:000073a0       ?NormalizeInPlace@Vector@@QAEMXZ 100083a0 f i Aimbot.obj
 0001:00007460       ?OnCreateMove@Aimbot@@QAEXXZ 10008460 f   Aimbot.obj
 0001:00007b00       ?ShouldBaim@@YA_NPAVC_BaseEntity@@@Z 10008b00 f   Aimbot.obj
 0001:00008090       ?SynchronizeHitchance@Aimbot@@QAEMXZ 10009090 f   Aimbot.obj
 0001:000081a0       ?SynchronizeMinDamage@Aimbot@@QAEHXZ 100091a0 f   Aimbot.obj
 0001:00008280       ?_Adjust_manually_vector_aligned@std@@YAXAAPAXAAI@Z 10009280 f i Aimbot.obj
 0001:000082f0       ?_Verify_offset@?$_Vector_const_iterator@V?$_Vector_val@U?$_Simple_types@UHitMarker_t@@@std@@@std@@@std@@QBEXH@Z 100092f0 f i Hooks.obj
 0001:000082f0       ?_Init@?$codecvt@DDU_Mbstatet@@@std@@IAEXABV_Locinfo@2@@Z 100092f0 f i Interfaces.obj
 0001:000082f0       ?imbue@?$basic_streambuf@DU?$char_traits@D@std@@@std@@MAEXABVlocale@2@@Z 100092f0 f i zgui.obj
 0001:000082f0       ?FireGameEvent@FootstepEvent@@UAEXPAVIGameEvent@@@Z 100092f0 f i Hooks.obj
 0001:000082f0       ?_Init@?$num_put@DV?$ostreambuf_iterator@DU?$char_traits@D@std@@@std@@@std@@IAEXABV_Locinfo@2@@Z 100092f0 f i zgui.obj
 0001:000082f0       ?_Verify_offset@?$_Vector_const_iterator@V?$_Vector_val@U?$_Simple_types@Vtrace_info@@@std@@@std@@@std@@QBEXH@Z 100092f0 f i Hooks.obj
 0001:000082f0       ?_Swap_all@_Container_base0@std@@QAEXAAU12@@Z 100092f0 f i Aimbot.obj
 0001:000082f0       ?_Adopt@_Iterator_base0@std@@QAEXPBX@Z 100092f0 f i Aimbot.obj
 0001:000082f0       ?_Compat@?$_String_const_iterator@V?$_String_val@U?$_Simple_types@D@std@@@std@@@std@@QBEXABV12@@Z 100092f0 f i ESP.obj
 0001:000082f0       ?_Verify_offset@?$_String_const_iterator@V?$_String_val@U?$_Simple_types@D@std@@@std@@@std@@QBEXH@Z 100092f0 f i Menu.obj
 0001:000082f0       ?_Compat@?$_Deque_const_iterator@V?$_Deque_val@U?$_Deque_simple_types@UPlayerRecords@@@std@@@std@@@std@@QBEXABV12@@Z 100092f0 f i LagComp.obj
 0001:000082f0       ?_Verify_offset@?$_Deque_const_iterator@V?$_Deque_val@U?$_Deque_simple_types@UPlayerRecords@@@std@@@std@@@std@@QBEXH@Z 100092f0 f i LagComp.obj
 0001:00008300       ?_Adopt@_Iterator_base12@std@@QAEXPBU_Container_base12@2@@Z 10009300 f i Aimbot.obj
 0001:00008330       ?_Allocate@_Default_allocate_traits@std@@SAPAXI@Z 10009330 f i Aimbot.obj
 0001:00008350       ?_Assign_rv_contents_with_alloc_always_equal@?$basic_string@DU?$char_traits@D@std@@V?$allocator@D@2@@std@@QAEX$$QAV12@U?$integral_constant@_N$00@2@@Z 10009350 f i Aimbot.obj
 0001:000083e0       ?_Begin@?$_Hash@V?$_Umap_traits@V?$basic_string@DU?$char_traits@D@std@@V?$allocator@D@2@@std@@V?$shared_ptr@UNode@NetvarTree@@@2@V?$_Uhash_compare@V?$basic_string@DU?$char_traits@D@std@@V?$allocator@D@2@@std@@U?$hash@V?$basic_string@DU?$char_traits@D@std@@V?$allocator@D@2@@std@@@2@U?$equal_to@V?$basic_string@DU?$char_traits@D@std@@V?$allocator@D@2@@std@@@2@@2@V?$allocator@U?$pair@$$CBV?$basic_string@DU?$char_traits@D@std@@V?$allocator@D@2@@std@@V?$shared_ptr@UNode@NetvarTree@@@2@@std@@@2@$0A@@std@@@std@@IAE?AV?$_List_unchecked_iterator@V?$_List_val@U?$_List_simple_types@U?$pair@$$CBV?$basic_string@DU?$char_traits@D@std@@V?$allocator@D@2@@std@@V?$shared_ptr@UNode@NetvarTree@@@2@@std@@@std@@@std@@@2@I@Z 100093e0 f i Aimbot.obj
 0001:00008410       ?_Buy@?$vector@PBDV?$allocator@PBD@std@@@std@@AAE_NI@Z 10009410 f i Hooks.obj
 0001:00008410       ?_Buy@?$vector@V?$_List_unchecked_iterator@V?$_List_val@U?$_List_simple_types@U?$pair@$$CBV?$basic_string@DU?$char_traits@D@std@@V?$allocator@D@2@@std@@V?$shared_ptr@UNode@NetvarTree@@@2@@std@@@std@@@std@@@std@@V?$allocator@V?$_List_unchecked_iterator@V?$_List_val@U?$_List_simple_types@U?$pair@$$CBV?$basic_string@DU?$char_traits@D@std@@V?$allocator@D@2@@std@@V?$shared_ptr@UNode@NetvarTree@@@2@@std@@@std@@@std@@@std@@@2@@std@@AAE_NI@Z 10009410 f i Aimbot.obj
 0001:000084d0       ?_Buynode0@?$_List_alloc@U?$_List_base_types@U?$pair@$$CBV?$basic_string@DU?$char_traits@D@std@@V?$allocator@D@2@@std@@V?$shared_ptr@UNode@NetvarTree@@@2@@std@@V?$allocator@U?$pair@$$CBV?$basic_string@DU?$char_traits@D@std@@V?$allocator@D@2@@std@@V?$shared_ptr@UNode@NetvarTree@@@2@@std@@@2@@std@@@std@@QAEPAU?$_List_node@U?$pair@$$CBV?$basic_string@DU?$char_traits@D@std@@V?$allocator@D@2@@std@@V?$shared_ptr@UNode@NetvarTree@@@2@@std@@PAX@2@PAU32@0@Z 100094d0 f i Aimbot.obj
 0001:000085c0       ?_Calculate_growth@?$basic_string@DU?$char_traits@D@std@@V?$allocator@D@2@@std@@QBEII@Z 100095c0 f i Aimbot.obj
 0001:00008640       ?_Calculate_growth@?$vector@V?$_List_unchecked_iterator@V?$_List_val@U?$_List_simple_types@U?$pair@$$CBV?$basic_string@DU?$char_traits@D@std@@V?$allocator@D@2@@std@@V?$shared_ptr@UNode@NetvarTree@@@2@@std@@@std@@@std@@@std@@V?$allocator@V?$_List_unchecked_iterator@V?$_List_val@U?$_List_simple_types@U?$pair@$$CBV?$basic_string@DU?$char_traits@D@std@@V?$allocator@D@2@@std@@V?$shared_ptr@UNode@NetvarTree@@@2@@std@@@std@@@std@@@std@@@2@@std@@ABEII@Z 10009640 f i Aimbot.obj
 0001:00008640       ?_Calculate_growth@?$vector@PAV?$ConfigValue@H@@V?$allocator@PAV?$ConfigValue@H@@@std@@@std@@ABEII@Z 10009640 f i TGFCfg.obj
 0001:00008640       ?_Calculate_growth@?$vector@PAV?$ConfigValue@M@@V?$allocator@PAV?$ConfigValue@M@@@std@@@std@@ABEII@Z 10009640 f i TGFCfg.obj
 0001:00008640       ?_Calculate_growth@?$vector@PAV?$ConfigValue@_N@@V?$allocator@PAV?$ConfigValue@_N@@@std@@@std@@ABEII@Z 10009640 f i TGFCfg.obj
 0001:00008640       ?_Calculate_growth@?$vector@HV?$allocator@H@std@@@std@@ABEII@Z 10009640 f i Aimbot.obj
 0001:00008690       ?_Calculate_growth@?$vector@VVector@@V?$allocator@VVector@@@std@@@std@@ABEII@Z 10009690 f i Aimbot.obj
 0001:000086e0       ?_Change_array@?$vector@V?$_List_unchecked_iterator@V?$_List_val@U?$_List_simple_types@U?$pair@$$CBV?$basic_string@DU?$char_traits@D@std@@V?$allocator@D@2@@std@@V?$shared_ptr@UNode@NetvarTree@@@2@@std@@@std@@@std@@@std@@V?$allocator@V?$_List_unchecked_iterator@V?$_List_val@U?$_List_simple_types@U?$pair@$$CBV?$basic_string@DU?$char_traits@D@std@@V?$allocator@D@2@@std@@V?$shared_ptr@UNode@NetvarTree@@@2@@std@@@std@@@std@@@std@@@2@@std@@AAEXQAV?$_List_unchecked_iterator@V?$_List_val@U?$_List_simple_types@U?$pair@$$CBV?$basic_string@DU?$char_traits@D@std@@V?$allocator@D@2@@std@@V?$shared_ptr@UNode@NetvarTree@@@2@@std@@@std@@@std@@@2@II@Z 100096e0 f i Aimbot.obj
 0001:000086e0       ?_Change_array@?$vector@PAV?$ConfigValue@_N@@V?$allocator@PAV?$ConfigValue@_N@@@std@@@std@@AAEXQAPAV?$ConfigValue@_N@@II@Z 100096e0 f i TGFCfg.obj
 0001:000086e0       ?_Change_array@?$vector@PAV?$ConfigValue@M@@V?$allocator@PAV?$ConfigValue@M@@@std@@@std@@AAEXQAPAV?$ConfigValue@M@@II@Z 100096e0 f i TGFCfg.obj
 0001:000086e0       ?_Change_array@?$vector@PAV?$ConfigValue@H@@V?$allocator@PAV?$ConfigValue@H@@@std@@@std@@AAEXQAPAV?$ConfigValue@H@@II@Z 100096e0 f i TGFCfg.obj
 0001:000086e0       ?_Change_array@?$vector@HV?$allocator@H@std@@@std@@AAEXQAHII@Z 100096e0 f i Aimbot.obj
 0001:000087a0       ?_Change_array@?$vector@VVector@@V?$allocator@VVector@@@std@@@std@@AAEXQAVVector@@II@Z 100097a0 f i Aimbot.obj
 0001:00008860       ?_Check_size@?$_Hash@V?$_Umap_traits@V?$basic_string@DU?$char_traits@D@std@@V?$allocator@D@2@@std@@V?$shared_ptr@UNode@NetvarTree@@@2@V?$_Uhash_compare@V?$basic_string@DU?$char_traits@D@std@@V?$allocator@D@2@@std@@U?$hash@V?$basic_string@DU?$char_traits@D@std@@V?$allocator@D@2@@std@@@2@U?$equal_to@V?$basic_string@DU?$char_traits@D@std@@V?$allocator@D@2@@std@@@2@@2@V?$allocator@U?$pair@$$CBV?$basic_string@DU?$char_traits@D@std@@V?$allocator@D@2@@std@@V?$shared_ptr@UNode@NetvarTree@@@2@@std@@@2@$0A@@std@@@std@@IAEXXZ 10009860 f i Aimbot.obj
 0001:000088f0       ?_Decref@?$_Ptr_base@UNode@NetvarTree@@@std@@IAEXXZ 100098f0 f i Aimbot.obj
 0001:00008910       ?_Decref@_Ref_count_base@std@@QAEXXZ 10009910 f i Aimbot.obj
 0001:00008940       ?_Decwref@_Ref_count_base@std@@QAEXXZ 10009940 f i Aimbot.obj
 0001:00008970       ?_Destroy@?$vector@Umulti_select_item@zgui@@V?$allocator@Umulti_select_item@zgui@@@std@@@std@@AAEXPAUmulti_select_item@zgui@@0@Z 10009970 f i zgui.obj
 0001:00008970       ?_Destroy@?$vector@PAV?$ConfigValue@M@@V?$allocator@PAV?$ConfigValue@M@@@std@@@std@@AAEXPAPAV?$ConfigValue@M@@0@Z 10009970 f i TGFCfg.obj
 0001:00008970       ?_Destroy@?$vector@UVertex_t@@V?$allocator@UVertex_t@@@std@@@std@@AAEXPAUVertex_t@@0@Z 10009970 f i ESP.obj
 0001:00008970       ?_Destroy@?$vector@UHitMarker_t@@V?$allocator@UHitMarker_t@@@std@@@std@@AAEXPAUHitMarker_t@@0@Z 10009970 f i Hooks.obj
 0001:00008970       ?_Destroy@?$vector@PAV?$ConfigValue@H@@V?$allocator@PAV?$ConfigValue@H@@@std@@@std@@AAEXPAPAV?$ConfigValue@H@@0@Z 10009970 f i TGFCfg.obj
 0001:00008970       ?_Destroy@?$vector@V?$_List_unchecked_iterator@V?$_List_val@U?$_List_simple_types@U?$pair@$$CBV?$basic_string@DU?$char_traits@D@std@@V?$allocator@D@2@@std@@V?$shared_ptr@UNode@NetvarTree@@@2@@std@@@std@@@std@@@std@@V?$allocator@V?$_List_unchecked_iterator@V?$_List_val@U?$_List_simple_types@U?$pair@$$CBV?$basic_string@DU?$char_traits@D@std@@V?$allocator@D@2@@std@@V?$shared_ptr@UNode@NetvarTree@@@2@@std@@@std@@@std@@@std@@@2@@std@@AAEXPAV?$_List_unchecked_iterator@V?$_List_val@U?$_List_simple_types@U?$pair@$$CBV?$basic_string@DU?$char_traits@D@std@@V?$allocator@D@2@@std@@V?$shared_ptr@UNode@NetvarTree@@@2@@std@@@std@@@std@@@2@0@Z 10009970 f i Aimbot.obj
 0001:00008970       ?_Destroy@?$vector@HV?$allocator@H@std@@@std@@AAEXPAH0@Z 10009970 f i Aimbot.obj
 0001:00008970       ?_Destroy@?$vector@Vtrace_info@@V?$allocator@Vtrace_info@@@std@@@std@@AAEXPAVtrace_info@@0@Z 10009970 f i Hooks.obj
 0001:00008970       ?_Destroy@?$vector@PBDV?$allocator@PBD@std@@@std@@AAEXPAPBD0@Z 10009970 f i Hooks.obj
 0001:00008970       ?_Destroy@?$vector@PAV?$ConfigValue@_N@@V?$allocator@PAV?$ConfigValue@_N@@@std@@@std@@AAEXPAPAV?$ConfigValue@_N@@0@Z 10009970 f i TGFCfg.obj
 0001:00008970       ?_Destroy@?$vector@VVector@@V?$allocator@VVector@@@std@@@std@@AAEXPAVVector@@0@Z 10009970 f i Aimbot.obj
 0001:00008970       ?_Destroy@?$vector@PAVIMaterial@@V?$allocator@PAVIMaterial@@@std@@@std@@AAEXPAPAVIMaterial@@0@Z 10009970 f i Chams.obj
 0001:000089a0       ?_Destroy_if_node@?$_Hash@V?$_Umap_traits@V?$basic_string@DU?$char_traits@D@std@@V?$allocator@D@2@@std@@V?$shared_ptr@UNode@NetvarTree@@@2@V?$_Uhash_compare@V?$basic_string@DU?$char_traits@D@std@@V?$allocator@D@2@@std@@U?$hash@V?$basic_string@DU?$char_traits@D@std@@V?$allocator@D@2@@std@@@2@U?$equal_to@V?$basic_string@DU?$char_traits@D@std@@V?$allocator@D@2@@std@@@2@@2@V?$allocator@U?$pair@$$CBV?$basic_string@DU?$char_traits@D@std@@V?$allocator@D@2@@std@@V?$shared_ptr@UNode@NetvarTree@@@2@@std@@@2@$0A@@std@@@std@@IAEXV?$_List_unchecked_iterator@V?$_List_val@U?$_List_simple_types@U?$pair@$$CBV?$basic_string@DU?$char_traits@D@std@@V?$allocator@D@2@@std@@V?$shared_ptr@UNode@NetvarTree@@@2@@std@@@std@@@std@@@2@@Z 100099a0 f i Aimbot.obj
 0001:000089f0       ?_End@?$_Hash@V?$_Umap_traits@V?$basic_string@DU?$char_traits@D@std@@V?$allocator@D@2@@std@@V?$shared_ptr@UNode@NetvarTree@@@2@V?$_Uhash_compare@V?$basic_string@DU?$char_traits@D@std@@V?$allocator@D@2@@std@@U?$hash@V?$basic_string@DU?$char_traits@D@std@@V?$allocator@D@2@@std@@@2@U?$equal_to@V?$basic_string@DU?$char_traits@D@std@@V?$allocator@D@2@@std@@@2@@2@V?$allocator@U?$pair@$$CBV?$basic_string@DU?$char_traits@D@std@@V?$allocator@D@2@@std@@V?$shared_ptr@UNode@NetvarTree@@@2@@std@@@2@$0A@@std@@@std@@IAE?AV?$_List_unchecked_iterator@V?$_List_val@U?$_List_simple_types@U?$pair@$$CBV?$basic_string@DU?$char_traits@D@std@@V?$allocator@D@2@@std@@V?$shared_ptr@UNode@NetvarTree@@@2@@std@@@std@@@std@@@2@I@Z 100099f0 f i Aimbot.obj
 0001:00008a70       ?_Equal@?$basic_string@DU?$char_traits@D@std@@V?$allocator@D@2@@std@@QBE_NABV12@@Z 10009a70 f i Aimbot.obj
 0001:00008b00       ?_Erase_bucket@?$_Hash@V?$_Umap_traits@V?$basic_string@DU?$char_traits@D@std@@V?$allocator@D@2@@std@@V?$shared_ptr@UNode@NetvarTree@@@2@V?$_Uhash_compare@V?$basic_string@DU?$char_traits@D@std@@V?$allocator@D@2@@std@@U?$hash@V?$basic_string@DU?$char_traits@D@std@@V?$allocator@D@2@@std@@@2@U?$equal_to@V?$basic_string@DU?$char_traits@D@std@@V?$allocator@D@2@@std@@@2@@2@V?$allocator@U?$pair@$$CBV?$basic_string@DU?$char_traits@D@std@@V?$allocator@D@2@@std@@V?$shared_ptr@UNode@NetvarTree@@@2@@std@@@2@$0A@@std@@@std@@IAEXV?$_List_iterator@V?$_List_val@U?$_List_simple_types@U?$pair@$$CBV?$basic_string@DU?$char_traits@D@std@@V?$allocator@D@2@@std@@V?$shared_ptr@UNode@NetvarTree@@@2@@std@@@std@@@std@@@2@I@Z 10009b00 f i Aimbot.obj
 0001:00008c10       ?_Fnv1a_append_bytes@std@@YAIIQBEI@Z 10009c10 f i Aimbot.obj
 0001:00008c50       ?_Freenode@?$_List_buy@U?$pair@$$CBV?$basic_string@DU?$char_traits@D@std@@V?$allocator@D@2@@std@@V?$shared_ptr@UNode@NetvarTree@@@2@@std@@V?$allocator@U?$pair@$$CBV?$basic_string@DU?$char_traits@D@std@@V?$allocator@D@2@@std@@V?$shared_ptr@UNode@NetvarTree@@@2@@std@@@2@@std@@QAEXPAU?$_List_node@U?$pair@$$CBV?$basic_string@DU?$char_traits@D@std@@V?$allocator@D@2@@std@@V?$shared_ptr@UNode@NetvarTree@@@2@@std@@PAX@2@@Z 10009c50 f i Aimbot.obj
 0001:00008ca0       ?_Getal@?$_Vector_alloc@U?$_Vec_base_types@UVertex_t@@V?$allocator@UVertex_t@@@std@@@std@@@std@@QAEAAV?$allocator@UVertex_t@@@2@XZ 10009ca0 f i ESP.obj
 0001:00008ca0       ?_Get_data@?$_Vector_alloc@U?$_Vec_base_types@Uzgui_control_render_t@zgui@@V?$allocator@Uzgui_control_render_t@zgui@@@std@@@std@@@std@@QBEABV?$_Vector_val@U?$_Simple_types@Uzgui_control_render_t@zgui@@@std@@@2@XZ 10009ca0 f i zgui.obj
 0001:00008ca0       ?_Getal@?$_Vector_alloc@U?$_Vec_base_types@PAVIMaterial@@V?$allocator@PAVIMaterial@@@std@@@std@@@std@@QAEAAV?$allocator@PAVIMaterial@@@2@XZ 10009ca0 f i Chams.obj
 0001:00008ca0       ?get_deleter@?$_Unique_ptr_base@VShadowVTManager@@U?$default_delete@VShadowVTManager@@@std@@@std@@QAEAAU?$default_delete@VShadowVTManager@@@2@XZ 10009ca0 f i Hooks.obj
 0001:00008ca0       ?_Get_data@?$_Vector_alloc@U?$_Vec_base_types@HV?$allocator@H@std@@@std@@@std@@QBEABV?$_Vector_val@U?$_Simple_types@H@std@@@2@XZ 10009ca0 f i Aimbot.obj
 0001:00008ca0       ?_Get_data@?$_Vector_alloc@U?$_Vec_base_types@PAV?$ConfigValue@_N@@V?$allocator@PAV?$ConfigValue@_N@@@std@@@std@@@std@@QBEABV?$_Vector_val@U?$_Simple_types@PAV?$ConfigValue@_N@@@std@@@2@XZ 10009ca0 f i TGFCfg.obj
 0001:00008ca0       ?_Get_data@?$_Vector_alloc@U?$_Vec_base_types@PAVIMaterial@@V?$allocator@PAVIMaterial@@@std@@@std@@@std@@QBEABV?$_Vector_val@U?$_Simple_types@PAVIMaterial@@@std@@@2@XZ 10009ca0 f i Chams.obj
 0001:00008ca0       ?_Getal@?$_Vector_alloc@U?$_Vec_base_types@Umulti_select_item@zgui@@V?$allocator@Umulti_select_item@zgui@@@std@@@std@@@std@@QAEAAV?$allocator@Umulti_select_item@zgui@@@2@XZ 10009ca0 f i zgui.obj
 0001:00008ca0       ?_Get_data@?$_Deque_alloc@U?$_Deque_base_types@UPlayerRecords@@V?$allocator@UPlayerRecords@@@std@@@std@@@std@@QBEABV?$_Deque_val@U?$_Deque_simple_types@UPlayerRecords@@@std@@@2@XZ 10009ca0 f i Aimbot.obj
 0001:00008ca0       ?_Getal@?$_Vector_alloc@U?$_Vec_base_types@HV?$allocator@H@std@@@std@@@std@@QBEABV?$allocator@H@2@XZ 10009ca0 f i Aimbot.obj
 0001:00008ca0       ?_Get_data@?$_String_alloc@U?$_String_base_types@_WV?$allocator@_W@std@@@std@@@std@@QAEAAV?$_String_val@U?$_Simple_types@_W@std@@@2@XZ 10009ca0 f i Hooks.obj
 0001:00008ca0       ?_Getal@?$_List_alloc@U?$_List_base_types@U?$pair@$$CBV?$basic_string@DU?$char_traits@D@std@@V?$allocator@D@2@@std@@V?$shared_ptr@UNode@NetvarTree@@@2@@std@@V?$allocator@U?$pair@$$CBV?$basic_string@DU?$char_traits@D@std@@V?$allocator@D@2@@std@@V?$shared_ptr@UNode@NetvarTree@@@2@@std@@@2@@std@@@std@@QBEABV?$allocator@U?$_List_node@U?$pair@$$CBV?$basic_string@DU?$char_traits@D@std@@V?$allocator@D@2@@std@@V?$shared_ptr@UNode@NetvarTree@@@2@@std@@PAX@std@@@2@XZ 10009ca0 f i Aimbot.obj
 0001:00008ca0       ?_Gethash@?$_Uhash_compare@V?$basic_string@DU?$char_traits@D@std@@V?$allocator@D@2@@std@@U?$hash@V?$basic_string@DU?$char_traits@D@std@@V?$allocator@D@2@@std@@@2@U?$equal_to@V?$basic_string@DU?$char_traits@D@std@@V?$allocator@D@2@@std@@@2@@std@@QBEABU?$hash@V?$basic_string@DU?$char_traits@D@std@@V?$allocator@D@2@@std@@@2@XZ 10009ca0 f i Aimbot.obj
 0001:00008ca0       ?_Get_data@?$_Vector_alloc@U?$_Vec_base_types@Vtrace_info@@V?$allocator@Vtrace_info@@@std@@@std@@@std@@QAEAAV?$_Vector_val@U?$_Simple_types@Vtrace_info@@@std@@@2@XZ 10009ca0 f i Hooks.obj
 0001:00008ca0       ?_Get_data@?$_String_alloc@U?$_String_base_types@_WV?$allocator@_W@std@@@std@@@std@@QBEABV?$_String_val@U?$_Simple_types@_W@std@@@2@XZ 10009ca0 f i Hooks.obj
 0001:00008ca0       ?_Getal@?$_Deque_alloc@U?$_Deque_base_types@UPlayerRecords@@V?$allocator@UPlayerRecords@@@std@@@std@@@std@@QBEABV?$allocator@UPlayerRecords@@@2@XZ 10009ca0 f i LagComp.obj
 0001:00008ca0       ?_Get_data@?$_Vector_alloc@U?$_Vec_base_types@Uzgui_control_render_t@zgui@@V?$allocator@Uzgui_control_render_t@zgui@@@std@@@std@@@std@@QAEAAV?$_Vector_val@U?$_Simple_types@Uzgui_control_render_t@zgui@@@std@@@2@XZ 10009ca0 f i zgui.obj
 0001:00008ca0       ?_Get_data@?$_Vector_alloc@U?$_Vec_base_types@HV?$allocator@H@std@@@std@@@std@@QAEAAV?$_Vector_val@U?$_Simple_types@H@std@@@2@XZ 10009ca0 f i Aimbot.obj
 0001:00008ca0       ?_Get_data@?$_Vector_alloc@U?$_Vec_base_types@PAV?$ConfigValue@H@@V?$allocator@PAV?$ConfigValue@H@@@std@@@std@@@std@@QAEAAV?$_Vector_val@U?$_Simple_types@PAV?$ConfigValue@H@@@std@@@2@XZ 10009ca0 f i TGFCfg.obj
 0001:00008ca0       ?_Get_data@?$_Vector_alloc@U?$_Vec_base_types@PAV?$ConfigValue@H@@V?$allocator@PAV?$ConfigValue@H@@@std@@@std@@@std@@QBEABV?$_Vector_val@U?$_Simple_types@PAV?$ConfigValue@H@@@std@@@2@XZ 10009ca0 f i TGFCfg.obj
 0001:00008ca0       ?_Get_data@?$_List_alloc@U?$_List_base_types@U?$pair@$$CBV?$basic_string@DU?$char_traits@D@std@@V?$allocator@D@2@@std@@V?$shared_ptr@UNode@NetvarTree@@@2@@std@@V?$allocator@U?$pair@$$CBV?$basic_string@DU?$char_traits@D@std@@V?$allocator@D@2@@std@@V?$shared_ptr@UNode@NetvarTree@@@2@@std@@@2@@std@@@std@@QBEABV?$_List_val@U?$_List_simple_types@U?$pair@$$CBV?$basic_string@DU?$char_traits@D@std@@V?$allocator@D@2@@std@@V?$shared_ptr@UNode@NetvarTree@@@2@@std@@@std@@@2@XZ 10009ca0 f i Aimbot.obj
 0001:00008ca0       ?_Get_data@?$_Vector_alloc@U?$_Vec_base_types@Vtrace_info@@V?$allocator@Vtrace_info@@@std@@@std@@@std@@QBEABV?$_Vector_val@U?$_Simple_types@Vtrace_info@@@std@@@2@XZ 10009ca0 f i Hooks.obj
 0001:00008ca0       ?_Get_data@?$_Vector_alloc@U?$_Vec_base_types@PAVIMaterial@@V?$allocator@PAVIMaterial@@@std@@@std@@@std@@QAEAAV?$_Vector_val@U?$_Simple_types@PAVIMaterial@@@std@@@2@XZ 10009ca0 f i Chams.obj
 0001:00008ca0       ?_Getal@?$_Vector_alloc@U?$_Vec_base_types@VVector@@V?$allocator@VVector@@@std@@@std@@@std@@QAEAAV?$allocator@VVector@@@2@XZ 10009ca0 f i Aimbot.obj
 0001:00008ca0       ?_Get_data@?$_Vector_alloc@U?$_Vec_base_types@UHitMarker_t@@V?$allocator@UHitMarker_t@@@std@@@std@@@std@@QBEABV?$_Vector_val@U?$_Simple_types@UHitMarker_t@@@std@@@2@XZ 10009ca0 f i Hooks.obj
 0001:00008ca0       ?_Get_data@?$_Deque_alloc@U?$_Deque_base_types@Uvec2@zgui@@V?$allocator@Uvec2@zgui@@@std@@@std@@@std@@QBEABV?$_Deque_val@U?$_Deque_simple_types@Uvec2@zgui@@@std@@@2@XZ 10009ca0 f i zgui.obj
 0001:00008ca0       ?_Getal@?$_Vector_alloc@U?$_Vec_base_types@V?$_List_unchecked_iterator@V?$_List_val@U?$_List_simple_types@U?$pair@$$CBV?$basic_string@DU?$char_traits@D@std@@V?$allocator@D@2@@std@@V?$shared_ptr@UNode@NetvarTree@@@2@@std@@@std@@@std@@@std@@V?$allocator@V?$_List_unchecked_iterator@V?$_List_val@U?$_List_simple_types@U?$pair@$$CBV?$basic_string@DU?$char_traits@D@std@@V?$allocator@D@2@@std@@V?$shared_ptr@UNode@NetvarTree@@@2@@std@@@std@@@std@@@std@@@2@@std@@@std@@QBEABV?$allocator@V?$_List_unchecked_iterator@V?$_List_val@U?$_List_simple_types@U?$pair@$$CBV?$basic_string@DU?$char_traits@D@std@@V?$allocator@D@2@@std@@V?$shared_ptr@UNode@NetvarTree@@@2@@std@@@std@@@std@@@std@@@2@XZ 10009ca0 f i Aimbot.obj
 0001:00008ca0       ?_Get_data@?$_Vector_alloc@U?$_Vec_base_types@UHitMarker_t@@V?$allocator@UHitMarker_t@@@std@@@std@@@std@@QAEAAV?$_Vector_val@U?$_Simple_types@UHitMarker_t@@@std@@@2@XZ 10009ca0 f i Hooks.obj
 0001:00008ca0       ?get_deleter@?$_Unique_ptr_base@V_Facet_base@std@@U?$default_delete@V_Facet_base@std@@@2@@std@@QAEAAU?$default_delete@V_Facet_base@std@@@2@XZ 10009ca0 f i zgui.obj
 0001:00008ca0       ?_Get_data@?$_Vector_alloc@U?$_Vec_base_types@V?$_List_unchecked_iterator@V?$_List_val@U?$_List_simple_types@U?$pair@$$CBV?$basic_string@DU?$char_traits@D@std@@V?$allocator@D@2@@std@@V?$shared_ptr@UNode@NetvarTree@@@2@@std@@@std@@@std@@@std@@V?$allocator@V?$_List_unchecked_iterator@V?$_List_val@U?$_List_simple_types@U?$pair@$$CBV?$basic_string@DU?$char_traits@D@std@@V?$allocator@D@2@@std@@V?$shared_ptr@UNode@NetvarTree@@@2@@std@@@std@@@std@@@std@@@2@@std@@@std@@QBEABV?$_Vector_val@U?$_Simple_types@V?$_List_unchecked_iterator@V?$_List_val@U?$_List_simple_types@U?$pair@$$CBV?$basic_string@DU?$char_traits@D@std@@V?$allocator@D@2@@std@@V?$shared_ptr@UNode@NetvarTree@@@2@@std@@@std@@@std@@@std@@@std@@@2@XZ 10009ca0 f i Aimbot.obj
 0001:00008ca0       ?_Getal@?$_Vector_alloc@U?$_Vec_base_types@PAV?$ConfigValue@_N@@V?$allocator@PAV?$ConfigValue@_N@@@std@@@std@@@std@@QBEABV?$allocator@PAV?$ConfigValue@_N@@@2@XZ 10009ca0 f i TGFCfg.obj
 0001:00008ca0       ?_Getal@?$_Vector_alloc@U?$_Vec_base_types@PAV?$ConfigValue@H@@V?$allocator@PAV?$ConfigValue@H@@@std@@@std@@@std@@QBEABV?$allocator@PAV?$ConfigValue@H@@@2@XZ 10009ca0 f i TGFCfg.obj
 0001:00008ca0       ?_Getal@?$_Vector_alloc@U?$_Vec_base_types@PAV?$ConfigValue@H@@V?$allocator@PAV?$ConfigValue@H@@@std@@@std@@@std@@QAEAAV?$allocator@PAV?$ConfigValue@H@@@2@XZ 10009ca0 f i TGFCfg.obj
 0001:00008ca0       ?_Myptr@?$_Unique_ptr_base@IU?$default_delete@$$BY0A@I@std@@@std@@QAEAAPAIXZ 10009ca0 f i Hooks.obj
 0001:00008ca0       ?_Getal@?$_Deque_alloc@U?$_Deque_base_types@UPlayerRecords@@V?$allocator@UPlayerRecords@@@std@@@std@@@std@@QAEAAV?$allocator@UPlayerRecords@@@2@XZ 10009ca0 f i LagComp.obj
 0001:00008ca0       ?_Getal@?$_Vector_alloc@U?$_Vec_base_types@HV?$allocator@H@std@@@std@@@std@@QAEAAV?$allocator@H@2@XZ 10009ca0 f i Aimbot.obj
 0001:00008ca0       ?_Getal@?$_Vector_alloc@U?$_Vec_base_types@V?$basic_string@DU?$char_traits@D@std@@V?$allocator@D@2@@std@@V?$allocator@V?$basic_string@DU?$char_traits@D@std@@V?$allocator@D@2@@std@@@2@@std@@@std@@QBEABV?$allocator@V?$basic_string@DU?$char_traits@D@std@@V?$allocator@D@2@@std@@@2@XZ 10009ca0 f i zgui.obj
 0001:00008ca0       ?_Getal@?$_Vector_alloc@U?$_Vec_base_types@PAV?$ConfigValue@_N@@V?$allocator@PAV?$ConfigValue@_N@@@std@@@std@@@std@@QAEAAV?$allocator@PAV?$ConfigValue@_N@@@2@XZ 10009ca0 f i TGFCfg.obj
 0001:00008ca0       ?_Get_data@?$_Vector_alloc@U?$_Vec_base_types@PAV?$ConfigValue@M@@V?$allocator@PAV?$ConfigValue@M@@@std@@@std@@@std@@QAEAAV?$_Vector_val@U?$_Simple_types@PAV?$ConfigValue@M@@@std@@@2@XZ 10009ca0 f i TGFCfg.obj
 0001:00008ca0       ?_Get_data@?$_Vector_alloc@U?$_Vec_base_types@UVertex_t@@V?$allocator@UVertex_t@@@std@@@std@@@std@@QAEAAV?$_Vector_val@U?$_Simple_types@UVertex_t@@@std@@@2@XZ 10009ca0 f i ESP.obj
 0001:00008ca0       ?_Get_data@?$_String_alloc@U?$_String_base_types@DV?$allocator@D@std@@@std@@@std@@QBEABV?$_String_val@U?$_Simple_types@D@std@@@2@XZ 10009ca0 f i Aimbot.obj
 0001:00008ca0       ?_Getal@?$_Vector_alloc@U?$_Vec_base_types@PBDV?$allocator@PBD@std@@@std@@@std@@QBEABV?$allocator@PBD@2@XZ 10009ca0 f i Hooks.obj
 0001:00008ca0       ?_Get_data@?$_List_alloc@U?$_List_base_types@U?$pair@$$CBV?$basic_string@DU?$char_traits@D@std@@V?$allocator@D@2@@std@@V?$shared_ptr@UNode@NetvarTree@@@2@@std@@V?$allocator@U?$pair@$$CBV?$basic_string@DU?$char_traits@D@std@@V?$allocator@D@2@@std@@V?$shared_ptr@UNode@NetvarTree@@@2@@std@@@2@@std@@@std@@QAEAAV?$_List_val@U?$_List_simple_types@U?$pair@$$CBV?$basic_string@DU?$char_traits@D@std@@V?$allocator@D@2@@std@@V?$shared_ptr@UNode@NetvarTree@@@2@@std@@@std@@@2@XZ 10009ca0 f i Aimbot.obj
 0001:00008ca0       ?_Getal@?$_Vector_alloc@U?$_Vec_base_types@Vtrace_info@@V?$allocator@Vtrace_info@@@std@@@std@@@std@@QAEAAV?$allocator@Vtrace_info@@@2@XZ 10009ca0 f i Hooks.obj
 0001:00008ca0       ?_Getal@?$_Vector_alloc@U?$_Vec_base_types@Umulti_select_item@zgui@@V?$allocator@Umulti_select_item@zgui@@@std@@@std@@@std@@QBEABV?$allocator@Umulti_select_item@zgui@@@2@XZ 10009ca0 f i Menu.obj
 0001:00008ca0       ?_Get_data@?$_Vector_alloc@U?$_Vec_base_types@PAV?$ConfigValue@M@@V?$allocator@PAV?$ConfigValue@M@@@std@@@std@@@std@@QBEABV?$_Vector_val@U?$_Simple_types@PAV?$ConfigValue@M@@@std@@@2@XZ 10009ca0 f i TGFCfg.obj
 0001:00008ca0       ?_Get_data@?$_Vector_alloc@U?$_Vec_base_types@Umulti_select_item@zgui@@V?$allocator@Umulti_select_item@zgui@@@std@@@std@@@std@@QAEAAV?$_Vector_val@U?$_Simple_types@Umulti_select_item@zgui@@@std@@@2@XZ 10009ca0 f i zgui.obj
 0001:00008ca0       ?_Getal@?$_Vector_alloc@U?$_Vec_base_types@VVector@@V?$allocator@VVector@@@std@@@std@@@std@@QBEABV?$allocator@VVector@@@2@XZ 10009ca0 f i Aimbot.obj
 0001:00008ca0       ?_Getal@?$_Vector_alloc@U?$_Vec_base_types@PAV?$ConfigValue@M@@V?$allocator@PAV?$ConfigValue@M@@@std@@@std@@@std@@QBEABV?$allocator@PAV?$ConfigValue@M@@@2@XZ 10009ca0 f i TGFCfg.obj
 0001:00008ca0       ?_Getal@?$_Vector_alloc@U?$_Vec_base_types@V?$_List_unchecked_iterator@V?$_List_val@U?$_List_simple_types@U?$pair@$$CBV?$basic_string@DU?$char_traits@D@std@@V?$allocator@D@2@@std@@V?$shared_ptr@UNode@NetvarTree@@@2@@std@@@std@@@std@@@std@@V?$allocator@V?$_List_unchecked_iterator@V?$_List_val@U?$_List_simple_types@U?$pair@$$CBV?$basic_string@DU?$char_traits@D@std@@V?$allocator@D@2@@std@@V?$shared_ptr@UNode@NetvarTree@@@2@@std@@@std@@@std@@@std@@@2@@std@@@std@@QAEAAV?$allocator@V?$_List_unchecked_iterator@V?$_List_val@U?$_List_simple_types@U?$pair@$$CBV?$basic_string@DU?$char_traits@D@std@@V?$allocator@D@2@@std@@V?$shared_ptr@UNode@NetvarTree@@@2@@std@@@std@@@std@@@std@@@2@XZ 10009ca0 f i Aimbot.obj
 0001:00008ca0       ?_Getal@?$_List_alloc@U?$_List_base_types@U?$pair@$$CBV?$basic_string@DU?$char_traits@D@std@@V?$allocator@D@2@@std@@V?$shared_ptr@UNode@NetvarTree@@@2@@std@@V?$allocator@U?$pair@$$CBV?$basic_string@DU?$char_traits@D@std@@V?$allocator@D@2@@std@@V?$shared_ptr@UNode@NetvarTree@@@2@@std@@@2@@std@@@std@@QAEAAV?$allocator@U?$_List_node@U?$pair@$$CBV?$basic_string@DU?$char_traits@D@std@@V?$allocator@D@2@@std@@V?$shared_ptr@UNode@NetvarTree@@@2@@std@@PAX@std@@@2@XZ 10009ca0 f i Aimbot.obj
 0001:00008ca0       ?_Myptr@?$_Unique_ptr_base@VNetvarTree@@U?$default_delete@VNetvarTree@@@std@@@std@@QAEAAPAVNetvarTree@@XZ 10009ca0 f i Hooks.obj
 0001:00008ca0       ?_Getal@?$_String_alloc@U?$_String_base_types@DV?$allocator@D@std@@@std@@@std@@QBEABV?$allocator@D@2@XZ 10009ca0 f i Aimbot.obj
 0001:00008ca0       ?_Getal@?$_Vector_alloc@U?$_Vec_base_types@Vtrace_info@@V?$allocator@Vtrace_info@@@std@@@std@@@std@@QBEABV?$allocator@Vtrace_info@@@2@XZ 10009ca0 f i Hooks.obj
 0001:00008ca0       ?_Get_data@?$_Vector_alloc@U?$_Vec_base_types@PBDV?$allocator@PBD@std@@@std@@@std@@QAEAAV?$_Vector_val@U?$_Simple_types@PBD@std@@@2@XZ 10009ca0 f i Hooks.obj
 0001:00008ca0       ?_Get_data@?$_Vector_alloc@U?$_Vec_base_types@Umulti_select_item@zgui@@V?$allocator@Umulti_select_item@zgui@@@std@@@std@@@std@@QBEABV?$_Vector_val@U?$_Simple_types@Umulti_select_item@zgui@@@std@@@2@XZ 10009ca0 f i zgui.obj
 0001:00008ca0       ?_Getal@?$_Deque_alloc@U?$_Deque_base_types@Uvec2@zgui@@V?$allocator@Uvec2@zgui@@@std@@@std@@@std@@QAEAAV?$allocator@Uvec2@zgui@@@2@XZ 10009ca0 f i zgui.obj
 0001:00008ca0       ?_Get_data@?$_Vector_alloc@U?$_Vec_base_types@V?$basic_string@DU?$char_traits@D@std@@V?$allocator@D@2@@std@@V?$allocator@V?$basic_string@DU?$char_traits@D@std@@V?$allocator@D@2@@std@@@2@@std@@@std@@QAEAAV?$_Vector_val@U?$_Simple_types@V?$basic_string@DU?$char_traits@D@std@@V?$allocator@D@2@@std@@@std@@@2@XZ 10009ca0 f i zgui.obj
 0001:00008ca0       ?_Get_data@?$_String_alloc@U?$_String_base_types@DV?$allocator@D@std@@@std@@@std@@QAEAAV?$_String_val@U?$_Simple_types@D@std@@@2@XZ 10009ca0 f i Aimbot.obj
 0001:00008ca0       ?_Get_data@?$_Deque_alloc@U?$_Deque_base_types@UPlayerRecords@@V?$allocator@UPlayerRecords@@@std@@@std@@@std@@QAEAAV?$_Deque_val@U?$_Deque_simple_types@UPlayerRecords@@@std@@@2@XZ 10009ca0 f i Aimbot.obj
 0001:00008ca0       ?_Get_data@?$_Vector_alloc@U?$_Vec_base_types@PAV?$ConfigValue@_N@@V?$allocator@PAV?$ConfigValue@_N@@@std@@@std@@@std@@QAEAAV?$_Vector_val@U?$_Simple_types@PAV?$ConfigValue@_N@@@std@@@2@XZ 10009ca0 f i TGFCfg.obj
 0001:00008ca0       ?get_deleter@?$_Unique_ptr_base@VVMTHook@@U?$default_delete@VVMTHook@@@std@@@std@@QAEAAU?$default_delete@VVMTHook@@@2@XZ 10009ca0 f i Hooks.obj
 0001:00008ca0       ?_Get_data@?$_Vector_alloc@U?$_Vec_base_types@VVector@@V?$allocator@VVector@@@std@@@std@@@std@@QAEAAV?$_Vector_val@U?$_Simple_types@VVector@@@std@@@2@XZ 10009ca0 f i Aimbot.obj
 0001:00008ca0       ?_Get_data@?$_Vector_alloc@U?$_Vec_base_types@PBDV?$allocator@PBD@std@@@std@@@std@@QBEABV?$_Vector_val@U?$_Simple_types@PBD@std@@@2@XZ 10009ca0 f i Hooks.obj
 0001:00008ca0       ?get_deleter@?$_Unique_ptr_base@VNetvarTree@@U?$default_delete@VNetvarTree@@@std@@@std@@QAEAAU?$default_delete@VNetvarTree@@@2@XZ 10009ca0 f i Hooks.obj
 0001:00008ca0       ?_Getal@?$_String_alloc@U?$_String_base_types@DV?$allocator@D@std@@@std@@@std@@QAEAAV?$allocator@D@2@XZ 10009ca0 f i Aimbot.obj
 0001:00008ca0       ?_Get_data@?$_Deque_alloc@U?$_Deque_base_types@Uvec2@zgui@@V?$allocator@Uvec2@zgui@@@std@@@std@@@std@@QAEAAV?$_Deque_val@U?$_Deque_simple_types@Uvec2@zgui@@@std@@@2@XZ 10009ca0 f i zgui.obj
 0001:00008ca0       ?_Getal@?$_Vector_alloc@U?$_Vec_base_types@UVertex_t@@V?$allocator@UVertex_t@@@std@@@std@@@std@@QBEABV?$allocator@UVertex_t@@@2@XZ 10009ca0 f i ESP.obj
 0001:00008ca0       ?_Myptr@?$_Unique_ptr_base@V_Facet_base@std@@U?$default_delete@V_Facet_base@std@@@2@@std@@QAEAAPAV_Facet_base@2@XZ 10009ca0 f i zgui.obj
 0001:00008ca0       ?_Get_data@?$_Vector_alloc@U?$_Vec_base_types@V?$basic_string@DU?$char_traits@D@std@@V?$allocator@D@2@@std@@V?$allocator@V?$basic_string@DU?$char_traits@D@std@@V?$allocator@D@2@@std@@@2@@std@@@std@@QBEABV?$_Vector_val@U?$_Simple_types@V?$basic_string@DU?$char_traits@D@std@@V?$allocator@D@2@@std@@@std@@@2@XZ 10009ca0 f i zgui.obj
 0001:00008ca0       ?_Myptr@?$_Unique_ptr_base@VNetvarTree@@U?$default_delete@VNetvarTree@@@std@@@std@@QBEABQAVNetvarTree@@XZ 10009ca0 f i Aimbot.obj
 0001:00008ca0       ?_Getal@?$_String_alloc@U?$_String_base_types@_WV?$allocator@_W@std@@@std@@@std@@QAEAAV?$allocator@_W@2@XZ 10009ca0 f i Hooks.obj
 0001:00008ca0       ?_Getal@?$_Vector_alloc@U?$_Vec_base_types@Uzgui_control_render_t@zgui@@V?$allocator@Uzgui_control_render_t@zgui@@@std@@@std@@@std@@QBEABV?$allocator@Uzgui_control_render_t@zgui@@@2@XZ 10009ca0 f i zgui.obj
 0001:00008ca0       ?_Getal@?$_Deque_alloc@U?$_Deque_base_types@Uvec2@zgui@@V?$allocator@Uvec2@zgui@@@std@@@std@@@std@@QBEABV?$allocator@Uvec2@zgui@@@2@XZ 10009ca0 f i zgui.obj
 0001:00008ca0       ?_Myptr@?$_Unique_ptr_base@V_Facet_base@std@@U?$default_delete@V_Facet_base@std@@@2@@std@@QBEABQAV_Facet_base@2@XZ 10009ca0 f i zgui.obj
 0001:00008ca0       ?_Getal@?$_String_alloc@U?$_String_base_types@_WV?$allocator@_W@std@@@std@@@std@@QBEABV?$allocator@_W@2@XZ 10009ca0 f i Hooks.obj
 0001:00008ca0       ?get_deleter@?$_Unique_ptr_base@IU?$default_delete@$$BY0A@I@std@@@std@@QAEAAU?$default_delete@$$BY0A@I@2@XZ 10009ca0 f i Hooks.obj
 0001:00008ca0       ?_Getal@?$_Vector_alloc@U?$_Vec_base_types@UHitMarker_t@@V?$allocator@UHitMarker_t@@@std@@@std@@@std@@QAEAAV?$allocator@UHitMarker_t@@@2@XZ 10009ca0 f i Hooks.obj
 0001:00008ca0       ?_Getal@?$_Vector_alloc@U?$_Vec_base_types@PBDV?$allocator@PBD@std@@@std@@@std@@QAEAAV?$allocator@PBD@2@XZ 10009ca0 f i Hooks.obj
 0001:00008ca0       ?_Myptr@?$_Unique_ptr_base@VVMTHook@@U?$default_delete@VVMTHook@@@std@@@std@@QBEABQAVVMTHook@@XZ 10009ca0 f i Chams.obj
 0001:00008ca0       ?_Getal@?$_Vector_alloc@U?$_Vec_base_types@Uzgui_control_render_t@zgui@@V?$allocator@Uzgui_control_render_t@zgui@@@std@@@std@@@std@@QAEAAV?$allocator@Uzgui_control_render_t@zgui@@@2@XZ 10009ca0 f i zgui.obj
 0001:00008ca0       ?_Getal@?$_Vector_alloc@U?$_Vec_base_types@V?$basic_string@DU?$char_traits@D@std@@V?$allocator@D@2@@std@@V?$allocator@V?$basic_string@DU?$char_traits@D@std@@V?$allocator@D@2@@std@@@2@@std@@@std@@QAEAAV?$allocator@V?$basic_string@DU?$char_traits@D@std@@V?$allocator@D@2@@std@@@2@XZ 10009ca0 f i zgui.obj
 0001:00008ca0       ?_Myptr@?$_Unique_ptr_base@IU?$default_delete@$$BY0A@I@std@@@std@@QBEABQAIXZ 10009ca0 f i Hooks.obj
 0001:00008ca0       ?_Getal@?$_Vector_alloc@U?$_Vec_base_types@PAV?$ConfigValue@M@@V?$allocator@PAV?$ConfigValue@M@@@std@@@std@@@std@@QAEAAV?$allocator@PAV?$ConfigValue@M@@@2@XZ 10009ca0 f i TGFCfg.obj
 0001:00008ca0       ?_Getal@?$_Vector_alloc@U?$_Vec_base_types@UHitMarker_t@@V?$allocator@UHitMarker_t@@@std@@@std@@@std@@QBEABV?$allocator@UHitMarker_t@@@2@XZ 10009ca0 f i Hooks.obj
 0001:00008ca0       ?_Get_data@?$_Vector_alloc@U?$_Vec_base_types@V?$_List_unchecked_iterator@V?$_List_val@U?$_List_simple_types@U?$pair@$$CBV?$basic_string@DU?$char_traits@D@std@@V?$allocator@D@2@@std@@V?$shared_ptr@UNode@NetvarTree@@@2@@std@@@std@@@std@@@std@@V?$allocator@V?$_List_unchecked_iterator@V?$_List_val@U?$_List_simple_types@U?$pair@$$CBV?$basic_string@DU?$char_traits@D@std@@V?$allocator@D@2@@std@@V?$shared_ptr@UNode@NetvarTree@@@2@@std@@@std@@@std@@@std@@@2@@std@@@std@@QAEAAV?$_Vector_val@U?$_Simple_types@V?$_List_unchecked_iterator@V?$_List_val@U?$_List_simple_types@U?$pair@$$CBV?$basic_string@DU?$char_traits@D@std@@V?$allocator@D@2@@std@@V?$shared_ptr@UNode@NetvarTree@@@2@@std@@@std@@@std@@@std@@@std@@@2@XZ 10009ca0 f i Aimbot.obj
 0001:00008ca0       ?_Get_data@?$_Vector_alloc@U?$_Vec_base_types@VVector@@V?$allocator@VVector@@@std@@@std@@@std@@QBEABV?$_Vector_val@U?$_Simple_types@VVector@@@std@@@2@XZ 10009ca0 f i Aimbot.obj
 0001:00008ca0       ?_Myptr@?$_Unique_ptr_base@VShadowVTManager@@U?$default_delete@VShadowVTManager@@@std@@@std@@QBEABQAVShadowVTManager@@XZ 10009ca0 f i Hooks.obj
 0001:00008ca0       ?_Myptr@?$_Unique_ptr_base@VVMTHook@@U?$default_delete@VVMTHook@@@std@@@std@@QAEAAPAVVMTHook@@XZ 10009ca0 f i Hooks.obj
 0001:00008ca0       ?_Get_data@?$_Vector_alloc@U?$_Vec_base_types@UVertex_t@@V?$allocator@UVertex_t@@@std@@@std@@@std@@QBEABV?$_Vector_val@U?$_Simple_types@UVertex_t@@@std@@@2@XZ 10009ca0 f i ESP.obj
 0001:00008cc0       ?_Get_max_bucket_size@?$_Uhash_compare@V?$basic_string@DU?$char_traits@D@std@@V?$allocator@D@2@@std@@U?$hash@V?$basic_string@DU?$char_traits@D@std@@V?$allocator@D@2@@std@@@2@U?$equal_to@V?$basic_string@DU?$char_traits@D@std@@V?$allocator@D@2@@std@@@2@@std@@QAEAAMXZ 10009cc0 f i NetvarManager.obj
 0001:00008cc0       ?_Getkeyeq@?$_Uhash_compare@V?$basic_string@DU?$char_traits@D@std@@V?$allocator@D@2@@std@@U?$hash@V?$basic_string@DU?$char_traits@D@std@@V?$allocator@D@2@@std@@@2@U?$equal_to@V?$basic_string@DU?$char_traits@D@std@@V?$allocator@D@2@@std@@@2@@std@@QBEABU?$equal_to@V?$basic_string@DU?$char_traits@D@std@@V?$allocator@D@2@@std@@@2@XZ 10009cc0 f i Aimbot.obj
 0001:00008cc0       ?_Get_max_bucket_size@?$_Uhash_compare@V?$basic_string@DU?$char_traits@D@std@@V?$allocator@D@2@@std@@U?$hash@V?$basic_string@DU?$char_traits@D@std@@V?$allocator@D@2@@std@@@2@U?$equal_to@V?$basic_string@DU?$char_traits@D@std@@V?$allocator@D@2@@std@@@2@@std@@QBEABMXZ 10009cc0 f i Aimbot.obj
 0001:00008ce0       ?_Getblock@?$_Deque_val@U?$_Deque_simple_types@UPlayerRecords@@@std@@@std@@QBEII@Z 10009ce0 f i Aimbot.obj
 0001:00008d00       ?GetTraceType@C_TraceFilter@@UBE?AW4TraceType_t@@XZ 10009d00 f i Autowall.obj
 0001:00008d00       ?_Getcont@_Iterator_base0@std@@QBEPBU_Container_base0@2@XZ 10009d00 f i Aimbot.obj
 0001:00008d00       ?sync@?$basic_streambuf@DU?$char_traits@D@std@@@std@@MAEHXZ 10009d00 f i zgui.obj
 0001:00008d10       ?_Getcont@_Iterator_base12@std@@QBEPBU_Container_base12@2@XZ 10009d10 f i Aimbot.obj
 0001:00008d40       ?_Has_unused_capacity@?$vector@VVector@@V?$allocator@VVector@@@std@@@std@@ABE_NXZ 10009d40 f i Aimbot.obj
 0001:00008d40       ?_Has_unused_capacity@?$vector@PAV?$ConfigValue@H@@V?$allocator@PAV?$ConfigValue@H@@@std@@@std@@ABE_NXZ 10009d40 f i TGFCfg.obj
 0001:00008d40       ?_Has_unused_capacity@?$vector@Uzgui_control_render_t@zgui@@V?$allocator@Uzgui_control_render_t@zgui@@@std@@@std@@ABE_NXZ 10009d40 f i zgui.obj
 0001:00008d40       ?_Has_unused_capacity@?$vector@Vtrace_info@@V?$allocator@Vtrace_info@@@std@@@std@@ABE_NXZ 10009d40 f i Hooks.obj
 0001:00008d40       ?_Has_unused_capacity@?$vector@UVertex_t@@V?$allocator@UVertex_t@@@std@@@std@@ABE_NXZ 10009d40 f i ESP.obj
 0001:00008d40       ?_Has_unused_capacity@?$vector@UHitMarker_t@@V?$allocator@UHitMarker_t@@@std@@@std@@ABE_NXZ 10009d40 f i Hooks.obj
 0001:00008d40       ?_Has_unused_capacity@?$vector@PAV?$ConfigValue@M@@V?$allocator@PAV?$ConfigValue@M@@@std@@@std@@ABE_NXZ 10009d40 f i TGFCfg.obj
 0001:00008d40       ?_Has_unused_capacity@?$vector@PAV?$ConfigValue@_N@@V?$allocator@PAV?$ConfigValue@_N@@@std@@@std@@ABE_NXZ 10009d40 f i TGFCfg.obj
 0001:00008d40       ?_Has_unused_capacity@?$vector@V?$basic_string@DU?$char_traits@D@std@@V?$allocator@D@2@@std@@V?$allocator@V?$basic_string@DU?$char_traits@D@std@@V?$allocator@D@2@@std@@@2@@std@@ABE_NXZ 10009d40 f i zgui.obj
 0001:00008d40       ?_Has_unused_capacity@?$vector@HV?$allocator@H@std@@@std@@ABE_NXZ 10009d40 f i Aimbot.obj
 0001:00008d80       ?_Hashval@?$_Hash@V?$_Umap_traits@V?$basic_string@DU?$char_traits@D@std@@V?$allocator@D@2@@std@@V?$shared_ptr@UNode@NetvarTree@@@2@V?$_Uhash_compare@V?$basic_string@DU?$char_traits@D@std@@V?$allocator@D@2@@std@@U?$hash@V?$basic_string@DU?$char_traits@D@std@@V?$allocator@D@2@@std@@@2@U?$equal_to@V?$basic_string@DU?$char_traits@D@std@@V?$allocator@D@2@@std@@@2@@2@V?$allocator@U?$pair@$$CBV?$basic_string@DU?$char_traits@D@std@@V?$allocator@D@2@@std@@V?$shared_ptr@UNode@NetvarTree@@@2@@std@@@2@$0A@@std@@@std@@IBEIABV?$basic_string@DU?$char_traits@D@std@@V?$allocator@D@2@@2@@Z 10009d80 f i Aimbot.obj
 0001:00008db0       ?_Incsize@?$list@U?$pair@$$CBV?$basic_string@DU?$char_traits@D@std@@V?$allocator@D@2@@std@@V?$shared_ptr@UNode@NetvarTree@@@2@@std@@V?$allocator@U?$pair@$$CBV?$basic_string@DU?$char_traits@D@std@@V?$allocator@D@2@@std@@V?$shared_ptr@UNode@NetvarTree@@@2@@std@@@2@@std@@QAEXI@Z 10009db0 f i Aimbot.obj
 0001:00008e00       ?_Init@?$_Hash@V?$_Umap_traits@V?$basic_string@DU?$char_traits@D@std@@V?$allocator@D@2@@std@@V?$shared_ptr@UNode@NetvarTree@@@2@V?$_Uhash_compare@V?$basic_string@DU?$char_traits@D@std@@V?$allocator@D@2@@std@@U?$hash@V?$basic_string@DU?$char_traits@D@std@@V?$allocator@D@2@@std@@@2@U?$equal_to@V?$basic_string@DU?$char_traits@D@std@@V?$allocator@D@2@@std@@@2@@2@V?$allocator@U?$pair@$$CBV?$basic_string@DU?$char_traits@D@std@@V?$allocator@D@2@@std@@V?$shared_ptr@UNode@NetvarTree@@@2@@std@@@2@$0A@@std@@@std@@IAEXI@Z 10009e00 f i Aimbot.obj
 0001:00008e60       ?_Insert_bucket@?$_Hash@V?$_Umap_traits@V?$basic_string@DU?$char_traits@D@std@@V?$allocator@D@2@@std@@V?$shared_ptr@UNode@NetvarTree@@@2@V?$_Uhash_compare@V?$basic_string@DU?$char_traits@D@std@@V?$allocator@D@2@@std@@U?$hash@V?$basic_string@DU?$char_traits@D@std@@V?$allocator@D@2@@std@@@2@U?$equal_to@V?$basic_string@DU?$char_traits@D@std@@V?$allocator@D@2@@std@@@2@@2@V?$allocator@U?$pair@$$CBV?$basic_string@DU?$char_traits@D@std@@V?$allocator@D@2@@std@@V?$shared_ptr@UNode@NetvarTree@@@2@@std@@@2@$0A@@std@@@std@@IAEXV?$_List_unchecked_iterator@V?$_List_val@U?$_List_simple_types@U?$pair@$$CBV?$basic_string@DU?$char_traits@D@std@@V?$allocator@D@2@@std@@V?$shared_ptr@UNode@NetvarTree@@@2@@std@@@std@@@std@@@2@0I@Z 10009e60 f i Aimbot.obj
 0001:00008f50       ?_Large_string_engaged@?$_String_val@U?$_Simple_types@D@std@@@std@@QBE_NXZ 10009f50 f i Aimbot.obj
 0001:00008f80       ?_Make_iter@?$_Hash@V?$_Umap_traits@V?$basic_string@DU?$char_traits@D@std@@V?$allocator@D@2@@std@@V?$shared_ptr@UNode@NetvarTree@@@2@V?$_Uhash_compare@V?$basic_string@DU?$char_traits@D@std@@V?$allocator@D@2@@std@@U?$hash@V?$basic_string@DU?$char_traits@D@std@@V?$allocator@D@2@@std@@@2@U?$equal_to@V?$basic_string@DU?$char_traits@D@std@@V?$allocator@D@2@@std@@@2@@2@V?$allocator@U?$pair@$$CBV?$basic_string@DU?$char_traits@D@std@@V?$allocator@D@2@@std@@V?$shared_ptr@UNode@NetvarTree@@@2@@std@@@2@$0A@@std@@@std@@QBE?AV?$_List_iterator@V?$_List_val@U?$_List_simple_types@U?$pair@$$CBV?$basic_string@DU?$char_traits@D@std@@V?$allocator@D@2@@std@@V?$shared_ptr@UNode@NetvarTree@@@2@@std@@@std@@@std@@@2@V?$_List_const_iterator@V?$_List_val@U?$_List_simple_types@U?$pair@$$CBV?$basic_string@DU?$char_traits@D@std@@V?$allocator@D@2@@std@@V?$shared_ptr@UNode@NetvarTree@@@2@@std@@@std@@@std@@@2@@Z 10009f80 f i Aimbot.obj
 0001:00008fb0       ?_Make_iter@?$_Hash@V?$_Umap_traits@V?$basic_string@DU?$char_traits@D@std@@V?$allocator@D@2@@std@@V?$shared_ptr@UNode@NetvarTree@@@2@V?$_Uhash_compare@V?$basic_string@DU?$char_traits@D@std@@V?$allocator@D@2@@std@@U?$hash@V?$basic_string@DU?$char_traits@D@std@@V?$allocator@D@2@@std@@@2@U?$equal_to@V?$basic_string@DU?$char_traits@D@std@@V?$allocator@D@2@@std@@@2@@2@V?$allocator@U?$pair@$$CBV?$basic_string@DU?$char_traits@D@std@@V?$allocator@D@2@@std@@V?$shared_ptr@UNode@NetvarTree@@@2@@std@@@2@$0A@@std@@@std@@QBE?AV?$_List_iterator@V?$_List_val@U?$_List_simple_types@U?$pair@$$CBV?$basic_string@DU?$char_traits@D@std@@V?$allocator@D@2@@std@@V?$shared_ptr@UNode@NetvarTree@@@2@@std@@@std@@@std@@@2@V?$_List_unchecked_const_iterator@V?$_List_val@U?$_List_simple_types@U?$pair@$$CBV?$basic_string@DU?$char_traits@D@std@@V?$allocator@D@2@@std@@V?$shared_ptr@UNode@NetvarTree@@@2@@std@@@std@@@std@@U_Iterator_base0@2@@2@@Z 10009fb0 f i Aimbot.obj
 0001:00008fe0       ?_Make_iter@?$list@U?$pair@$$CBV?$basic_string@DU?$char_traits@D@std@@V?$allocator@D@2@@std@@V?$shared_ptr@UNode@NetvarTree@@@2@@std@@V?$allocator@U?$pair@$$CBV?$basic_string@DU?$char_traits@D@std@@V?$allocator@D@2@@std@@V?$shared_ptr@UNode@NetvarTree@@@2@@std@@@2@@std@@QBE?AV?$_List_iterator@V?$_List_val@U?$_List_simple_types@U?$pair@$$CBV?$basic_string@DU?$char_traits@D@std@@V?$allocator@D@2@@std@@V?$shared_ptr@UNode@NetvarTree@@@2@@std@@@std@@@std@@@2@V?$_List_const_iterator@V?$_List_val@U?$_List_simple_types@U?$pair@$$CBV?$basic_string@DU?$char_traits@D@std@@V?$allocator@D@2@@std@@V?$shared_ptr@UNode@NetvarTree@@@2@@std@@@std@@@std@@@2@@Z 10009fe0 f i Aimbot.obj
 0001:00009040       ?_Make_iter@?$list@U?$pair@$$CBV?$basic_string@DU?$char_traits@D@std@@V?$allocator@D@2@@std@@V?$shared_ptr@UNode@NetvarTree@@@2@@std@@V?$allocator@U?$pair@$$CBV?$basic_string@DU?$char_traits@D@std@@V?$allocator@D@2@@std@@V?$shared_ptr@UNode@NetvarTree@@@2@@std@@@2@@std@@QBE?AV?$_List_iterator@V?$_List_val@U?$_List_simple_types@U?$pair@$$CBV?$basic_string@DU?$char_traits@D@std@@V?$allocator@D@2@@std@@V?$shared_ptr@UNode@NetvarTree@@@2@@std@@@std@@@std@@@2@V?$_List_unchecked_const_iterator@V?$_List_val@U?$_List_simple_types@U?$pair@$$CBV?$basic_string@DU?$char_traits@D@std@@V?$allocator@D@2@@std@@V?$shared_ptr@UNode@NetvarTree@@@2@@std@@@std@@@std@@U_Iterator_base0@2@@2@@Z 1000a040 f i Aimbot.obj
 0001:00009070       ?_Max_bucket_size@?$_Hash@V?$_Umap_traits@V?$basic_string@DU?$char_traits@D@std@@V?$allocator@D@2@@std@@V?$shared_ptr@UNode@NetvarTree@@@2@V?$_Uhash_compare@V?$basic_string@DU?$char_traits@D@std@@V?$allocator@D@2@@std@@U?$hash@V?$basic_string@DU?$char_traits@D@std@@V?$allocator@D@2@@std@@@2@U?$equal_to@V?$basic_string@DU?$char_traits@D@std@@V?$allocator@D@2@@std@@@2@@2@V?$allocator@U?$pair@$$CBV?$basic_string@DU?$char_traits@D@std@@V?$allocator@D@2@@std@@V?$shared_ptr@UNode@NetvarTree@@@2@@std@@@2@$0A@@std@@@std@@IBEABMXZ 1000a070 f i Aimbot.obj
 0001:00009070       ?_Max_bucket_size@?$_Hash@V?$_Umap_traits@V?$basic_string@DU?$char_traits@D@std@@V?$allocator@D@2@@std@@V?$shared_ptr@UNode@NetvarTree@@@2@V?$_Uhash_compare@V?$basic_string@DU?$char_traits@D@std@@V?$allocator@D@2@@std@@U?$hash@V?$basic_string@DU?$char_traits@D@std@@V?$allocator@D@2@@std@@@2@U?$equal_to@V?$basic_string@DU?$char_traits@D@std@@V?$allocator@D@2@@std@@@2@@2@V?$allocator@U?$pair@$$CBV?$basic_string@DU?$char_traits@D@std@@V?$allocator@D@2@@std@@V?$shared_ptr@UNode@NetvarTree@@@2@@std@@@2@$0A@@std@@@std@@IAEAAMXZ 1000a070 f i NetvarManager.obj
 0001:00009090       ?_Move_from@?$vector@V?$basic_string@DU?$char_traits@D@std@@V?$allocator@D@2@@std@@V?$allocator@V?$basic_string@DU?$char_traits@D@std@@V?$allocator@D@2@@std@@@2@@std@@AAEX$$QAV12@U?$integral_constant@_N$00@2@@Z 1000a090 f i zgui.obj
 0001:00009090       ?_Move_from@?$vector@VVector@@V?$allocator@VVector@@@std@@@std@@AAEX$$QAV12@U?$integral_constant@_N$00@2@@Z 1000a090 f i Aimbot.obj
 0001:00009150       ?_Myend@?$_Vector_alloc@U?$_Vec_base_types@PAV?$ConfigValue@H@@V?$allocator@PAV?$ConfigValue@H@@@std@@@std@@@std@@QBEABQAPAV?$ConfigValue@H@@XZ 1000a150 f i TGFCfg.obj
 0001:00009150       ?_Myend@?$_Vector_alloc@U?$_Vec_base_types@UHitMarker_t@@V?$allocator@UHitMarker_t@@@std@@@std@@@std@@QAEAAPAUHitMarker_t@@XZ 1000a150 f i Hooks.obj
 0001:00009150       ?_Myend@?$_Vector_alloc@U?$_Vec_base_types@UHitMarker_t@@V?$allocator@UHitMarker_t@@@std@@@std@@@std@@QBEABQAUHitMarker_t@@XZ 1000a150 f i Hooks.obj
 0001:00009150       ?_Myend@?$_Vector_alloc@U?$_Vec_base_types@VVector@@V?$allocator@VVector@@@std@@@std@@@std@@QBEABQAVVector@@XZ 1000a150 f i Aimbot.obj
 0001:00009150       ?_Myend@?$_Vector_alloc@U?$_Vec_base_types@Umulti_select_item@zgui@@V?$allocator@Umulti_select_item@zgui@@@std@@@std@@@std@@QBEABQAUmulti_select_item@zgui@@XZ 1000a150 f i zgui.obj
 0001:00009150       ?_Myend@?$_Vector_alloc@U?$_Vec_base_types@V?$basic_string@DU?$char_traits@D@std@@V?$allocator@D@2@@std@@V?$allocator@V?$basic_string@DU?$char_traits@D@std@@V?$allocator@D@2@@std@@@2@@std@@@std@@QAEAAPAV?$basic_string@DU?$char_traits@D@std@@V?$allocator@D@2@@2@XZ 1000a150 f i zgui.obj
 0001:00009150       ?_Myend@?$_Vector_alloc@U?$_Vec_base_types@PBDV?$allocator@PBD@std@@@std@@@std@@QAEAAPAPBDXZ 1000a150 f i Hooks.obj
 0001:00009150       ?_Mapsize@?$_Deque_alloc@U?$_Deque_base_types@UPlayerRecords@@V?$allocator@UPlayerRecords@@@std@@@std@@@std@@QAEAAIXZ 1000a150 f i LagComp.obj
 0001:00009150       ?_Myend@?$_Vector_alloc@U?$_Vec_base_types@Vtrace_info@@V?$allocator@Vtrace_info@@@std@@@std@@@std@@QBEABQAVtrace_info@@XZ 1000a150 f i Hooks.obj
 0001:00009150       ?_Myend@?$_Vector_alloc@U?$_Vec_base_types@VVector@@V?$allocator@VVector@@@std@@@std@@@std@@QAEAAPAVVector@@XZ 1000a150 f i Aimbot.obj
 0001:00009150       ?_Myend@?$_Vector_alloc@U?$_Vec_base_types@V?$_List_unchecked_iterator@V?$_List_val@U?$_List_simple_types@U?$pair@$$CBV?$basic_string@DU?$char_traits@D@std@@V?$allocator@D@2@@std@@V?$shared_ptr@UNode@NetvarTree@@@2@@std@@@std@@@std@@@std@@V?$allocator@V?$_List_unchecked_iterator@V?$_List_val@U?$_List_simple_types@U?$pair@$$CBV?$basic_string@DU?$char_traits@D@std@@V?$allocator@D@2@@std@@V?$shared_ptr@UNode@NetvarTree@@@2@@std@@@std@@@std@@@std@@@2@@std@@@std@@QBEABQAV?$_List_unchecked_iterator@V?$_List_val@U?$_List_simple_types@U?$pair@$$CBV?$basic_string@DU?$char_traits@D@std@@V?$allocator@D@2@@std@@V?$shared_ptr@UNode@NetvarTree@@@2@@std@@@std@@@std@@@2@XZ 1000a150 f i Aimbot.obj
 0001:00009150       ?_Myend@?$_Vector_alloc@U?$_Vec_base_types@V?$_List_unchecked_iterator@V?$_List_val@U?$_List_simple_types@U?$pair@$$CBV?$basic_string@DU?$char_traits@D@std@@V?$allocator@D@2@@std@@V?$shared_ptr@UNode@NetvarTree@@@2@@std@@@std@@@std@@@std@@V?$allocator@V?$_List_unchecked_iterator@V?$_List_val@U?$_List_simple_types@U?$pair@$$CBV?$basic_string@DU?$char_traits@D@std@@V?$allocator@D@2@@std@@V?$shared_ptr@UNode@NetvarTree@@@2@@std@@@std@@@std@@@std@@@2@@std@@@std@@QAEAAPAV?$_List_unchecked_iterator@V?$_List_val@U?$_List_simple_types@U?$pair@$$CBV?$basic_string@DU?$char_traits@D@std@@V?$allocator@D@2@@std@@V?$shared_ptr@UNode@NetvarTree@@@2@@std@@@std@@@std@@@2@XZ 1000a150 f i Aimbot.obj
 0001:00009150       ?_Mapsize@?$_Deque_alloc@U?$_Deque_base_types@Uvec2@zgui@@V?$allocator@Uvec2@zgui@@@std@@@std@@@std@@QAEAAIXZ 1000a150 f i zgui.obj
 0001:00009150       ?_Myend@?$_Vector_alloc@U?$_Vec_base_types@UVertex_t@@V?$allocator@UVertex_t@@@std@@@std@@@std@@QAEAAPAUVertex_t@@XZ 1000a150 f i ESP.obj
 0001:00009150       ?_Myend@?$_Vector_alloc@U?$_Vec_base_types@Umulti_select_item@zgui@@V?$allocator@Umulti_select_item@zgui@@@std@@@std@@@std@@QAEAAPAUmulti_select_item@zgui@@XZ 1000a150 f i zgui.obj
 0001:00009150       ?_Myend@?$_Vector_alloc@U?$_Vec_base_types@PAV?$ConfigValue@M@@V?$allocator@PAV?$ConfigValue@M@@@std@@@std@@@std@@QAEAAPAPAV?$ConfigValue@M@@XZ 1000a150 f i TGFCfg.obj
 0001:00009150       ?_Myend@?$_Vector_alloc@U?$_Vec_base_types@PAV?$ConfigValue@M@@V?$allocator@PAV?$ConfigValue@M@@@std@@@std@@@std@@QBEABQAPAV?$ConfigValue@M@@XZ 1000a150 f i TGFCfg.obj
 0001:00009150       ?_Myend@?$_Vector_alloc@U?$_Vec_base_types@PAVIMaterial@@V?$allocator@PAVIMaterial@@@std@@@std@@@std@@QBEABQAPAVIMaterial@@XZ 1000a150 f i Chams.obj
 0001:00009150       ?_Myend@?$_Vector_alloc@U?$_Vec_base_types@PAVIMaterial@@V?$allocator@PAVIMaterial@@@std@@@std@@@std@@QAEAAPAPAVIMaterial@@XZ 1000a150 f i Chams.obj
 0001:00009150       ?_Myend@?$_Vector_alloc@U?$_Vec_base_types@Vtrace_info@@V?$allocator@Vtrace_info@@@std@@@std@@@std@@QAEAAPAVtrace_info@@XZ 1000a150 f i Hooks.obj
 0001:00009150       ?_Myend@?$_Vector_alloc@U?$_Vec_base_types@Uzgui_control_render_t@zgui@@V?$allocator@Uzgui_control_render_t@zgui@@@std@@@std@@@std@@QBEABQAUzgui_control_render_t@zgui@@XZ 1000a150 f i zgui.obj
 0001:00009150       ?_Myend@?$_Vector_alloc@U?$_Vec_base_types@Uzgui_control_render_t@zgui@@V?$allocator@Uzgui_control_render_t@zgui@@@std@@@std@@@std@@QAEAAPAUzgui_control_render_t@zgui@@XZ 1000a150 f i zgui.obj
 0001:00009150       ?_Myend@?$_Vector_alloc@U?$_Vec_base_types@HV?$allocator@H@std@@@std@@@std@@QAEAAPAHXZ 1000a150 f i Aimbot.obj
 0001:00009150       ?_Myend@?$_Vector_alloc@U?$_Vec_base_types@V?$basic_string@DU?$char_traits@D@std@@V?$allocator@D@2@@std@@V?$allocator@V?$basic_string@DU?$char_traits@D@std@@V?$allocator@D@2@@std@@@2@@std@@@std@@QBEABQAV?$basic_string@DU?$char_traits@D@std@@V?$allocator@D@2@@2@XZ 1000a150 f i zgui.obj
 0001:00009150       ?_Myend@?$_Vector_alloc@U?$_Vec_base_types@UVertex_t@@V?$allocator@UVertex_t@@@std@@@std@@@std@@QBEABQAUVertex_t@@XZ 1000a150 f i ESP.obj
 0001:00009150       ?_Myend@?$_Vector_alloc@U?$_Vec_base_types@HV?$allocator@H@std@@@std@@@std@@QBEABQAHXZ 1000a150 f i Aimbot.obj
 0001:00009150       ?_Myend@?$_Vector_alloc@U?$_Vec_base_types@PAV?$ConfigValue@_N@@V?$allocator@PAV?$ConfigValue@_N@@@std@@@std@@@std@@QAEAAPAPAV?$ConfigValue@_N@@XZ 1000a150 f i TGFCfg.obj
 0001:00009150       ?_Myend@?$_Vector_alloc@U?$_Vec_base_types@PBDV?$allocator@PBD@std@@@std@@@std@@QBEABQAPBDXZ 1000a150 f i Hooks.obj
 0001:00009150       ?_Myend@?$_Vector_alloc@U?$_Vec_base_types@PAV?$ConfigValue@_N@@V?$allocator@PAV?$ConfigValue@_N@@@std@@@std@@@std@@QBEABQAPAV?$ConfigValue@_N@@XZ 1000a150 f i TGFCfg.obj
 0001:00009150       ?_Myend@?$_Vector_alloc@U?$_Vec_base_types@PAV?$ConfigValue@H@@V?$allocator@PAV?$ConfigValue@H@@@std@@@std@@@std@@QAEAAPAPAV?$ConfigValue@H@@XZ 1000a150 f i TGFCfg.obj
 0001:00009170       ?_Myfirst@?$_Vector_alloc@U?$_Vec_base_types@Uzgui_control_render_t@zgui@@V?$allocator@Uzgui_control_render_t@zgui@@@std@@@std@@@std@@QAEAAPAUzgui_control_render_t@zgui@@XZ 1000a170 f i zgui.obj
 0001:00009170       ?_Myfirst@?$_Vector_alloc@U?$_Vec_base_types@HV?$allocator@H@std@@@std@@@std@@QAEAAPAHXZ 1000a170 f i Aimbot.obj
 0001:00009170       ?_Myfirst@?$_Vector_alloc@U?$_Vec_base_types@Vtrace_info@@V?$allocator@Vtrace_info@@@std@@@std@@@std@@QBEABQAVtrace_info@@XZ 1000a170 f i Hooks.obj
 0001:00009170       ?_Myfirst@?$_Vector_alloc@U?$_Vec_base_types@VVector@@V?$allocator@VVector@@@std@@@std@@@std@@QAEAAPAVVector@@XZ 1000a170 f i Aimbot.obj
 0001:00009170       ?_Myfirst@?$_Vector_alloc@U?$_Vec_base_types@V?$basic_string@DU?$char_traits@D@std@@V?$allocator@D@2@@std@@V?$allocator@V?$basic_string@DU?$char_traits@D@std@@V?$allocator@D@2@@std@@@2@@std@@@std@@QAEAAPAV?$basic_string@DU?$char_traits@D@std@@V?$allocator@D@2@@2@XZ 1000a170 f i zgui.obj
 0001:00009170       ?_Myfirst@?$_Vector_alloc@U?$_Vec_base_types@PBDV?$allocator@PBD@std@@@std@@@std@@QBEABQAPBDXZ 1000a170 f i Hooks.obj
 0001:00009170       ?_Myhead@?$_List_alloc@U?$_List_base_types@U?$pair@$$CBV?$basic_string@DU?$char_traits@D@std@@V?$allocator@D@2@@std@@V?$shared_ptr@UNode@NetvarTree@@@2@@std@@V?$allocator@U?$pair@$$CBV?$basic_string@DU?$char_traits@D@std@@V?$allocator@D@2@@std@@V?$shared_ptr@UNode@NetvarTree@@@2@@std@@@2@@std@@@std@@QAEAAPAU?$_List_node@U?$pair@$$CBV?$basic_string@DU?$char_traits@D@std@@V?$allocator@D@2@@std@@V?$shared_ptr@UNode@NetvarTree@@@2@@std@@PAX@2@XZ 1000a170 f i Aimbot.obj
 0001:00009170       ?_Myfirst@?$_Vector_alloc@U?$_Vec_base_types@PAV?$ConfigValue@M@@V?$allocator@PAV?$ConfigValue@M@@@std@@@std@@@std@@QBEABQAPAV?$ConfigValue@M@@XZ 1000a170 f i TGFCfg.obj
 0001:00009170       ?_Myfirst@?$_Vector_alloc@U?$_Vec_base_types@UHitMarker_t@@V?$allocator@UHitMarker_t@@@std@@@std@@@std@@QAEAAPAUHitMarker_t@@XZ 1000a170 f i Hooks.obj
 0001:00009170       ?_Myfirst@?$_Vector_alloc@U?$_Vec_base_types@VVector@@V?$allocator@VVector@@@std@@@std@@@std@@QBEABQAVVector@@XZ 1000a170 f i Aimbot.obj
 0001:00009170       ?_Myfirst@?$_Vector_alloc@U?$_Vec_base_types@Umulti_select_item@zgui@@V?$allocator@Umulti_select_item@zgui@@@std@@@std@@@std@@QBEABQAUmulti_select_item@zgui@@XZ 1000a170 f i zgui.obj
 0001:00009170       ?_Myfirst@?$_Vector_alloc@U?$_Vec_base_types@PAV?$ConfigValue@H@@V?$allocator@PAV?$ConfigValue@H@@@std@@@std@@@std@@QBEABQAPAV?$ConfigValue@H@@XZ 1000a170 f i TGFCfg.obj
 0001:00009170       ?_Myfirst@?$_Vector_alloc@U?$_Vec_base_types@V?$basic_string@DU?$char_traits@D@std@@V?$allocator@D@2@@std@@V?$allocator@V?$basic_string@DU?$char_traits@D@std@@V?$allocator@D@2@@std@@@2@@std@@@std@@QBEABQAV?$basic_string@DU?$char_traits@D@std@@V?$allocator@D@2@@2@XZ 1000a170 f i zgui.obj
 0001:00009170       ?_Myfirst@?$_Vector_alloc@U?$_Vec_base_types@UVertex_t@@V?$allocator@UVertex_t@@@std@@@std@@@std@@QAEAAPAUVertex_t@@XZ 1000a170 f i ESP.obj
 0001:00009170       ?_Myfirst@?$_Vector_alloc@U?$_Vec_base_types@PAVIMaterial@@V?$allocator@PAVIMaterial@@@std@@@std@@@std@@QBEABQAPAVIMaterial@@XZ 1000a170 f i Chams.obj
 0001:00009170       ?_Myfirst@?$_Vector_alloc@U?$_Vec_base_types@V?$_List_unchecked_iterator@V?$_List_val@U?$_List_simple_types@U?$pair@$$CBV?$basic_string@DU?$char_traits@D@std@@V?$allocator@D@2@@std@@V?$shared_ptr@UNode@NetvarTree@@@2@@std@@@std@@@std@@@std@@V?$allocator@V?$_List_unchecked_iterator@V?$_List_val@U?$_List_simple_types@U?$pair@$$CBV?$basic_string@DU?$char_traits@D@std@@V?$allocator@D@2@@std@@V?$shared_ptr@UNode@NetvarTree@@@2@@std@@@std@@@std@@@std@@@2@@std@@@std@@QBEABQAV?$_List_unchecked_iterator@V?$_List_val@U?$_List_simple_types@U?$pair@$$CBV?$basic_string@DU?$char_traits@D@std@@V?$allocator@D@2@@std@@V?$shared_ptr@UNode@NetvarTree@@@2@@std@@@std@@@std@@@2@XZ 1000a170 f i Aimbot.obj
 0001:00009170       ?_Myfirst@?$_Vector_alloc@U?$_Vec_base_types@Uzgui_control_render_t@zgui@@V?$allocator@Uzgui_control_render_t@zgui@@@std@@@std@@@std@@QBEABQAUzgui_control_render_t@zgui@@XZ 1000a170 f i zgui.obj
 0001:00009170       ?_Myfirst@?$_Vector_alloc@U?$_Vec_base_types@PAV?$ConfigValue@M@@V?$allocator@PAV?$ConfigValue@M@@@std@@@std@@@std@@QAEAAPAPAV?$ConfigValue@M@@XZ 1000a170 f i TGFCfg.obj
 0001:00009170       ?_Myfirst@?$_Vector_alloc@U?$_Vec_base_types@PAV?$ConfigValue@_N@@V?$allocator@PAV?$ConfigValue@_N@@@std@@@std@@@std@@QBEABQAPAV?$ConfigValue@_N@@XZ 1000a170 f i TGFCfg.obj
 0001:00009170       ?_Myfirst@?$_Vector_alloc@U?$_Vec_base_types@UVertex_t@@V?$allocator@UVertex_t@@@std@@@std@@@std@@QBEABQAUVertex_t@@XZ 1000a170 f i ESP.obj
 0001:00009170       ?_Myfirst@?$_Vector_alloc@U?$_Vec_base_types@PAV?$ConfigValue@_N@@V?$allocator@PAV?$ConfigValue@_N@@@std@@@std@@@std@@QAEAAPAPAV?$ConfigValue@_N@@XZ 1000a170 f i TGFCfg.obj
 0001:00009170       ?_Myfirst@?$_Vector_alloc@U?$_Vec_base_types@UHitMarker_t@@V?$allocator@UHitMarker_t@@@std@@@std@@@std@@QBEABQAUHitMarker_t@@XZ 1000a170 f i Hooks.obj
 0001:00009170       ?_Myfirst@?$_Vector_alloc@U?$_Vec_base_types@Vtrace_info@@V?$allocator@Vtrace_info@@@std@@@std@@@std@@QAEAAPAVtrace_info@@XZ 1000a170 f i Hooks.obj
 0001:00009170       ?_Myfirst@?$_Vector_alloc@U?$_Vec_base_types@PAV?$ConfigValue@H@@V?$allocator@PAV?$ConfigValue@H@@@std@@@std@@@std@@QAEAAPAPAV?$ConfigValue@H@@XZ 1000a170 f i TGFCfg.obj
 0001:00009170       ?_Myfirst@?$_Vector_alloc@U?$_Vec_base_types@Umulti_select_item@zgui@@V?$allocator@Umulti_select_item@zgui@@@std@@@std@@@std@@QAEAAPAUmulti_select_item@zgui@@XZ 1000a170 f i zgui.obj
 0001:00009170       ?_Myproxy@?$_Deque_alloc@U?$_Deque_base_types@UPlayerRecords@@V?$allocator@UPlayerRecords@@@std@@@std@@@std@@QAEAAPAU_Container_proxy@2@XZ 1000a170 f i LagComp.obj
 0001:00009170       ?_Myfirst@?$_Vector_alloc@U?$_Vec_base_types@HV?$allocator@H@std@@@std@@@std@@QBEABQAHXZ 1000a170 f i Aimbot.obj
 0001:00009170       ?_Myfirst@?$_Vector_alloc@U?$_Vec_base_types@V?$_List_unchecked_iterator@V?$_List_val@U?$_List_simple_types@U?$pair@$$CBV?$basic_string@DU?$char_traits@D@std@@V?$allocator@D@2@@std@@V?$shared_ptr@UNode@NetvarTree@@@2@@std@@@std@@@std@@@std@@V?$allocator@V?$_List_unchecked_iterator@V?$_List_val@U?$_List_simple_types@U?$pair@$$CBV?$basic_string@DU?$char_traits@D@std@@V?$allocator@D@2@@std@@V?$shared_ptr@UNode@NetvarTree@@@2@@std@@@std@@@std@@@std@@@2@@std@@@std@@QAEAAPAV?$_List_unchecked_iterator@V?$_List_val@U?$_List_simple_types@U?$pair@$$CBV?$basic_string@DU?$char_traits@D@std@@V?$allocator@D@2@@std@@V?$shared_ptr@UNode@NetvarTree@@@2@@std@@@std@@@std@@@2@XZ 1000a170 f i Aimbot.obj
 0001:00009170       ?_Myproxy@?$_Deque_alloc@U?$_Deque_base_types@Uvec2@zgui@@V?$allocator@Uvec2@zgui@@@std@@@std@@@std@@QAEAAPAU_Container_proxy@2@XZ 1000a170 f i zgui.obj
 0001:00009170       ?_Myfirst@?$_Vector_alloc@U?$_Vec_base_types@PAVIMaterial@@V?$allocator@PAVIMaterial@@@std@@@std@@@std@@QAEAAPAPAVIMaterial@@XZ 1000a170 f i Chams.obj
 0001:00009170       ?_Myfirst@?$_Vector_alloc@U?$_Vec_base_types@PBDV?$allocator@PBD@std@@@std@@@std@@QAEAAPAPBDXZ 1000a170 f i Hooks.obj
 0001:00009190       ?_Mysize@?$_List_alloc@U?$_List_base_types@U?$pair@$$CBV?$basic_string@DU?$char_traits@D@std@@V?$allocator@D@2@@std@@V?$shared_ptr@UNode@NetvarTree@@@2@@std@@V?$allocator@U?$pair@$$CBV?$basic_string@DU?$char_traits@D@std@@V?$allocator@D@2@@std@@V?$shared_ptr@UNode@NetvarTree@@@2@@std@@@2@@std@@@std@@QBEABIXZ 1000a190 f i Aimbot.obj
 0001:00009190       ?_Mylast@?$_Vector_alloc@U?$_Vec_base_types@UHitMarker_t@@V?$allocator@UHitMarker_t@@@std@@@std@@@std@@QBEABQAUHitMarker_t@@XZ 1000a190 f i Hooks.obj
 0001:00009190       ?_Mylast@?$_Vector_alloc@U?$_Vec_base_types@UVertex_t@@V?$allocator@UVertex_t@@@std@@@std@@@std@@QAEAAPAUVertex_t@@XZ 1000a190 f i ESP.obj
 0001:00009190       ?_Mylast@?$_Vector_alloc@U?$_Vec_base_types@HV?$allocator@H@std@@@std@@@std@@QAEAAPAHXZ 1000a190 f i Aimbot.obj
 0001:00009190       ?_Mylast@?$_Vector_alloc@U?$_Vec_base_types@PAV?$ConfigValue@H@@V?$allocator@PAV?$ConfigValue@H@@@std@@@std@@@std@@QAEAAPAPAV?$ConfigValue@H@@XZ 1000a190 f i TGFCfg.obj
 0001:00009190       ?_Mylast@?$_Vector_alloc@U?$_Vec_base_types@VVector@@V?$allocator@VVector@@@std@@@std@@@std@@QAEAAPAVVector@@XZ 1000a190 f i Aimbot.obj
 0001:00009190       ?_Mylast@?$_Vector_alloc@U?$_Vec_base_types@V?$basic_string@DU?$char_traits@D@std@@V?$allocator@D@2@@std@@V?$allocator@V?$basic_string@DU?$char_traits@D@std@@V?$allocator@D@2@@std@@@2@@std@@@std@@QBEABQAV?$basic_string@DU?$char_traits@D@std@@V?$allocator@D@2@@2@XZ 1000a190 f i zgui.obj
 0001:00009190       ?_Mysize@?$_List_alloc@U?$_List_base_types@U?$pair@$$CBV?$basic_string@DU?$char_traits@D@std@@V?$allocator@D@2@@std@@V?$shared_ptr@UNode@NetvarTree@@@2@@std@@V?$allocator@U?$pair@$$CBV?$basic_string@DU?$char_traits@D@std@@V?$allocator@D@2@@std@@V?$shared_ptr@UNode@NetvarTree@@@2@@std@@@2@@std@@@std@@QAEAAIXZ 1000a190 f i Aimbot.obj
 0001:00009190       ?_Mylast@?$_Vector_alloc@U?$_Vec_base_types@V?$basic_string@DU?$char_traits@D@std@@V?$allocator@D@2@@std@@V?$allocator@V?$basic_string@DU?$char_traits@D@std@@V?$allocator@D@2@@std@@@2@@std@@@std@@QAEAAPAV?$basic_string@DU?$char_traits@D@std@@V?$allocator@D@2@@2@XZ 1000a190 f i zgui.obj
 0001:00009190       ?_Mylast@?$_Vector_alloc@U?$_Vec_base_types@Uzgui_control_render_t@zgui@@V?$allocator@Uzgui_control_render_t@zgui@@@std@@@std@@@std@@QAEAAPAUzgui_control_render_t@zgui@@XZ 1000a190 f i zgui.obj
 0001:00009190       ?_Mylast@?$_Vector_alloc@U?$_Vec_base_types@PAV?$ConfigValue@_N@@V?$allocator@PAV?$ConfigValue@_N@@@std@@@std@@@std@@QAEAAPAPAV?$ConfigValue@_N@@XZ 1000a190 f i TGFCfg.obj
 0001:00009190       ?_Mylast@?$_Vector_alloc@U?$_Vec_base_types@PAV?$ConfigValue@M@@V?$allocator@PAV?$ConfigValue@M@@@std@@@std@@@std@@QBEABQAPAV?$ConfigValue@M@@XZ 1000a190 f i TGFCfg.obj
 0001:00009190       ?_Mylast@?$_Vector_alloc@U?$_Vec_base_types@Uzgui_control_render_t@zgui@@V?$allocator@Uzgui_control_render_t@zgui@@@std@@@std@@@std@@QBEABQAUzgui_control_render_t@zgui@@XZ 1000a190 f i zgui.obj
 0001:00009190       ?_Mylast@?$_Vector_alloc@U?$_Vec_base_types@PAV?$ConfigValue@M@@V?$allocator@PAV?$ConfigValue@M@@@std@@@std@@@std@@QAEAAPAPAV?$ConfigValue@M@@XZ 1000a190 f i TGFCfg.obj
 0001:00009190       ?_Mylast@?$_Vector_alloc@U?$_Vec_base_types@V?$_List_unchecked_iterator@V?$_List_val@U?$_List_simple_types@U?$pair@$$CBV?$basic_string@DU?$char_traits@D@std@@V?$allocator@D@2@@std@@V?$shared_ptr@UNode@NetvarTree@@@2@@std@@@std@@@std@@@std@@V?$allocator@V?$_List_unchecked_iterator@V?$_List_val@U?$_List_simple_types@U?$pair@$$CBV?$basic_string@DU?$char_traits@D@std@@V?$allocator@D@2@@std@@V?$shared_ptr@UNode@NetvarTree@@@2@@std@@@std@@@std@@@std@@@2@@std@@@std@@QAEAAPAV?$_List_unchecked_iterator@V?$_List_val@U?$_List_simple_types@U?$pair@$$CBV?$basic_string@DU?$char_traits@D@std@@V?$allocator@D@2@@std@@V?$shared_ptr@UNode@NetvarTree@@@2@@std@@@std@@@std@@@2@XZ 1000a190 f i Aimbot.obj
 0001:00009190       ?_Mylast@?$_Vector_alloc@U?$_Vec_base_types@Umulti_select_item@zgui@@V?$allocator@Umulti_select_item@zgui@@@std@@@std@@@std@@QAEAAPAUmulti_select_item@zgui@@XZ 1000a190 f i zgui.obj
 0001:00009190       ?_Mylast@?$_Vector_alloc@U?$_Vec_base_types@V?$_List_unchecked_iterator@V?$_List_val@U?$_List_simple_types@U?$pair@$$CBV?$basic_string@DU?$char_traits@D@std@@V?$allocator@D@2@@std@@V?$shared_ptr@UNode@NetvarTree@@@2@@std@@@std@@@std@@@std@@V?$allocator@V?$_List_unchecked_iterator@V?$_List_val@U?$_List_simple_types@U?$pair@$$CBV?$basic_string@DU?$char_traits@D@std@@V?$allocator@D@2@@std@@V?$shared_ptr@UNode@NetvarTree@@@2@@std@@@std@@@std@@@std@@@2@@std@@@std@@QBEABQAV?$_List_unchecked_iterator@V?$_List_val@U?$_List_simple_types@U?$pair@$$CBV?$basic_string@DU?$char_traits@D@std@@V?$allocator@D@2@@std@@V?$shared_ptr@UNode@NetvarTree@@@2@@std@@@std@@@std@@@2@XZ 1000a190 f i Aimbot.obj
 0001:00009190       ?_Mylast@?$_Vector_alloc@U?$_Vec_base_types@HV?$allocator@H@std@@@std@@@std@@QBEABQAHXZ 1000a190 f i Aimbot.obj
 0001:00009190       ?_Mylast@?$_Vector_alloc@U?$_Vec_base_types@VVector@@V?$allocator@VVector@@@std@@@std@@@std@@QBEABQAVVector@@XZ 1000a190 f i Aimbot.obj
 0001:00009190       ?_Mylast@?$_Vector_alloc@U?$_Vec_base_types@PAV?$ConfigValue@H@@V?$allocator@PAV?$ConfigValue@H@@@std@@@std@@@std@@QBEABQAPAV?$ConfigValue@H@@XZ 1000a190 f i TGFCfg.obj
 0001:00009190       ?_Mylast@?$_Vector_alloc@U?$_Vec_base_types@PBDV?$allocator@PBD@std@@@std@@@std@@QAEAAPAPBDXZ 1000a190 f i Hooks.obj
 0001:00009190       ?_Map@?$_Deque_alloc@U?$_Deque_base_types@Uvec2@zgui@@V?$allocator@Uvec2@zgui@@@std@@@std@@@std@@QAEAAPAPAUvec2@zgui@@XZ 1000a190 f i zgui.obj
 0001:00009190       ?_Mylast@?$_Vector_alloc@U?$_Vec_base_types@PAVIMaterial@@V?$allocator@PAVIMaterial@@@std@@@std@@@std@@QAEAAPAPAVIMaterial@@XZ 1000a190 f i Chams.obj
 0001:00009190       ?_Mylast@?$_Vector_alloc@U?$_Vec_base_types@PAV?$ConfigValue@_N@@V?$allocator@PAV?$ConfigValue@_N@@@std@@@std@@@std@@QBEABQAPAV?$ConfigValue@_N@@XZ 1000a190 f i TGFCfg.obj
 0001:00009190       ?_Map@?$_Deque_alloc@U?$_Deque_base_types@UPlayerRecords@@V?$allocator@UPlayerRecords@@@std@@@std@@@std@@QAEAAPAPAUPlayerRecords@@XZ 1000a190 f i LagComp.obj
 0001:00009190       ?_Mylast@?$_Vector_alloc@U?$_Vec_base_types@Vtrace_info@@V?$allocator@Vtrace_info@@@std@@@std@@@std@@QAEAAPAVtrace_info@@XZ 1000a190 f i Hooks.obj
 0001:00009190       ?_Mylast@?$_Vector_alloc@U?$_Vec_base_types@UVertex_t@@V?$allocator@UVertex_t@@@std@@@std@@@std@@QBEABQAUVertex_t@@XZ 1000a190 f i ESP.obj
 0001:00009190       ?_Mylast@?$_Vector_alloc@U?$_Vec_base_types@Umulti_select_item@zgui@@V?$allocator@Umulti_select_item@zgui@@@std@@@std@@@std@@QBEABQAUmulti_select_item@zgui@@XZ 1000a190 f i zgui.obj
 0001:00009190       ?_Mylast@?$_Vector_alloc@U?$_Vec_base_types@UHitMarker_t@@V?$allocator@UHitMarker_t@@@std@@@std@@@std@@QAEAAPAUHitMarker_t@@XZ 1000a190 f i Hooks.obj
 0001:00009190       ?_Mylast@?$_Vector_alloc@U?$_Vec_base_types@Vtrace_info@@V?$allocator@Vtrace_info@@@std@@@std@@@std@@QBEABQAVtrace_info@@XZ 1000a190 f i Hooks.obj
 0001:000091b0       ?_Myoff@?$_Deque_alloc@U?$_Deque_base_types@UPlayerRecords@@V?$allocator@UPlayerRecords@@@std@@@std@@@std@@QAEAAIXZ 1000a1b0 f i Aimbot.obj
 0001:000091b0       ?_Myoff@?$_Deque_alloc@U?$_Deque_base_types@Uvec2@zgui@@V?$allocator@Uvec2@zgui@@@std@@@std@@@std@@QAEAAIXZ 1000a1b0 f i zgui.obj
 0001:000091d0       ?_Myptr@?$_String_val@U?$_Simple_types@D@std@@@std@@QBEPBDXZ 1000a1d0 f i Aimbot.obj
 0001:000091d0       ?_Myptr@?$_String_val@U?$_Simple_types@D@std@@@std@@QAEPADXZ 1000a1d0 f i Aimbot.obj
 0001:00009210       ?_Mysize@?$_Deque_alloc@U?$_Deque_base_types@UPlayerRecords@@V?$allocator@UPlayerRecords@@@std@@@std@@@std@@QAEAAIXZ 1000a210 f i Aimbot.obj
 0001:00009210       ?_Mysize@?$_Deque_alloc@U?$_Deque_base_types@Uvec2@zgui@@V?$allocator@Uvec2@zgui@@@std@@@std@@@std@@QBEABIXZ 1000a210 f i zgui.obj
 0001:00009210       ?_Mysize@?$_Deque_alloc@U?$_Deque_base_types@Uvec2@zgui@@V?$allocator@Uvec2@zgui@@@std@@@std@@@std@@QAEAAIXZ 1000a210 f i zgui.obj
 0001:00009210       ?_Mysize@?$_Deque_alloc@U?$_Deque_base_types@UPlayerRecords@@V?$allocator@UPlayerRecords@@@std@@@std@@@std@@QBEABIXZ 1000a210 f i Aimbot.obj
 0001:00009230       ?_Orphan_all@?$_Vector_alloc@U?$_Vec_base_types@PBDV?$allocator@PBD@std@@@std@@@std@@QAEXXZ 1000a230 f i Hooks.obj
 0001:00009230       ?_Orphan_all@?$_Vector_alloc@U?$_Vec_base_types@UVertex_t@@V?$allocator@UVertex_t@@@std@@@std@@@std@@QAEXXZ 1000a230 f i ESP.obj
 0001:00009230       ?_Orphan_all@?$_Vector_alloc@U?$_Vec_base_types@UHitMarker_t@@V?$allocator@UHitMarker_t@@@std@@@std@@@std@@QAEXXZ 1000a230 f i Hooks.obj
 0001:00009230       ?_Orphan_all@?$_Vector_alloc@U?$_Vec_base_types@VVector@@V?$allocator@VVector@@@std@@@std@@@std@@QAEXXZ 1000a230 f i Aimbot.obj
 0001:00009230       ?_Orphan_all@?$_Vector_alloc@U?$_Vec_base_types@PAV?$ConfigValue@_N@@V?$allocator@PAV?$ConfigValue@_N@@@std@@@std@@@std@@QAEXXZ 1000a230 f i TGFCfg.obj
 0001:00009230       ?_Orphan_all@?$_String_alloc@U?$_String_base_types@_WV?$allocator@_W@std@@@std@@@std@@QAEXXZ 1000a230 f i Hooks.obj
 0001:00009230       ?_Orphan_all@?$_Vector_alloc@U?$_Vec_base_types@PAV?$ConfigValue@M@@V?$allocator@PAV?$ConfigValue@M@@@std@@@std@@@std@@QAEXXZ 1000a230 f i TGFCfg.obj
 0001:00009230       ?_Orphan_all@?$_Vector_alloc@U?$_Vec_base_types@HV?$allocator@H@std@@@std@@@std@@QAEXXZ 1000a230 f i Aimbot.obj
 0001:00009230       ?_Orphan_all@?$_Vector_alloc@U?$_Vec_base_types@V?$_List_unchecked_iterator@V?$_List_val@U?$_List_simple_types@U?$pair@$$CBV?$basic_string@DU?$char_traits@D@std@@V?$allocator@D@2@@std@@V?$shared_ptr@UNode@NetvarTree@@@2@@std@@@std@@@std@@@std@@V?$allocator@V?$_List_unchecked_iterator@V?$_List_val@U?$_List_simple_types@U?$pair@$$CBV?$basic_string@DU?$char_traits@D@std@@V?$allocator@D@2@@std@@V?$shared_ptr@UNode@NetvarTree@@@2@@std@@@std@@@std@@@std@@@2@@std@@@std@@QAEXXZ 1000a230 f i Aimbot.obj
 0001:00009230       ?_Orphan_all@?$_Vector_alloc@U?$_Vec_base_types@Vtrace_info@@V?$allocator@Vtrace_info@@@std@@@std@@@std@@QAEXXZ 1000a230 f i Hooks.obj
 0001:00009230       ?_Orphan_all@?$_Vector_alloc@U?$_Vec_base_types@Umulti_select_item@zgui@@V?$allocator@Umulti_select_item@zgui@@@std@@@std@@@std@@QAEXXZ 1000a230 f i zgui.obj
 0001:00009230       ?_Orphan_all@?$_Vector_alloc@U?$_Vec_base_types@PAVIMaterial@@V?$allocator@PAVIMaterial@@@std@@@std@@@std@@QAEXXZ 1000a230 f i Chams.obj
 0001:00009230       ?_Orphan_all@?$_Vector_alloc@U?$_Vec_base_types@Uzgui_control_render_t@zgui@@V?$allocator@Uzgui_control_render_t@zgui@@@std@@@std@@@std@@QAEXXZ 1000a230 f i zgui.obj
 0001:00009230       ?_Orphan_all@?$_Deque_alloc@U?$_Deque_base_types@UPlayerRecords@@V?$allocator@UPlayerRecords@@@std@@@std@@@std@@QAEXXZ 1000a230 f i LagComp.obj
 0001:00009230       ?_Orphan_all@?$_Vector_alloc@U?$_Vec_base_types@PAV?$ConfigValue@H@@V?$allocator@PAV?$ConfigValue@H@@@std@@@std@@@std@@QAEXXZ 1000a230 f i TGFCfg.obj
 0001:00009230       ?_Orphan_all@?$_Vector_alloc@U?$_Vec_base_types@V?$basic_string@DU?$char_traits@D@std@@V?$allocator@D@2@@std@@V?$allocator@V?$basic_string@DU?$char_traits@D@std@@V?$allocator@D@2@@std@@@2@@std@@@std@@QAEXXZ 1000a230 f i zgui.obj
 0001:00009230       ?_Orphan_all@?$_Deque_alloc@U?$_Deque_base_types@Uvec2@zgui@@V?$allocator@Uvec2@zgui@@@std@@@std@@@std@@QAEXXZ 1000a230 f i zgui.obj
 0001:00009230       ?_Orphan_all@?$_String_alloc@U?$_String_base_types@DV?$allocator@D@std@@@std@@@std@@QAEXXZ 1000a230 f i Aimbot.obj
 0001:00009250       ?_Orphan_range@?$vector@PAV?$ConfigValue@M@@V?$allocator@PAV?$ConfigValue@M@@@std@@@std@@ABEXPAPAV?$ConfigValue@M@@0@Z 1000a250 f i TGFCfg.obj
 0001:00009250       ?_Orphan_range@?$vector@UVertex_t@@V?$allocator@UVertex_t@@@std@@@std@@ABEXPAUVertex_t@@0@Z 1000a250 f i ESP.obj
 0001:00009250       ?_Orphan_range@?$vector@UHitMarker_t@@V?$allocator@UHitMarker_t@@@std@@@std@@ABEXPAUHitMarker_t@@0@Z 1000a250 f i Hooks.obj
 0001:00009250       ?_Orphan_range@?$vector@PAV?$ConfigValue@_N@@V?$allocator@PAV?$ConfigValue@_N@@@std@@@std@@ABEXPAPAV?$ConfigValue@_N@@0@Z 1000a250 f i TGFCfg.obj
 0001:00009250       ?_Orphan_range@?$vector@Vtrace_info@@V?$allocator@Vtrace_info@@@std@@@std@@ABEXPAVtrace_info@@0@Z 1000a250 f i Hooks.obj
 0001:00009250       ?_Orphan_range@?$vector@HV?$allocator@H@std@@@std@@ABEXPAH0@Z 1000a250 f i Aimbot.obj
 0001:00009250       ?_Orphan_range@?$vector@Uzgui_control_render_t@zgui@@V?$allocator@Uzgui_control_render_t@zgui@@@std@@@std@@ABEXPAUzgui_control_render_t@zgui@@0@Z 1000a250 f i zgui.obj
 0001:00009250       ?_Orphan_range@?$vector@PAV?$ConfigValue@H@@V?$allocator@PAV?$ConfigValue@H@@@std@@@std@@ABEXPAPAV?$ConfigValue@H@@0@Z 1000a250 f i TGFCfg.obj
 0001:00009250       ?_Orphan_range@?$vector@VVector@@V?$allocator@VVector@@@std@@@std@@ABEXPAVVector@@0@Z 1000a250 f i Aimbot.obj
 0001:00009250       ?_Orphan_range@?$vector@V?$basic_string@DU?$char_traits@D@std@@V?$allocator@D@2@@std@@V?$allocator@V?$basic_string@DU?$char_traits@D@std@@V?$allocator@D@2@@std@@@2@@std@@ABEXPAV?$basic_string@DU?$char_traits@D@std@@V?$allocator@D@2@@2@0@Z 1000a250 f i zgui.obj
 0001:00009260       ?_Reallocate_exactly@?$vector@V?$_List_unchecked_iterator@V?$_List_val@U?$_List_simple_types@U?$pair@$$CBV?$basic_string@DU?$char_traits@D@std@@V?$allocator@D@2@@std@@V?$shared_ptr@UNode@NetvarTree@@@2@@std@@@std@@@std@@@std@@V?$allocator@V?$_List_unchecked_iterator@V?$_List_val@U?$_List_simple_types@U?$pair@$$CBV?$basic_string@DU?$char_traits@D@std@@V?$allocator@D@2@@std@@V?$shared_ptr@UNode@NetvarTree@@@2@@std@@@std@@@std@@@std@@@2@@std@@AAEXI@Z 1000a260 f i Aimbot.obj
 0001:00009350       ?_Reinsert@?$_Hash@V?$_Umap_traits@V?$basic_string@DU?$char_traits@D@std@@V?$allocator@D@2@@std@@V?$shared_ptr@UNode@NetvarTree@@@2@V?$_Uhash_compare@V?$basic_string@DU?$char_traits@D@std@@V?$allocator@D@2@@std@@U?$hash@V?$basic_string@DU?$char_traits@D@std@@V?$allocator@D@2@@std@@@2@U?$equal_to@V?$basic_string@DU?$char_traits@D@std@@V?$allocator@D@2@@std@@@2@@2@V?$allocator@U?$pair@$$CBV?$basic_string@DU?$char_traits@D@std@@V?$allocator@D@2@@std@@V?$shared_ptr@UNode@NetvarTree@@@2@@std@@@2@$0A@@std@@@std@@IAEXXZ 1000a350 f i Aimbot.obj
 0001:000093e0       ?_Release@?$_Uninitialized_backout_al@PAVtrace_info@@V?$allocator@Vtrace_info@@@std@@@std@@QAEPAVtrace_info@@XZ 1000a3e0 f i Hooks.obj
 0001:000093e0       ?_Release@?$_Uninitialized_backout_al@PAUzgui_control_render_t@zgui@@V?$allocator@Uzgui_control_render_t@zgui@@@std@@@std@@QAEPAUzgui_control_render_t@zgui@@XZ 1000a3e0 f i zgui.obj
 0001:000093e0       ?_Release@?$_Uninitialized_backout_al@PAV?$_List_unchecked_iterator@V?$_List_val@U?$_List_simple_types@U?$pair@$$CBV?$basic_string@DU?$char_traits@D@std@@V?$allocator@D@2@@std@@V?$shared_ptr@UNode@NetvarTree@@@2@@std@@@std@@@std@@@std@@V?$allocator@V?$_List_unchecked_iterator@V?$_List_val@U?$_List_simple_types@U?$pair@$$CBV?$basic_string@DU?$char_traits@D@std@@V?$allocator@D@2@@std@@V?$shared_ptr@UNode@NetvarTree@@@2@@std@@@std@@@std@@@std@@@2@@std@@QAEPAV?$_List_unchecked_iterator@V?$_List_val@U?$_List_simple_types@U?$pair@$$CBV?$basic_string@DU?$char_traits@D@std@@V?$allocator@D@2@@std@@V?$shared_ptr@UNode@NetvarTree@@@2@@std@@@std@@@std@@@2@XZ 1000a3e0 f i Aimbot.obj
 0001:000093e0       ?_Release@?$_Uninitialized_backout_al@PAV?$basic_string@DU?$char_traits@D@std@@V?$allocator@D@2@@std@@V?$allocator@V?$basic_string@DU?$char_traits@D@std@@V?$allocator@D@2@@std@@@2@@std@@QAEPAV?$basic_string@DU?$char_traits@D@std@@V?$allocator@D@2@@2@XZ 1000a3e0 f i zgui.obj
 0001:000093e0       ?_Release@?$_Uninitialized_backout_al@PAUmulti_select_item@zgui@@V?$allocator@Umulti_select_item@zgui@@@std@@@std@@QAEPAUmulti_select_item@zgui@@XZ 1000a3e0 f i Menu.obj
 0001:000093e0       ?_Release@?$_Uninitialized_backout_al@PAUVertex_t@@V?$allocator@UVertex_t@@@std@@@std@@QAEPAUVertex_t@@XZ 1000a3e0 f i ESP.obj
 0001:000093e0       ?_Release@?$_Uninitialized_backout_al@PAVVector@@V?$allocator@VVector@@@std@@@std@@QAEPAVVector@@XZ 1000a3e0 f i Aimbot.obj
 0001:00009400       ?_Setcont@?$_Deque_const_iterator@V?$_Deque_val@U?$_Deque_simple_types@UPlayerRecords@@@std@@@std@@@std@@QAEXPBV?$_Deque_val@U?$_Deque_simple_types@UPlayerRecords@@@std@@@2@@Z 1000a400 f i Aimbot.obj
 0001:00009400       ?_Setcont@?$_Deque_const_iterator@V?$_Deque_val@U?$_Deque_simple_types@Uvec2@zgui@@@std@@@std@@@std@@QAEXPBV?$_Deque_val@U?$_Deque_simple_types@Uvec2@zgui@@@std@@@2@@Z 1000a400 f i zgui.obj
 0001:00009420       ?_Swap_all@?$_Vector_alloc@U?$_Vec_base_types@V?$basic_string@DU?$char_traits@D@std@@V?$allocator@D@2@@std@@V?$allocator@V?$basic_string@DU?$char_traits@D@std@@V?$allocator@D@2@@std@@@2@@std@@@std@@QAEXAAV12@@Z 1000a420 f i zgui.obj
 0001:00009420       ?_Swap_all@?$_Vector_alloc@U?$_Vec_base_types@VVector@@V?$allocator@VVector@@@std@@@std@@@std@@QAEXAAV12@@Z 1000a420 f i Aimbot.obj
 0001:00009460       ?_Tidy@?$vector@PBDV?$allocator@PBD@std@@@std@@AAEXXZ 1000a460 f i Hooks.obj
 0001:00009460       ?_Tidy@?$vector@PAV?$ConfigValue@M@@V?$allocator@PAV?$ConfigValue@M@@@std@@@std@@AAEXXZ 1000a460 f i TGFCfg.obj
 0001:00009460       ?_Tidy@?$vector@PAV?$ConfigValue@_N@@V?$allocator@PAV?$ConfigValue@_N@@@std@@@std@@AAEXXZ 1000a460 f i TGFCfg.obj
 0001:00009460       ?_Tidy@?$vector@V?$_List_unchecked_iterator@V?$_List_val@U?$_List_simple_types@U?$pair@$$CBV?$basic_string@DU?$char_traits@D@std@@V?$allocator@D@2@@std@@V?$shared_ptr@UNode@NetvarTree@@@2@@std@@@std@@@std@@@std@@V?$allocator@V?$_List_unchecked_iterator@V?$_List_val@U?$_List_simple_types@U?$pair@$$CBV?$basic_string@DU?$char_traits@D@std@@V?$allocator@D@2@@std@@V?$shared_ptr@UNode@NetvarTree@@@2@@std@@@std@@@std@@@std@@@2@@std@@AAEXXZ 1000a460 f i Hooks.obj
 0001:00009460       ?_Tidy@?$vector@PAV?$ConfigValue@H@@V?$allocator@PAV?$ConfigValue@H@@@std@@@std@@AAEXXZ 1000a460 f i TGFCfg.obj
 0001:00009460       ?_Tidy@?$vector@HV?$allocator@H@std@@@std@@AAEXXZ 1000a460 f i Aimbot.obj
 0001:00009460       ?_Tidy@?$vector@PAVIMaterial@@V?$allocator@PAVIMaterial@@@std@@@std@@AAEXXZ 1000a460 f i Chams.obj
 0001:00009510       ?_Tidy@?$vector@Umulti_select_item@zgui@@V?$allocator@Umulti_select_item@zgui@@@std@@@std@@AAEXXZ 1000a510 f i zgui.obj
 0001:00009510       ?_Tidy@?$vector@VVector@@V?$allocator@VVector@@@std@@@std@@AAEXXZ 1000a510 f i Aimbot.obj
 0001:000095c0       ?_Tidy_deallocate@?$basic_string@DU?$char_traits@D@std@@V?$allocator@D@2@@std@@QAEXXZ 1000a5c0 f i Aimbot.obj
 0001:00009670       ?_Tidy_init@?$basic_string@DU?$char_traits@D@std@@V?$allocator@D@2@@std@@QAEXXZ 1000a670 f i Aimbot.obj
 0001:000096c0       ?_Ufill@?$vector@V?$_List_unchecked_iterator@V?$_List_val@U?$_List_simple_types@U?$pair@$$CBV?$basic_string@DU?$char_traits@D@std@@V?$allocator@D@2@@std@@V?$shared_ptr@UNode@NetvarTree@@@2@@std@@@std@@@std@@@std@@V?$allocator@V?$_List_unchecked_iterator@V?$_List_val@U?$_List_simple_types@U?$pair@$$CBV?$basic_string@DU?$char_traits@D@std@@V?$allocator@D@2@@std@@V?$shared_ptr@UNode@NetvarTree@@@2@@std@@@std@@@std@@@std@@@2@@std@@AAEPAV?$_List_unchecked_iterator@V?$_List_val@U?$_List_simple_types@U?$pair@$$CBV?$basic_string@DU?$char_traits@D@std@@V?$allocator@D@2@@std@@V?$shared_ptr@UNode@NetvarTree@@@2@@std@@@std@@@std@@@2@PAV32@IABV32@@Z 1000a6c0 f i Aimbot.obj
 0001:000096f0       ?_Umove@?$vector@PAV?$ConfigValue@M@@V?$allocator@PAV?$ConfigValue@M@@@std@@@std@@AAEPAPAV?$ConfigValue@M@@PAPAV3@00@Z 1000a6f0 f i TGFCfg.obj
 0001:000096f0       ?_Umove@?$vector@PAV?$ConfigValue@_N@@V?$allocator@PAV?$ConfigValue@_N@@@std@@@std@@AAEPAPAV?$ConfigValue@_N@@PAPAV3@00@Z 1000a6f0 f i TGFCfg.obj
 0001:000096f0       ?_Umove@?$vector@HV?$allocator@H@std@@@std@@AAEPAHPAH00@Z 1000a6f0 f i Aimbot.obj
 0001:000096f0       ??$_Ucopy@PBQBD@?$vector@PBDV?$allocator@PBD@std@@@std@@AAEPAPBDPBQBD0PAPBD@Z 1000a6f0 f i Hooks.obj
 0001:000096f0       ?_Umove@?$vector@PAV?$ConfigValue@H@@V?$allocator@PAV?$ConfigValue@H@@@std@@@std@@AAEPAPAV?$ConfigValue@H@@PAPAV3@00@Z 1000a6f0 f i TGFCfg.obj
 0001:00009720       ?_Umove@?$vector@VVector@@V?$allocator@VVector@@@std@@@std@@AAEPAVVector@@PAV3@00@Z 1000a720 f i Aimbot.obj
 0001:00009750       ?_Umove_if_noexcept1@?$vector@PAV?$ConfigValue@_N@@V?$allocator@PAV?$ConfigValue@_N@@@std@@@std@@AAEXPAPAV?$ConfigValue@_N@@00U?$integral_constant@_N$00@2@@Z 1000a750 f i TGFCfg.obj
 0001:00009750       ?_Umove_if_noexcept1@?$vector@PAV?$ConfigValue@H@@V?$allocator@PAV?$ConfigValue@H@@@std@@@std@@AAEXPAPAV?$ConfigValue@H@@00U?$integral_constant@_N$00@2@@Z 1000a750 f i TGFCfg.obj
 0001:00009750       ?_Umove_if_noexcept1@?$vector@PAV?$ConfigValue@M@@V?$allocator@PAV?$ConfigValue@M@@@std@@@std@@AAEXPAPAV?$ConfigValue@M@@00U?$integral_constant@_N$00@2@@Z 1000a750 f i TGFCfg.obj
 0001:00009750       ?_Umove_if_noexcept1@?$vector@HV?$allocator@H@std@@@std@@AAEXPAH00U?$integral_constant@_N$00@2@@Z 1000a750 f i Aimbot.obj
 0001:00009780       ?_Umove_if_noexcept1@?$vector@V?$_List_unchecked_iterator@V?$_List_val@U?$_List_simple_types@U?$pair@$$CBV?$basic_string@DU?$char_traits@D@std@@V?$allocator@D@2@@std@@V?$shared_ptr@UNode@NetvarTree@@@2@@std@@@std@@@std@@@std@@V?$allocator@V?$_List_unchecked_iterator@V?$_List_val@U?$_List_simple_types@U?$pair@$$CBV?$basic_string@DU?$char_traits@D@std@@V?$allocator@D@2@@std@@V?$shared_ptr@UNode@NetvarTree@@@2@@std@@@std@@@std@@@std@@@2@@std@@AAEXPAV?$_List_unchecked_iterator@V?$_List_val@U?$_List_simple_types@U?$pair@$$CBV?$basic_string@DU?$char_traits@D@std@@V?$allocator@D@2@@std@@V?$shared_ptr@UNode@NetvarTree@@@2@@std@@@std@@@std@@@2@00U?$integral_constant@_N$00@2@@Z 1000a780 f i Aimbot.obj
 0001:000097b0       ?_Umove_if_noexcept1@?$vector@VVector@@V?$allocator@VVector@@@std@@@std@@AAEXPAVVector@@00U?$integral_constant@_N$00@2@@Z 1000a7b0 f i Aimbot.obj
 0001:000097e0       ?_Umove_if_noexcept@?$vector@HV?$allocator@H@std@@@std@@AAEXPAH00@Z 1000a7e0 f i Aimbot.obj
 0001:000097e0       ?_Umove_if_noexcept@?$vector@PAV?$ConfigValue@_N@@V?$allocator@PAV?$ConfigValue@_N@@@std@@@std@@AAEXPAPAV?$ConfigValue@_N@@00@Z 1000a7e0 f i TGFCfg.obj
 0001:000097e0       ?_Umove_if_noexcept@?$vector@PAV?$ConfigValue@H@@V?$allocator@PAV?$ConfigValue@H@@@std@@@std@@AAEXPAPAV?$ConfigValue@H@@00@Z 1000a7e0 f i TGFCfg.obj
 0001:000097e0       ?_Umove_if_noexcept@?$vector@PAV?$ConfigValue@M@@V?$allocator@PAV?$ConfigValue@M@@@std@@@std@@AAEXPAPAV?$ConfigValue@M@@00@Z 1000a7e0 f i TGFCfg.obj
 0001:00009810       ?_Umove_if_noexcept@?$vector@V?$_List_unchecked_iterator@V?$_List_val@U?$_List_simple_types@U?$pair@$$CBV?$basic_string@DU?$char_traits@D@std@@V?$allocator@D@2@@std@@V?$shared_ptr@UNode@NetvarTree@@@2@@std@@@std@@@std@@@std@@V?$allocator@V?$_List_unchecked_iterator@V?$_List_val@U?$_List_simple_types@U?$pair@$$CBV?$basic_string@DU?$char_traits@D@std@@V?$allocator@D@2@@std@@V?$shared_ptr@UNode@NetvarTree@@@2@@std@@@std@@@std@@@std@@@2@@std@@AAEXPAV?$_List_unchecked_iterator@V?$_List_val@U?$_List_simple_types@U?$pair@$$CBV?$basic_string@DU?$char_traits@D@std@@V?$allocator@D@2@@std@@V?$shared_ptr@UNode@NetvarTree@@@2@@std@@@std@@@std@@@2@00@Z 1000a810 f i Aimbot.obj
 0001:00009840       ?_Umove_if_noexcept@?$vector@VVector@@V?$allocator@VVector@@@std@@@std@@AAEXPAVVector@@00@Z 1000a840 f i Aimbot.obj
 0001:00009870       ?_Unchecked_begin@?$_Hash@V?$_Umap_traits@V?$basic_string@DU?$char_traits@D@std@@V?$allocator@D@2@@std@@V?$shared_ptr@UNode@NetvarTree@@@2@V?$_Uhash_compare@V?$basic_string@DU?$char_traits@D@std@@V?$allocator@D@2@@std@@U?$hash@V?$basic_string@DU?$char_traits@D@std@@V?$allocator@D@2@@std@@@2@U?$equal_to@V?$basic_string@DU?$char_traits@D@std@@V?$allocator@D@2@@std@@@2@@2@V?$allocator@U?$pair@$$CBV?$basic_string@DU?$char_traits@D@std@@V?$allocator@D@2@@std@@V?$shared_ptr@UNode@NetvarTree@@@2@@std@@@2@$0A@@std@@@std@@QAE?AV?$_List_unchecked_iterator@V?$_List_val@U?$_List_simple_types@U?$pair@$$CBV?$basic_string@DU?$char_traits@D@std@@V?$allocator@D@2@@std@@V?$shared_ptr@UNode@NetvarTree@@@2@@std@@@std@@@std@@@2@XZ 1000a870 f i Aimbot.obj
 0001:000098a0       ?_Unchecked_begin@?$list@U?$pair@$$CBV?$basic_string@DU?$char_traits@D@std@@V?$allocator@D@2@@std@@V?$shared_ptr@UNode@NetvarTree@@@2@@std@@V?$allocator@U?$pair@$$CBV?$basic_string@DU?$char_traits@D@std@@V?$allocator@D@2@@std@@V?$shared_ptr@UNode@NetvarTree@@@2@@std@@@2@@std@@QAE?AV?$_List_unchecked_iterator@V?$_List_val@U?$_List_simple_types@U?$pair@$$CBV?$basic_string@DU?$char_traits@D@std@@V?$allocator@D@2@@std@@V?$shared_ptr@UNode@NetvarTree@@@2@@std@@@std@@@std@@@2@XZ 1000a8a0 f i Aimbot.obj
 0001:000098d0       ?_Unchecked_begin@?$vector@Umulti_select_item@zgui@@V?$allocator@Umulti_select_item@zgui@@@std@@@std@@QAEPAUmulti_select_item@zgui@@XZ 1000a8d0 f i zgui.obj
 0001:000098d0       ?_Unchecked_begin@?$vector@PAV?$ConfigValue@M@@V?$allocator@PAV?$ConfigValue@M@@@std@@@std@@QAEPAPAV?$ConfigValue@M@@XZ 1000a8d0 f i TGFCfg.obj
 0001:000098d0       ?_Unchecked_begin@?$vector@PAV?$ConfigValue@_N@@V?$allocator@PAV?$ConfigValue@_N@@@std@@@std@@QAEPAPAV?$ConfigValue@_N@@XZ 1000a8d0 f i TGFCfg.obj
 0001:000098d0       ?_Unchecked_begin@?$vector@PBDV?$allocator@PBD@std@@@std@@QAEPAPBDXZ 1000a8d0 f i Hooks.obj
 0001:000098d0       ?_Unchecked_begin@?$vector@VVector@@V?$allocator@VVector@@@std@@@std@@QAEPAVVector@@XZ 1000a8d0 f i Aimbot.obj
 0001:000098d0       ?_Unchecked_begin@?$vector@PAV?$ConfigValue@H@@V?$allocator@PAV?$ConfigValue@H@@@std@@@std@@QAEPAPAV?$ConfigValue@H@@XZ 1000a8d0 f i TGFCfg.obj
 0001:000098d0       ?_Unchecked_begin@?$vector@HV?$allocator@H@std@@@std@@QAEPAHXZ 1000a8d0 f i Aimbot.obj
 0001:000098f0       ?_Unchecked_end@?$_Hash@V?$_Umap_traits@V?$basic_string@DU?$char_traits@D@std@@V?$allocator@D@2@@std@@V?$shared_ptr@UNode@NetvarTree@@@2@V?$_Uhash_compare@V?$basic_string@DU?$char_traits@D@std@@V?$allocator@D@2@@std@@U?$hash@V?$basic_string@DU?$char_traits@D@std@@V?$allocator@D@2@@std@@@2@U?$equal_to@V?$basic_string@DU?$char_traits@D@std@@V?$allocator@D@2@@std@@@2@@2@V?$allocator@U?$pair@$$CBV?$basic_string@DU?$char_traits@D@std@@V?$allocator@D@2@@std@@V?$shared_ptr@UNode@NetvarTree@@@2@@std@@@2@$0A@@std@@@std@@QAE?AV?$_List_unchecked_iterator@V?$_List_val@U?$_List_simple_types@U?$pair@$$CBV?$basic_string@DU?$char_traits@D@std@@V?$allocator@D@2@@std@@V?$shared_ptr@UNode@NetvarTree@@@2@@std@@@std@@@std@@@2@XZ 1000a8f0 f i Aimbot.obj
 0001:00009920       ?_Unchecked_end@?$list@U?$pair@$$CBV?$basic_string@DU?$char_traits@D@std@@V?$allocator@D@2@@std@@V?$shared_ptr@UNode@NetvarTree@@@2@@std@@V?$allocator@U?$pair@$$CBV?$basic_string@DU?$char_traits@D@std@@V?$allocator@D@2@@std@@V?$shared_ptr@UNode@NetvarTree@@@2@@std@@@2@@std@@QAE?AV?$_List_unchecked_iterator@V?$_List_val@U?$_List_simple_types@U?$pair@$$CBV?$basic_string@DU?$char_traits@D@std@@V?$allocator@D@2@@std@@V?$shared_ptr@UNode@NetvarTree@@@2@@std@@@std@@@std@@@2@XZ 1000a920 f i Aimbot.obj
 0001:00009950       ?size@?$list@U?$pair@$$CBV?$basic_string@DU?$char_traits@D@std@@V?$allocator@D@2@@std@@V?$shared_ptr@UNode@NetvarTree@@@2@@std@@V?$allocator@U?$pair@$$CBV?$basic_string@DU?$char_traits@D@std@@V?$allocator@D@2@@std@@V?$shared_ptr@UNode@NetvarTree@@@2@@std@@@2@@std@@QBEIXZ 1000a950 f i Aimbot.obj
 0001:00009950       ?_Unchecked_end@?$vector@PAV?$ConfigValue@H@@V?$allocator@PAV?$ConfigValue@H@@@std@@@std@@QAEPAPAV?$ConfigValue@H@@XZ 1000a950 f i TGFCfg.obj
 0001:00009950       ?_Unchecked_end@?$vector@VVector@@V?$allocator@VVector@@@std@@@std@@QAEPAVVector@@XZ 1000a950 f i Aimbot.obj
 0001:00009950       ?_Unchecked_end@?$vector@PAV?$ConfigValue@M@@V?$allocator@PAV?$ConfigValue@M@@@std@@@std@@QAEPAPAV?$ConfigValue@M@@XZ 1000a950 f i TGFCfg.obj
 0001:00009950       ?_Unchecked_end@?$vector@Umulti_select_item@zgui@@V?$allocator@Umulti_select_item@zgui@@@std@@@std@@QAEPAUmulti_select_item@zgui@@XZ 1000a950 f i zgui.obj
 0001:00009950       ?_Unchecked_end@?$vector@PAV?$ConfigValue@_N@@V?$allocator@PAV?$ConfigValue@_N@@@std@@@std@@QAEPAPAV?$ConfigValue@_N@@XZ 1000a950 f i TGFCfg.obj
 0001:00009950       ?_Unchecked_end@?$vector@HV?$allocator@H@std@@@std@@QAEPAHXZ 1000a950 f i Aimbot.obj
 0001:00009950       ?_Unchecked_end@?$vector@PBDV?$allocator@PBD@std@@@std@@QAEPAPBDXZ 1000a950 f i Hooks.obj
 0001:00009970       ?_Unchecked_splice@?$list@U?$pair@$$CBV?$basic_string@DU?$char_traits@D@std@@V?$allocator@D@2@@std@@V?$shared_ptr@UNode@NetvarTree@@@2@@std@@V?$allocator@U?$pair@$$CBV?$basic_string@DU?$char_traits@D@std@@V?$allocator@D@2@@std@@V?$shared_ptr@UNode@NetvarTree@@@2@@std@@@2@@std@@QAEXV?$_List_unchecked_const_iterator@V?$_List_val@U?$_List_simple_types@U?$pair@$$CBV?$basic_string@DU?$char_traits@D@std@@V?$allocator@D@2@@std@@V?$shared_ptr@UNode@NetvarTree@@@2@@std@@@std@@@std@@U_Iterator_base0@2@@2@00@Z 1000a970 f i Aimbot.obj
 0001:000099d0       ?_Unlinknode@?$list@U?$pair@$$CBV?$basic_string@DU?$char_traits@D@std@@V?$allocator@D@2@@std@@V?$shared_ptr@UNode@NetvarTree@@@2@@std@@V?$allocator@U?$pair@$$CBV?$basic_string@DU?$char_traits@D@std@@V?$allocator@D@2@@std@@V?$shared_ptr@UNode@NetvarTree@@@2@@std@@@2@@std@@QAEPAU?$_List_node@U?$pair@$$CBV?$basic_string@DU?$char_traits@D@std@@V?$allocator@D@2@@std@@V?$shared_ptr@UNode@NetvarTree@@@2@@std@@PAX@2@V?$_List_const_iterator@V?$_List_val@U?$_List_simple_types@U?$pair@$$CBV?$basic_string@DU?$char_traits@D@std@@V?$allocator@D@2@@std@@V?$shared_ptr@UNode@NetvarTree@@@2@@std@@@std@@@std@@@2@@Z 1000a9d0 f i Aimbot.obj
 0001:00009a20       ?_Unwrapped@?$_List_iterator@V?$_List_val@U?$_List_simple_types@U?$pair@$$CBV?$basic_string@DU?$char_traits@D@std@@V?$allocator@D@2@@std@@V?$shared_ptr@UNode@NetvarTree@@@2@@std@@@std@@@std@@@std@@QBE?AV?$_List_unchecked_iterator@V?$_List_val@U?$_List_simple_types@U?$pair@$$CBV?$basic_string@DU?$char_traits@D@std@@V?$allocator@D@2@@std@@V?$shared_ptr@UNode@NetvarTree@@@2@@std@@@std@@@std@@@2@XZ 1000aa20 f i Aimbot.obj
 0001:00009a60       ?_Vec_hi@?$_Hash@V?$_Umap_traits@V?$basic_string@DU?$char_traits@D@std@@V?$allocator@D@2@@std@@V?$shared_ptr@UNode@NetvarTree@@@2@V?$_Uhash_compare@V?$basic_string@DU?$char_traits@D@std@@V?$allocator@D@2@@std@@U?$hash@V?$basic_string@DU?$char_traits@D@std@@V?$allocator@D@2@@std@@@2@U?$equal_to@V?$basic_string@DU?$char_traits@D@std@@V?$allocator@D@2@@std@@@2@@2@V?$allocator@U?$pair@$$CBV?$basic_string@DU?$char_traits@D@std@@V?$allocator@D@2@@std@@V?$shared_ptr@UNode@NetvarTree@@@2@@std@@@2@$0A@@std@@@std@@IAEAAV?$_List_unchecked_iterator@V?$_List_val@U?$_List_simple_types@U?$pair@$$CBV?$basic_string@DU?$char_traits@D@std@@V?$allocator@D@2@@std@@V?$shared_ptr@UNode@NetvarTree@@@2@@std@@@std@@@std@@@2@I@Z 1000aa60 f i Aimbot.obj
 0001:00009a90       ?_Vec_lo@?$_Hash@V?$_Umap_traits@V?$basic_string@DU?$char_traits@D@std@@V?$allocator@D@2@@std@@V?$shared_ptr@UNode@NetvarTree@@@2@V?$_Uhash_compare@V?$basic_string@DU?$char_traits@D@std@@V?$allocator@D@2@@std@@U?$hash@V?$basic_string@DU?$char_traits@D@std@@V?$allocator@D@2@@std@@@2@U?$equal_to@V?$basic_string@DU?$char_traits@D@std@@V?$allocator@D@2@@std@@@2@@2@V?$allocator@U?$pair@$$CBV?$basic_string@DU?$char_traits@D@std@@V?$allocator@D@2@@std@@V?$shared_ptr@UNode@NetvarTree@@@2@@std@@@2@$0A@@std@@@std@@IAEAAV?$_List_unchecked_iterator@V?$_List_val@U?$_List_simple_types@U?$pair@$$CBV?$basic_string@DU?$char_traits@D@std@@V?$allocator@D@2@@std@@V?$shared_ptr@UNode@NetvarTree@@@2@@std@@@std@@@std@@@2@I@Z 1000aa90 f i Aimbot.obj
 0001:00009ac0       ?_Xlen@?$basic_string@_WU?$char_traits@_W@std@@V?$allocator@_W@2@@std@@SAXXZ 1000aac0 f i Hooks.obj
 0001:00009ac0       ?_Xlen@?$basic_string@DU?$char_traits@D@std@@V?$allocator@D@2@@std@@SAXXZ 1000aac0 f i Aimbot.obj
 0001:00009ad0       ?_Xlength@?$vector@PAV?$ConfigValue@M@@V?$allocator@PAV?$ConfigValue@M@@@std@@@std@@CAXXZ 1000aad0 f i TGFCfg.obj
 0001:00009ad0       ?_Xlength@?$vector@UHitMarker_t@@V?$allocator@UHitMarker_t@@@std@@@std@@CAXXZ 1000aad0 f i Hooks.obj
 0001:00009ad0       ?_Xlength@?$vector@Uzgui_control_render_t@zgui@@V?$allocator@Uzgui_control_render_t@zgui@@@std@@@std@@CAXXZ 1000aad0 f i zgui.obj
 0001:00009ad0       ?_Xlength@?$vector@Vtrace_info@@V?$allocator@Vtrace_info@@@std@@@std@@CAXXZ 1000aad0 f i Hooks.obj
 0001:00009ad0       ?_Xlength@?$vector@VVector@@V?$allocator@VVector@@@std@@@std@@CAXXZ 1000aad0 f i Aimbot.obj
 0001:00009ad0       ?_Xlength@?$vector@PBDV?$allocator@PBD@std@@@std@@CAXXZ 1000aad0 f i Hooks.obj
 0001:00009ad0       ?_Xlength@?$vector@V?$_List_unchecked_iterator@V?$_List_val@U?$_List_simple_types@U?$pair@$$CBV?$basic_string@DU?$char_traits@D@std@@V?$allocator@D@2@@std@@V?$shared_ptr@UNode@NetvarTree@@@2@@std@@@std@@@std@@@std@@V?$allocator@V?$_List_unchecked_iterator@V?$_List_val@U?$_List_simple_types@U?$pair@$$CBV?$basic_string@DU?$char_traits@D@std@@V?$allocator@D@2@@std@@V?$shared_ptr@UNode@NetvarTree@@@2@@std@@@std@@@std@@@std@@@2@@std@@CAXXZ 1000aad0 f i Aimbot.obj
 0001:00009ad0       ?_Xlength@?$vector@PAV?$ConfigValue@H@@V?$allocator@PAV?$ConfigValue@H@@@std@@@std@@CAXXZ 1000aad0 f i TGFCfg.obj
 0001:00009ad0       ?_Xlength@?$vector@PAV?$ConfigValue@_N@@V?$allocator@PAV?$ConfigValue@_N@@@std@@@std@@CAXXZ 1000aad0 f i TGFCfg.obj
 0001:00009ad0       ?_Xlength@?$vector@HV?$allocator@H@std@@@std@@CAXXZ 1000aad0 f i Aimbot.obj
 0001:00009ad0       ?_Xlength@?$vector@V?$basic_string@DU?$char_traits@D@std@@V?$allocator@D@2@@std@@V?$allocator@V?$basic_string@DU?$char_traits@D@std@@V?$allocator@D@2@@std@@@2@@std@@CAXXZ 1000aad0 f i zgui.obj
 0001:00009ad0       ?_Xlength@?$vector@UVertex_t@@V?$allocator@UVertex_t@@@std@@@std@@CAXXZ 1000aad0 f i ESP.obj
 0001:00009ad0       ?_Xlength@?$vector@Umulti_select_item@zgui@@V?$allocator@Umulti_select_item@zgui@@@std@@@std@@CAXXZ 1000aad0 f i Menu.obj
 0001:00009ae0       ?_Xran@?$deque@UPlayerRecords@@V?$allocator@UPlayerRecords@@@std@@@std@@IBEXXZ 1000aae0 f i Aimbot.obj
 0001:00009b00       ?allocate@?$allocator@D@std@@QAEPADI@Z 1000ab00 f i Aimbot.obj
 0001:00009b30       ?allocate@?$allocator@PAV?$ConfigValue@M@@@std@@QAEPAPAV?$ConfigValue@M@@I@Z 1000ab30 f i TGFCfg.obj
 0001:00009b30       ?allocate@?$allocator@H@std@@QAEPAHI@Z 1000ab30 f i Aimbot.obj
 0001:00009b30       ?allocate@?$allocator@PAUvec2@zgui@@@std@@QAEPAPAUvec2@zgui@@I@Z 1000ab30 f i zgui.obj
 0001:00009b30       ?allocate@?$allocator@PAV?$ConfigValue@_N@@@std@@QAEPAPAV?$ConfigValue@_N@@I@Z 1000ab30 f i TGFCfg.obj
 0001:00009b30       ?allocate@?$allocator@V?$_List_unchecked_iterator@V?$_List_val@U?$_List_simple_types@U?$pair@$$CBV?$basic_string@DU?$char_traits@D@std@@V?$allocator@D@2@@std@@V?$shared_ptr@UNode@NetvarTree@@@2@@std@@@std@@@std@@@std@@@std@@QAEPAV?$_List_unchecked_iterator@V?$_List_val@U?$_List_simple_types@U?$pair@$$CBV?$basic_string@DU?$char_traits@D@std@@V?$allocator@D@2@@std@@V?$shared_ptr@UNode@NetvarTree@@@2@@std@@@std@@@std@@@2@I@Z 1000ab30 f i Aimbot.obj
 0001:00009b30       ?allocate@?$allocator@PAV?$ConfigValue@H@@@std@@QAEPAPAV?$ConfigValue@H@@I@Z 1000ab30 f i TGFCfg.obj
 0001:00009b30       ?allocate@?$allocator@PBD@std@@QAEPAPBDI@Z 1000ab30 f i Hooks.obj
 0001:00009b30       ?allocate@?$allocator@PAUPlayerRecords@@@std@@QAEPAPAUPlayerRecords@@I@Z 1000ab30 f i LagComp.obj
 0001:00009b60       ?allocate@?$allocator@U?$_List_node@U?$pair@$$CBV?$basic_string@DU?$char_traits@D@std@@V?$allocator@D@2@@std@@V?$shared_ptr@UNode@NetvarTree@@@2@@std@@PAX@std@@@std@@QAEPAU?$_List_node@U?$pair@$$CBV?$basic_string@DU?$char_traits@D@std@@V?$allocator@D@2@@std@@V?$shared_ptr@UNode@NetvarTree@@@2@@std@@PAX@2@I@Z 1000ab60 f i Aimbot.obj
 0001:00009b90       ?allocate@?$allocator@VVector@@@std@@QAEPAVVector@@I@Z 1000ab90 f i Aimbot.obj
 0001:00009b90       ?allocate@?$allocator@Umulti_select_item@zgui@@@std@@QAEPAUmulti_select_item@zgui@@I@Z 1000ab90 f i Menu.obj
 0001:00009bc0       ?assign@?$basic_string@DU?$char_traits@D@std@@V?$allocator@D@2@@std@@QAEAAV12@QBD@Z 1000abc0 f i Aimbot.obj
 0001:00009bf0       ?assign@?$basic_string@DU?$char_traits@D@std@@V?$allocator@D@2@@std@@QAEAAV12@QBDI@Z 1000abf0 f i Aimbot.obj
 0001:00009c80       ?assign@?$char_traits@D@std@@SAXAADABD@Z 1000ac80 f i Aimbot.obj
 0001:00009c90       ?assign@?$vector@V?$_List_unchecked_iterator@V?$_List_val@U?$_List_simple_types@U?$pair@$$CBV?$basic_string@DU?$char_traits@D@std@@V?$allocator@D@2@@std@@V?$shared_ptr@UNode@NetvarTree@@@2@@std@@@std@@@std@@@std@@V?$allocator@V?$_List_unchecked_iterator@V?$_List_val@U?$_List_simple_types@U?$pair@$$CBV?$basic_string@DU?$char_traits@D@std@@V?$allocator@D@2@@std@@V?$shared_ptr@UNode@NetvarTree@@@2@@std@@@std@@@std@@@std@@@2@@std@@QAEXIABV?$_List_unchecked_iterator@V?$_List_val@U?$_List_simple_types@U?$pair@$$CBV?$basic_string@DU?$char_traits@D@std@@V?$allocator@D@2@@std@@V?$shared_ptr@UNode@NetvarTree@@@2@@std@@@std@@@std@@@2@@Z 1000ac90 f i Aimbot.obj
 0001:00009e40       ?at@?$deque@UPlayerRecords@@V?$allocator@UPlayerRecords@@@std@@@std@@QAEAAUPlayerRecords@@I@Z 1000ae40 f i Aimbot.obj
 0001:00009ef0       ?autoscope@@YAXXZ          1000aef0 f   Aimbot.obj
 0001:00009f90       ?begin@?$deque@UPlayerRecords@@V?$allocator@UPlayerRecords@@@std@@@std@@QAE?AV?$_Deque_iterator@V?$_Deque_val@U?$_Deque_simple_types@UPlayerRecords@@@std@@@std@@@2@XZ 1000af90 f i Aimbot.obj
 0001:0000a000       ?begin@?$list@U?$pair@$$CBV?$basic_string@DU?$char_traits@D@std@@V?$allocator@D@2@@std@@V?$shared_ptr@UNode@NetvarTree@@@2@@std@@V?$allocator@U?$pair@$$CBV?$basic_string@DU?$char_traits@D@std@@V?$allocator@D@2@@std@@V?$shared_ptr@UNode@NetvarTree@@@2@@std@@@2@@std@@QAE?AV?$_List_iterator@V?$_List_val@U?$_List_simple_types@U?$pair@$$CBV?$basic_string@DU?$char_traits@D@std@@V?$allocator@D@2@@std@@V?$shared_ptr@UNode@NetvarTree@@@2@@std@@@std@@@std@@@2@XZ 1000b000 f i Aimbot.obj
 0001:0000a070       ?bucket_count@?$_Hash@V?$_Umap_traits@V?$basic_string@DU?$char_traits@D@std@@V?$allocator@D@2@@std@@V?$shared_ptr@UNode@NetvarTree@@@2@V?$_Uhash_compare@V?$basic_string@DU?$char_traits@D@std@@V?$allocator@D@2@@std@@U?$hash@V?$basic_string@DU?$char_traits@D@std@@V?$allocator@D@2@@std@@@2@U?$equal_to@V?$basic_string@DU?$char_traits@D@std@@V?$allocator@D@2@@std@@@2@@2@V?$allocator@U?$pair@$$CBV?$basic_string@DU?$char_traits@D@std@@V?$allocator@D@2@@std@@V?$shared_ptr@UNode@NetvarTree@@@2@@std@@@2@$0A@@std@@@std@@QBEIXZ 1000b070 f i Aimbot.obj
 0001:0000a090       ?data@?$basic_string@DU?$char_traits@D@std@@V?$allocator@D@2@@std@@QAEPADXZ 1000b090 f i zgui.obj
 0001:0000a090       ?c_str@?$basic_string@DU?$char_traits@D@std@@V?$allocator@D@2@@std@@QBEPBDXZ 1000b090 f i Aimbot.obj
 0001:0000a0d0       ?capacity@?$vector@PAV?$ConfigValue@M@@V?$allocator@PAV?$ConfigValue@M@@@std@@@std@@QBEIXZ 1000b0d0 f i TGFCfg.obj
 0001:0000a0d0       ?capacity@?$vector@PAVIMaterial@@V?$allocator@PAVIMaterial@@@std@@@std@@QBEIXZ 1000b0d0 f i Chams.obj
 0001:0000a0d0       ?capacity@?$vector@PAV?$ConfigValue@_N@@V?$allocator@PAV?$ConfigValue@_N@@@std@@@std@@QBEIXZ 1000b0d0 f i TGFCfg.obj
 0001:0000a0d0       ?capacity@?$vector@V?$_List_unchecked_iterator@V?$_List_val@U?$_List_simple_types@U?$pair@$$CBV?$basic_string@DU?$char_traits@D@std@@V?$allocator@D@2@@std@@V?$shared_ptr@UNode@NetvarTree@@@2@@std@@@std@@@std@@@std@@V?$allocator@V?$_List_unchecked_iterator@V?$_List_val@U?$_List_simple_types@U?$pair@$$CBV?$basic_string@DU?$char_traits@D@std@@V?$allocator@D@2@@std@@V?$shared_ptr@UNode@NetvarTree@@@2@@std@@@std@@@std@@@std@@@2@@std@@QBEIXZ 1000b0d0 f i Aimbot.obj
 0001:0000a0d0       ?capacity@?$vector@PAV?$ConfigValue@H@@V?$allocator@PAV?$ConfigValue@H@@@std@@@std@@QBEIXZ 1000b0d0 f i TGFCfg.obj
 0001:0000a0d0       ?capacity@?$vector@PBDV?$allocator@PBD@std@@@std@@QBEIXZ 1000b0d0 f i Hooks.obj
 0001:0000a0d0       ?capacity@?$vector@HV?$allocator@H@std@@@std@@QBEIXZ 1000b0d0 f i Aimbot.obj
 0001:0000a100       ?capacity@?$vector@VVector@@V?$allocator@VVector@@@std@@@std@@QBEIXZ 1000b100 f i Aimbot.obj
 0001:0000a100       ?capacity@?$vector@Umulti_select_item@zgui@@V?$allocator@Umulti_select_item@zgui@@@std@@@std@@QBEIXZ 1000b100 f i zgui.obj
 0001:0000a130       ?compare@?$char_traits@D@std@@SAHQBD0I@Z 1000b130 f i Aimbot.obj
 0001:0000a160       ?copy@?$char_traits@D@std@@SAPADQADQBDI@Z 1000b160 f i Aimbot.obj
 0001:0000a180       ?cos@@YAMM@Z               1000b180 f i Aimbot.obj
 0001:0000a1a0       ?deallocate@?$_Default_allocator_traits@V?$allocator@U?$_List_node@U?$pair@$$CBV?$basic_string@DU?$char_traits@D@std@@V?$allocator@D@2@@std@@V?$shared_ptr@UNode@NetvarTree@@@2@@std@@PAX@std@@@std@@@std@@SAXAAV?$allocator@U?$_List_node@U?$pair@$$CBV?$basic_string@DU?$char_traits@D@std@@V?$allocator@D@2@@std@@V?$shared_ptr@UNode@NetvarTree@@@2@@std@@PAX@std@@@2@QAU?$_List_node@U?$pair@$$CBV?$basic_string@DU?$char_traits@D@std@@V?$allocator@D@2@@std@@V?$shared_ptr@UNode@NetvarTree@@@2@@std@@PAX@2@I@Z 1000b1a0 f i Aimbot.obj
 0001:0000a1c0       ?deallocate@?$allocator@D@std@@QAEXQADI@Z 1000b1c0 f i Aimbot.obj
 0001:0000a1e0       ?deallocate@?$allocator@PAV?$ConfigValue@H@@@std@@QAEXQAPAV?$ConfigValue@H@@I@Z 1000b1e0 f i TGFCfg.obj
 0001:0000a1e0       ?deallocate@?$allocator@V?$_List_unchecked_iterator@V?$_List_val@U?$_List_simple_types@U?$pair@$$CBV?$basic_string@DU?$char_traits@D@std@@V?$allocator@D@2@@std@@V?$shared_ptr@UNode@NetvarTree@@@2@@std@@@std@@@std@@@std@@@std@@QAEXQAV?$_List_unchecked_iterator@V?$_List_val@U?$_List_simple_types@U?$pair@$$CBV?$basic_string@DU?$char_traits@D@std@@V?$allocator@D@2@@std@@V?$shared_ptr@UNode@NetvarTree@@@2@@std@@@std@@@std@@@2@I@Z 1000b1e0 f i Aimbot.obj
 0001:0000a1e0       ?deallocate@?$allocator@PBD@std@@QAEXQAPBDI@Z 1000b1e0 f i Hooks.obj
 0001:0000a1e0       ?deallocate@?$allocator@PAUvec2@zgui@@@std@@QAEXQAPAUvec2@zgui@@I@Z 1000b1e0 f i zgui.obj
 0001:0000a1e0       ?deallocate@?$allocator@PAV?$ConfigValue@_N@@@std@@QAEXQAPAV?$ConfigValue@_N@@I@Z 1000b1e0 f i TGFCfg.obj
 0001:0000a1e0       ?deallocate@?$allocator@PAVIMaterial@@@std@@QAEXQAPAVIMaterial@@I@Z 1000b1e0 f i Chams.obj
 0001:0000a1e0       ?deallocate@?$allocator@H@std@@QAEXQAHI@Z 1000b1e0 f i Aimbot.obj
 0001:0000a1e0       ?deallocate@?$allocator@PAV?$ConfigValue@M@@@std@@QAEXQAPAV?$ConfigValue@M@@I@Z 1000b1e0 f i TGFCfg.obj
 0001:0000a1e0       ?deallocate@?$allocator@PAUPlayerRecords@@@std@@QAEXQAPAUPlayerRecords@@I@Z 1000b1e0 f i LagComp.obj
 0001:0000a200       ?deallocate@?$allocator@U?$_List_node@U?$pair@$$CBV?$basic_string@DU?$char_traits@D@std@@V?$allocator@D@2@@std@@V?$shared_ptr@UNode@NetvarTree@@@2@@std@@PAX@std@@@std@@QAEXQAU?$_List_node@U?$pair@$$CBV?$basic_string@DU?$char_traits@D@std@@V?$allocator@D@2@@std@@V?$shared_ptr@UNode@NetvarTree@@@2@@std@@PAX@2@I@Z 1000b200 f i Aimbot.obj
 0001:0000a220       ?deallocate@?$allocator@Umulti_select_item@zgui@@@std@@QAEXQAUmulti_select_item@zgui@@I@Z 1000b220 f i zgui.obj
 0001:0000a220       ?deallocate@?$allocator@VVector@@@std@@QAEXQAVVector@@I@Z 1000b220 f i Aimbot.obj
 0001:0000a240       ?end@?$_Hash@V?$_Umap_traits@V?$basic_string@DU?$char_traits@D@std@@V?$allocator@D@2@@std@@V?$shared_ptr@UNode@NetvarTree@@@2@V?$_Uhash_compare@V?$basic_string@DU?$char_traits@D@std@@V?$allocator@D@2@@std@@U?$hash@V?$basic_string@DU?$char_traits@D@std@@V?$allocator@D@2@@std@@@2@U?$equal_to@V?$basic_string@DU?$char_traits@D@std@@V?$allocator@D@2@@std@@@2@@2@V?$allocator@U?$pair@$$CBV?$basic_string@DU?$char_traits@D@std@@V?$allocator@D@2@@std@@V?$shared_ptr@UNode@NetvarTree@@@2@@std@@@2@$0A@@std@@@std@@QAE?AV?$_List_iterator@V?$_List_val@U?$_List_simple_types@U?$pair@$$CBV?$basic_string@DU?$char_traits@D@std@@V?$allocator@D@2@@std@@V?$shared_ptr@UNode@NetvarTree@@@2@@std@@@std@@@std@@@2@XZ 1000b240 f i Aimbot.obj
 0001:0000a270       ?end@?$list@U?$pair@$$CBV?$basic_string@DU?$char_traits@D@std@@V?$allocator@D@2@@std@@V?$shared_ptr@UNode@NetvarTree@@@2@@std@@V?$allocator@U?$pair@$$CBV?$basic_string@DU?$char_traits@D@std@@V?$allocator@D@2@@std@@V?$shared_ptr@UNode@NetvarTree@@@2@@std@@@2@@std@@QAE?AV?$_List_iterator@V?$_List_val@U?$_List_simple_types@U?$pair@$$CBV?$basic_string@DU?$char_traits@D@std@@V?$allocator@D@2@@std@@V?$shared_ptr@UNode@NetvarTree@@@2@@std@@@std@@@std@@@2@XZ 1000b270 f i Aimbot.obj
 0001:0000a2e0       ?erase@?$_Hash@V?$_Umap_traits@V?$basic_string@DU?$char_traits@D@std@@V?$allocator@D@2@@std@@V?$shared_ptr@UNode@NetvarTree@@@2@V?$_Uhash_compare@V?$basic_string@DU?$char_traits@D@std@@V?$allocator@D@2@@std@@U?$hash@V?$basic_string@DU?$char_traits@D@std@@V?$allocator@D@2@@std@@@2@U?$equal_to@V?$basic_string@DU?$char_traits@D@std@@V?$allocator@D@2@@std@@@2@@2@V?$allocator@U?$pair@$$CBV?$basic_string@DU?$char_traits@D@std@@V?$allocator@D@2@@std@@V?$shared_ptr@UNode@NetvarTree@@@2@@std@@@2@$0A@@std@@@std@@QAE?AV?$_List_iterator@V?$_List_val@U?$_List_simple_types@U?$pair@$$CBV?$basic_string@DU?$char_traits@D@std@@V?$allocator@D@2@@std@@V?$shared_ptr@UNode@NetvarTree@@@2@@std@@@std@@@std@@@2@V?$_List_const_iterator@V?$_List_val@U?$_List_simple_types@U?$pair@$$CBV?$basic_string@DU?$char_traits@D@std@@V?$allocator@D@2@@std@@V?$shared_ptr@UNode@NetvarTree@@@2@@std@@@std@@@std@@@2@@Z 1000b2e0 f i Aimbot.obj
 0001:0000a350       ?erase@?$list@U?$pair@$$CBV?$basic_string@DU?$char_traits@D@std@@V?$allocator@D@2@@std@@V?$shared_ptr@UNode@NetvarTree@@@2@@std@@V?$allocator@U?$pair@$$CBV?$basic_string@DU?$char_traits@D@std@@V?$allocator@D@2@@std@@V?$shared_ptr@UNode@NetvarTree@@@2@@std@@@2@@std@@QAE?AV?$_List_iterator@V?$_List_val@U?$_List_simple_types@U?$pair@$$CBV?$basic_string@DU?$char_traits@D@std@@V?$allocator@D@2@@std@@V?$shared_ptr@UNode@NetvarTree@@@2@@std@@@std@@@std@@@2@V?$_List_const_iterator@V?$_List_val@U?$_List_simple_types@U?$pair@$$CBV?$basic_string@DU?$char_traits@D@std@@V?$allocator@D@2@@std@@V?$shared_ptr@UNode@NetvarTree@@@2@@std@@@std@@@std@@@2@@Z 1000b350 f i Aimbot.obj
 0001:0000a3a0       ?find@?$_Hash@V?$_Umap_traits@V?$basic_string@DU?$char_traits@D@std@@V?$allocator@D@2@@std@@V?$shared_ptr@UNode@NetvarTree@@@2@V?$_Uhash_compare@V?$basic_string@DU?$char_traits@D@std@@V?$allocator@D@2@@std@@U?$hash@V?$basic_string@DU?$char_traits@D@std@@V?$allocator@D@2@@std@@@2@U?$equal_to@V?$basic_string@DU?$char_traits@D@std@@V?$allocator@D@2@@std@@@2@@2@V?$allocator@U?$pair@$$CBV?$basic_string@DU?$char_traits@D@std@@V?$allocator@D@2@@std@@V?$shared_ptr@UNode@NetvarTree@@@2@@std@@@2@$0A@@std@@@std@@QAE?AV?$_List_iterator@V?$_List_val@U?$_List_simple_types@U?$pair@$$CBV?$basic_string@DU?$char_traits@D@std@@V?$allocator@D@2@@std@@V?$shared_ptr@UNode@NetvarTree@@@2@@std@@@std@@@std@@@2@ABV?$basic_string@DU?$char_traits@D@std@@V?$allocator@D@2@@2@@Z 1000b3a0 f i Aimbot.obj
 0001:0000a3c0       ?front@?$list@U?$pair@$$CBV?$basic_string@DU?$char_traits@D@std@@V?$allocator@D@2@@std@@V?$shared_ptr@UNode@NetvarTree@@@2@@std@@V?$allocator@U?$pair@$$CBV?$basic_string@DU?$char_traits@D@std@@V?$allocator@D@2@@std@@V?$shared_ptr@UNode@NetvarTree@@@2@@std@@@2@@std@@QAEAAU?$pair@$$CBV?$basic_string@DU?$char_traits@D@std@@V?$allocator@D@2@@std@@V?$shared_ptr@UNode@NetvarTree@@@2@@2@XZ 1000b3c0 f i Aimbot.obj
 0001:0000a3e0       ??D?$_String_const_iterator@V?$_String_val@U?$_Simple_types@D@std@@@std@@@std@@QBEABDXZ 1000b3e0 f i Interfaces.obj
 0001:0000a3e0       ?data@?$basic_string_view@DU?$char_traits@D@std@@@std@@QBEPBDXZ 1000b3e0 f i zgui.obj
 0001:0000a3e0       ?begin@?$initializer_list@V?$basic_string@DU?$char_traits@D@std@@V?$allocator@D@2@@std@@@std@@QBEPBV?$basic_string@DU?$char_traits@D@std@@V?$allocator@D@2@@2@XZ 1000b3e0 f i Menu.obj
 0001:0000a3e0       ??$as@PAVCClientState@@@Address@@QBEPAVCClientState@@XZ 1000b3e0 f i Interfaces.obj
 0001:0000a3e0       ?begin@?$initializer_list@PBD@std@@QBEPBQBDXZ 1000b3e0 f i Hooks.obj
 0001:0000a3e0       ?get@?$_Ptr_base@UNode@NetvarTree@@@std@@IBEPAUNode@NetvarTree@@XZ 1000b3e0 f i Aimbot.obj
 0001:0000a3e0       ?value@error_code@std@@QBEHXZ 1000b3e0 f i zgui.obj
 0001:0000a3e0       ?GetName@RecvProp@@QBEPBDXZ 1000b3e0 f i NetvarManager.obj
 0001:0000a3e0       ??BAddress@@QAEPBXXZ       1000b3e0 f i Interfaces.obj
 0001:0000a3e0       ??BAddress@@QAEIXZ         1000b3e0 f i Interfaces.obj
 0001:0000a3e0       ?begin@?$initializer_list@Umulti_select_item@zgui@@@std@@QBEPBUmulti_select_item@zgui@@XZ 1000b3e0 f i Menu.obj
 0001:0000a3e0       ?value@error_condition@std@@QBEHXZ 1000b3e0 f i zgui.obj
 0001:0000a3f0       ?length@?$char_traits@D@std@@SAIQBD@Z 1000b3f0 f i Aimbot.obj
 0001:0000a430       ?load_factor@?$_Hash@V?$_Umap_traits@V?$basic_string@DU?$char_traits@D@std@@V?$allocator@D@2@@std@@V?$shared_ptr@UNode@NetvarTree@@@2@V?$_Uhash_compare@V?$basic_string@DU?$char_traits@D@std@@V?$allocator@D@2@@std@@U?$hash@V?$basic_string@DU?$char_traits@D@std@@V?$allocator@D@2@@std@@@2@U?$equal_to@V?$basic_string@DU?$char_traits@D@std@@V?$allocator@D@2@@std@@@2@@2@V?$allocator@U?$pair@$$CBV?$basic_string@DU?$char_traits@D@std@@V?$allocator@D@2@@std@@V?$shared_ptr@UNode@NetvarTree@@@2@@std@@@2@$0A@@std@@@std@@QBEMXZ 1000b430 f i Aimbot.obj
 0001:0000a4b0       ?lower_bound@?$_Hash@V?$_Umap_traits@V?$basic_string@DU?$char_traits@D@std@@V?$allocator@D@2@@std@@V?$shared_ptr@UNode@NetvarTree@@@2@V?$_Uhash_compare@V?$basic_string@DU?$char_traits@D@std@@V?$allocator@D@2@@std@@U?$hash@V?$basic_string@DU?$char_traits@D@std@@V?$allocator@D@2@@std@@@2@U?$equal_to@V?$basic_string@DU?$char_traits@D@std@@V?$allocator@D@2@@std@@@2@@2@V?$allocator@U?$pair@$$CBV?$basic_string@DU?$char_traits@D@std@@V?$allocator@D@2@@std@@V?$shared_ptr@UNode@NetvarTree@@@2@@std@@@2@$0A@@std@@@std@@QAE?AV?$_List_iterator@V?$_List_val@U?$_List_simple_types@U?$pair@$$CBV?$basic_string@DU?$char_traits@D@std@@V?$allocator@D@2@@std@@V?$shared_ptr@UNode@NetvarTree@@@2@@std@@@std@@@std@@@2@ABV?$basic_string@DU?$char_traits@D@std@@V?$allocator@D@2@@2@@Z 1000b4b0 f i Aimbot.obj
 0001:0000a5c0       ?max_size@?$_Default_allocator_traits@V?$allocator@_W@std@@@std@@SAIABV?$allocator@_W@2@@Z 1000b5c0 f i Hooks.obj
 0001:0000a5c0       ?max@?$numeric_limits@H@std@@SAHXZ 1000b5c0 f i Aimbot.obj
 0001:0000a5d0       ?max_load_factor@?$_Hash@V?$_Umap_traits@V?$basic_string@DU?$char_traits@D@std@@V?$allocator@D@2@@std@@V?$shared_ptr@UNode@NetvarTree@@@2@V?$_Uhash_compare@V?$basic_string@DU?$char_traits@D@std@@V?$allocator@D@2@@std@@U?$hash@V?$basic_string@DU?$char_traits@D@std@@V?$allocator@D@2@@std@@@2@U?$equal_to@V?$basic_string@DU?$char_traits@D@std@@V?$allocator@D@2@@std@@@2@@2@V?$allocator@U?$pair@$$CBV?$basic_string@DU?$char_traits@D@std@@V?$allocator@D@2@@std@@V?$shared_ptr@UNode@NetvarTree@@@2@@std@@@2@$0A@@std@@@std@@QBEMXZ 1000b5d0 f i Aimbot.obj
 0001:0000a600       ?eof@?$char_traits@D@std@@SAHXZ 1000b600 f i zgui.obj
 0001:0000a600       ?max_size@?$_Default_allocator_traits@V?$allocator@D@std@@@std@@SAIABV?$allocator@D@2@@Z 1000b600 f i Aimbot.obj
 0001:0000a610       ?max_size@?$_Default_allocator_traits@V?$allocator@PBD@std@@@std@@SAIABV?$allocator@PBD@2@@Z 1000b610 f i Hooks.obj
 0001:0000a610       ?max_size@?$_Default_allocator_traits@V?$allocator@PAV?$ConfigValue@M@@@std@@@std@@SAIABV?$allocator@PAV?$ConfigValue@M@@@2@@Z 1000b610 f i TGFCfg.obj
 0001:0000a610       ?max_size@?$_Default_allocator_traits@V?$allocator@H@std@@@std@@SAIABV?$allocator@H@2@@Z 1000b610 f i Aimbot.obj
 0001:0000a610       ?max_size@?$_Default_allocator_traits@V?$allocator@PAV?$ConfigValue@H@@@std@@@std@@SAIABV?$allocator@PAV?$ConfigValue@H@@@2@@Z 1000b610 f i TGFCfg.obj
 0001:0000a610       ?max_size@?$_Default_allocator_traits@V?$allocator@PAV?$ConfigValue@_N@@@std@@@std@@SAIABV?$allocator@PAV?$ConfigValue@_N@@@2@@Z 1000b610 f i TGFCfg.obj
 0001:0000a610       ?max_size@?$_Default_allocator_traits@V?$allocator@V?$_List_unchecked_iterator@V?$_List_val@U?$_List_simple_types@U?$pair@$$CBV?$basic_string@DU?$char_traits@D@std@@V?$allocator@D@2@@std@@V?$shared_ptr@UNode@NetvarTree@@@2@@std@@@std@@@std@@@std@@@std@@@std@@SAIABV?$allocator@V?$_List_unchecked_iterator@V?$_List_val@U?$_List_simple_types@U?$pair@$$CBV?$basic_string@DU?$char_traits@D@std@@V?$allocator@D@2@@std@@V?$shared_ptr@UNode@NetvarTree@@@2@@std@@@std@@@std@@@std@@@2@@Z 1000b610 f i Aimbot.obj
 0001:0000a620       ?max_size@?$_Default_allocator_traits@V?$allocator@U?$_List_node@U?$pair@$$CBV?$basic_string@DU?$char_traits@D@std@@V?$allocator@D@2@@std@@V?$shared_ptr@UNode@NetvarTree@@@2@@std@@PAX@std@@@std@@@std@@SAIABV?$allocator@U?$_List_node@U?$pair@$$CBV?$basic_string@DU?$char_traits@D@std@@V?$allocator@D@2@@std@@V?$shared_ptr@UNode@NetvarTree@@@2@@std@@PAX@std@@@2@@Z 1000b620 f i Aimbot.obj
 0001:0000a630       ?max_size@?$_Default_allocator_traits@V?$allocator@VVector@@@std@@@std@@SAIABV?$allocator@VVector@@@2@@Z 1000b630 f i Aimbot.obj
 0001:0000a630       ?max_size@?$_Default_allocator_traits@V?$allocator@Umulti_select_item@zgui@@@std@@@std@@SAIABV?$allocator@Umulti_select_item@zgui@@@2@@Z 1000b630 f i Menu.obj
 0001:0000a640       ?max_size@?$basic_string@DU?$char_traits@D@std@@V?$allocator@D@2@@std@@QBEIXZ 1000b640 f i Aimbot.obj
 0001:0000a6a0       ?max_size@?$list@U?$pair@$$CBV?$basic_string@DU?$char_traits@D@std@@V?$allocator@D@2@@std@@V?$shared_ptr@UNode@NetvarTree@@@2@@std@@V?$allocator@U?$pair@$$CBV?$basic_string@DU?$char_traits@D@std@@V?$allocator@D@2@@std@@V?$shared_ptr@UNode@NetvarTree@@@2@@std@@@2@@std@@QBEIXZ 1000b6a0 f i Aimbot.obj
 0001:0000a6c0       ?max_size@?$vector@V?$_List_unchecked_iterator@V?$_List_val@U?$_List_simple_types@U?$pair@$$CBV?$basic_string@DU?$char_traits@D@std@@V?$allocator@D@2@@std@@V?$shared_ptr@UNode@NetvarTree@@@2@@std@@@std@@@std@@@std@@V?$allocator@V?$_List_unchecked_iterator@V?$_List_val@U?$_List_simple_types@U?$pair@$$CBV?$basic_string@DU?$char_traits@D@std@@V?$allocator@D@2@@std@@V?$shared_ptr@UNode@NetvarTree@@@2@@std@@@std@@@std@@@std@@@2@@std@@QBEIXZ 1000b6c0 f i Aimbot.obj
 0001:0000a6c0       ?max_size@?$vector@PAV?$ConfigValue@M@@V?$allocator@PAV?$ConfigValue@M@@@std@@@std@@QBEIXZ 1000b6c0 f i TGFCfg.obj
 0001:0000a6c0       ?max_size@?$vector@PAV?$ConfigValue@_N@@V?$allocator@PAV?$ConfigValue@_N@@@std@@@std@@QBEIXZ 1000b6c0 f i TGFCfg.obj
 0001:0000a6c0       ?max_size@?$vector@PAV?$ConfigValue@H@@V?$allocator@PAV?$ConfigValue@H@@@std@@@std@@QBEIXZ 1000b6c0 f i TGFCfg.obj
 0001:0000a6c0       ?max_size@?$vector@HV?$allocator@H@std@@@std@@QBEIXZ 1000b6c0 f i Aimbot.obj
 0001:0000a6c0       ?max_size@?$vector@PBDV?$allocator@PBD@std@@@std@@QBEIXZ 1000b6c0 f i Hooks.obj
 0001:0000a700       ?max_size@?$vector@VVector@@V?$allocator@VVector@@@std@@@std@@QBEIXZ 1000b700 f i Aimbot.obj
 0001:0000a700       ?max_size@?$vector@Umulti_select_item@zgui@@V?$allocator@Umulti_select_item@zgui@@@std@@@std@@QBEIXZ 1000b700 f i Menu.obj
 0001:0000a740       ?move@?$char_traits@D@std@@SAPADQADQBDI@Z 1000b740 f i Aimbot.obj
 0001:0000a760       ?player_death_event@Aimbot@@QAEXPAVIGameEvent@@@Z 1000b760 f   Aimbot.obj
 0001:0000a820       ?player_hurt_event@Aimbot@@QAEXPAVIGameEvent@@@Z 1000b820 f   Aimbot.obj
 0001:0000a900       ?pointer_to@?$pointer_traits@PAD@std@@SAPADAAD@Z 1000b900 f i zgui.obj
 0001:0000a900       ?pointer_to@?$pointer_traits@PAU?$pair@$$CBV?$basic_string@DU?$char_traits@D@std@@V?$allocator@D@2@@std@@V?$shared_ptr@UNode@NetvarTree@@@2@@std@@@std@@SAPAU?$pair@$$CBV?$basic_string@DU?$char_traits@D@std@@V?$allocator@D@2@@std@@V?$shared_ptr@UNode@NetvarTree@@@2@@2@AAU32@@Z 1000b900 f i Aimbot.obj
 0001:0000a920       ?push_back@?$vector@PAV?$ConfigValue@_N@@V?$allocator@PAV?$ConfigValue@_N@@@std@@@std@@QAEX$$QAPAV?$ConfigValue@_N@@@Z 1000b920 f i TGFCfg.obj
 0001:0000a920       ?push_back@?$vector@PAV?$ConfigValue@H@@V?$allocator@PAV?$ConfigValue@H@@@std@@@std@@QAEX$$QAPAV?$ConfigValue@H@@@Z 1000b920 f i TGFCfg.obj
 0001:0000a920       ?push_back@?$vector@HV?$allocator@H@std@@@std@@QAEX$$QAH@Z 1000b920 f i Aimbot.obj
 0001:0000a920       ?push_back@?$vector@PAV?$ConfigValue@M@@V?$allocator@PAV?$ConfigValue@M@@@std@@@std@@QAEX$$QAPAV?$ConfigValue@M@@@Z 1000b920 f i TGFCfg.obj
 0001:0000a950       ?reserve@?$vector@V?$_List_unchecked_iterator@V?$_List_val@U?$_List_simple_types@U?$pair@$$CBV?$basic_string@DU?$char_traits@D@std@@V?$allocator@D@2@@std@@V?$shared_ptr@UNode@NetvarTree@@@2@@std@@@std@@@std@@@std@@V?$allocator@V?$_List_unchecked_iterator@V?$_List_val@U?$_List_simple_types@U?$pair@$$CBV?$basic_string@DU?$char_traits@D@std@@V?$allocator@D@2@@std@@V?$shared_ptr@UNode@NetvarTree@@@2@@std@@@std@@@std@@@std@@@2@@std@@QAEXI@Z 1000b950 f i Aimbot.obj
 0001:0000a990       ?round_start_event@Aimbot@@QAEXPAVIGameEvent@@@Z 1000b990 f   Aimbot.obj
 0001:0000a9b0       ?sin@@YAMM@Z               1000b9b0 f i Aimbot.obj
 0001:0000a9d0       ?size@?$_Hash@V?$_Umap_traits@V?$basic_string@DU?$char_traits@D@std@@V?$allocator@D@2@@std@@V?$shared_ptr@UNode@NetvarTree@@@2@V?$_Uhash_compare@V?$basic_string@DU?$char_traits@D@std@@V?$allocator@D@2@@std@@U?$hash@V?$basic_string@DU?$char_traits@D@std@@V?$allocator@D@2@@std@@@2@U?$equal_to@V?$basic_string@DU?$char_traits@D@std@@V?$allocator@D@2@@std@@@2@@2@V?$allocator@U?$pair@$$CBV?$basic_string@DU?$char_traits@D@std@@V?$allocator@D@2@@std@@V?$shared_ptr@UNode@NetvarTree@@@2@@std@@@2@$0A@@std@@@std@@QBEIXZ 1000b9d0 f i Aimbot.obj
 0001:0000a9f0       ?size@?$basic_string@DU?$char_traits@D@std@@V?$allocator@D@2@@std@@QBEIXZ 1000b9f0 f i Aimbot.obj
 0001:0000a9f0       ?length@?$basic_string@DU?$char_traits@D@std@@V?$allocator@D@2@@std@@QBEIXZ 1000b9f0 f i zgui.obj
 0001:0000aa10       ?size@?$deque@UPlayerRecords@@V?$allocator@UPlayerRecords@@@std@@@std@@QBEIXZ 1000ba10 f i Aimbot.obj
 0001:0000aa30       ?size@?$vector@PAV?$ConfigValue@_N@@V?$allocator@PAV?$ConfigValue@_N@@@std@@@std@@QBEIXZ 1000ba30 f i TGFCfg.obj
 0001:0000aa30       ?size@?$vector@PAV?$ConfigValue@M@@V?$allocator@PAV?$ConfigValue@M@@@std@@@std@@QBEIXZ 1000ba30 f i TGFCfg.obj
 0001:0000aa30       ?size@?$vector@PAV?$ConfigValue@H@@V?$allocator@PAV?$ConfigValue@H@@@std@@@std@@QBEIXZ 1000ba30 f i TGFCfg.obj
 0001:0000aa30       ?size@?$vector@V?$_List_unchecked_iterator@V?$_List_val@U?$_List_simple_types@U?$pair@$$CBV?$basic_string@DU?$char_traits@D@std@@V?$allocator@D@2@@std@@V?$shared_ptr@UNode@NetvarTree@@@2@@std@@@std@@@std@@@std@@V?$allocator@V?$_List_unchecked_iterator@V?$_List_val@U?$_List_simple_types@U?$pair@$$CBV?$basic_string@DU?$char_traits@D@std@@V?$allocator@D@2@@std@@V?$shared_ptr@UNode@NetvarTree@@@2@@std@@@std@@@std@@@std@@@2@@std@@QBEIXZ 1000ba30 f i Aimbot.obj
 0001:0000aa30       ?size@?$vector@HV?$allocator@H@std@@@std@@QBEIXZ 1000ba30 f i Aimbot.obj
 0001:0000aa60       ?size@?$vector@Umulti_select_item@zgui@@V?$allocator@Umulti_select_item@zgui@@@std@@@std@@QBEIXZ 1000ba60 f i zgui.obj
 0001:0000aa60       ?size@?$vector@VVector@@V?$allocator@VVector@@@std@@@std@@QBEIXZ 1000ba60 f i Aimbot.obj
 0001:0000aa90       ?sqrt@@YAMM@Z              1000ba90 f i Aimbot.obj
 0001:0000aab0       _cosf                      1000bab0 f i Aimbot.obj
 0001:0000aad0       _sinf                      1000bad0 f i Aimbot.obj
 0001:0000aaf0       _sqrtf                     1000baf0 f i Aimbot.obj
 0001:0000ab10       ??$pow@MNX@@YANMN@Z        1000bb10 f i Autowall.obj
 0001:0000ab40       ??0C_TraceFilter@@QAE@PAVC_BaseEntity@@W4TraceType_t@@@Z 1000bb40 f i Autowall.obj
 0001:0000ab70       ??0FireBulletData@@QAE@ABVVector@@PAVC_BaseEntity@@@Z 1000bb70 f i Autowall.obj
 0001:0000abd0       ??0ITraceFilter@@QAE@XZ    1000bbd0 f i Autowall.obj
 0001:0000abf0       ??AVector@@QAEAAMH@Z       1000bbf0 f i Autowall.obj
 0001:0000ac10       ??R<lambda_8306b9bf967b1dc2e3a7715b585f0ae0>@@QBE_NPBE0PBD@Z 1000bc10 f i Autowall.obj
 0001:0000ac90       ??_0Vector@@QAEAAV0@M@Z    1000bc90 f i Autowall.obj
 0001:0000ad00       ?ArmorValue@C_BaseEntity@@QAEHXZ 1000bd00 f i Autowall.obj
 0001:0000adb0       ?CalcAngle34@@YAXVVector@@0AAV1@@Z 1000bdb0 f   Autowall.obj
 0001:0000ae60       ?CanHitFloatingPoint@Autowall@@QAE_NABVVector@@0@Z 1000be60 f   Autowall.obj
 0001:0000b010       ?CanWallbang@Autowall@@QAE_NAAM@Z 1000c010 f   Autowall.obj
 0001:0000b2b0       ?Damage@Autowall@@QAEMABVVector@@@Z 1000c2b0 f   Autowall.obj
 0001:0000b380       ?FindPattern@Utils@@SAKPBDPBE0@Z 1000c380 f i Autowall.obj
 0001:0000b400       ?FindSignature@Utils@@SAIPBD0@Z 1000c400 f i Autowall.obj
 0001:0000b630       ?GetHitgroupDamageMult@@YAMH@Z 1000c630 f   Autowall.obj
 0001:0000b690       ?HandleBulletPenetration@@YA_NPAVWeaponInfo_t@@AAUFireBulletData@@_NVVector@@@Z 1000c690 f   Autowall.obj
 0001:0000baa0       ?HasHelmet@C_BaseEntity@@QAE_NXZ 1000caa0 f i Autowall.obj
 0001:0000bb50       ?ScaleDamage@@YAXHPAVC_BaseEntity@@MAAM@Z 1000cb50 f   Autowall.obj
 0001:0000bc40       ?ShouldHitEntity@C_TraceFilter@@UAE_NPAXH@Z 1000cc40 f i Autowall.obj
 0001:0000bc70       ?SimulateFireBullet@@YA_NPAVC_BaseEntity@@PAVC_BaseCombatWeapon@@AAUFireBulletData@@@Z 1000cc70 f   Autowall.obj
 0001:0000bee0       ?TraceLine@@YAXAAVVector@@0IPAVC_BaseEntity@@PAUC_Trace@@@Z 1000cee0 f   Autowall.obj
 0001:0000bf70       ?TraceToExitalt@@YA_NAAVVector@@AAUC_Trace@@V1@2PAU2@@Z 1000cf70 f   Autowall.obj
 0001:0000c060       ?UTIL_ClipTraceToPlayers@@YAXABVVector@@0IPAVITraceFilter@@PAUC_Trace@@@Z 1000d060 f   Autowall.obj
 0001:0000c120       ?VectorLength@@YAMABVVector@@@Z 1000d120 f i Autowall.obj
 0001:0000c170       ?VectorNormalize@@YAMAAVVector@@@Z 1000d170 f i Autowall.obj
 0001:0000c1e0       ?VectortoVectorVisible@@YA_NVVector@@0@Z 1000d1e0 f   Autowall.obj
 0001:0000c270       ?atan2@@YAMMM@Z            1000d270 f i Autowall.obj
 0001:0000c2a0       ?atan@@YAMM@Z              1000d2a0 f i Autowall.obj
 0001:0000c2c0       _atan2f                    1000d2c0 f i Autowall.obj
 0001:0000c300       _atanf                     1000d300 f i Autowall.obj
 0001:0000c320       ??$CallVFunc@$00XPAVC_BaseEntity@@@Utils@@SAXPAXPAVC_BaseEntity@@@Z 1000d320 f i EnginePrediction.obj
 0001:0000c450       ?EndEnginePred@engine_prediction@@YAXXZ 1000d450 f   EnginePrediction.obj
 0001:0000c4b0       ?RunEnginePred@engine_prediction@@YAXXZ 1000d4b0 f   EnginePrediction.obj
 0001:0000c630       ?SetHost@IMoveHelper@@QAEXPAVC_BaseEntity@@@Z 1000d630 f i EnginePrediction.obj
 0001:0000c650       ??$?0$$V@?$_Compressed_pair@V?$allocator@UPlayerRecords@@@std@@V?$_Deque_val@U?$_Deque_simple_types@UPlayerRecords@@@std@@@2@$00@std@@QAE@U_Zero_then_variadic_args_t@1@@Z 1000d650 f i LagComp.obj
 0001:0000c650       ??$?0$$V@?$_Compressed_pair@V?$allocator@Uvec2@zgui@@@std@@V?$_Deque_val@U?$_Deque_simple_types@Uvec2@zgui@@@std@@@2@$00@std@@QAE@U_Zero_then_variadic_args_t@1@@Z 1000d650 f i zgui.obj
 0001:0000c670       ??$_Deallocate_plain@V?$allocator@U_Container_proxy@std@@@std@@$0A@@std@@YAXAAV?$allocator@U_Container_proxy@std@@@0@QAU_Container_proxy@0@@Z 1000d670 f i LagComp.obj
 0001:0000c690       ??$_Get_size_of_n@$07@std@@YAII@Z 1000d690 f i LagComp.obj
 0001:0000c6c0       ??$_Get_size_of_n@$0DACI@@std@@YAII@Z 1000d6c0 f i LagComp.obj
 0001:0000c6f0       ??$_Get_unwrapped@V?$_Deque_iterator@V?$_Deque_val@U?$_Deque_simple_types@UPlayerRecords@@@std@@@std@@@std@@$0A@@std@@YA?AV?$_Deque_unchecked_iterator@V?$_Deque_val@U?$_Deque_simple_types@UPlayerRecords@@@std@@@std@@@0@ABV?$_Deque_iterator@V?$_Deque_val@U?$_Deque_simple_types@UPlayerRecords@@@std@@@std@@@0@@Z 1000d6f0 f i LagComp.obj
 0001:0000c710       ??$_Get_unwrapped_n@V?$_Deque_iterator@V?$_Deque_val@U?$_Deque_simple_types@UPlayerRecords@@@std@@@std@@@std@@H$0A@@std@@YA?AV?$_Deque_unchecked_iterator@V?$_Deque_val@U?$_Deque_simple_types@UPlayerRecords@@@std@@@std@@@0@ABV?$_Deque_iterator@V?$_Deque_val@U?$_Deque_simple_types@UPlayerRecords@@@std@@@std@@@0@H@Z 1000d710 f i LagComp.obj
 0001:0000c740       ??$_Idl_distance@V?$_Deque_iterator@V?$_Deque_val@U?$_Deque_simple_types@UPlayerRecords@@@std@@@std@@@std@@V?$_Deque_unchecked_iterator@V?$_Deque_val@U?$_Deque_simple_types@UPlayerRecords@@@std@@@std@@@2@@std@@YAHABV?$_Deque_unchecked_iterator@V?$_Deque_val@U?$_Deque_simple_types@UPlayerRecords@@@std@@@std@@@0@0@Z 1000d740 f i LagComp.obj
 0001:0000c760       ??$_Move_backward_unchecked1@V?$_Deque_unchecked_iterator@V?$_Deque_val@U?$_Deque_simple_types@UPlayerRecords@@@std@@@std@@@std@@V12@@std@@YA?AV?$_Deque_unchecked_iterator@V?$_Deque_val@U?$_Deque_simple_types@UPlayerRecords@@@std@@@std@@@0@V10@00U_General_ptr_iterator_tag@0@@Z 1000d760 f i LagComp.obj
 0001:0000c7d0       ??$_Move_backward_unchecked@V?$_Deque_unchecked_iterator@V?$_Deque_val@U?$_Deque_simple_types@UPlayerRecords@@@std@@@std@@@std@@V12@@std@@YA?AV?$_Deque_unchecked_iterator@V?$_Deque_val@U?$_Deque_simple_types@UPlayerRecords@@@std@@@std@@@0@V10@00@Z 1000d7d0 f i LagComp.obj
 0001:0000c820       ??$_Move_unchecked1@V?$_Deque_unchecked_iterator@V?$_Deque_val@U?$_Deque_simple_types@UPlayerRecords@@@std@@@std@@@std@@V12@@std@@YA?AV?$_Deque_unchecked_iterator@V?$_Deque_val@U?$_Deque_simple_types@UPlayerRecords@@@std@@@std@@@0@V10@00U_General_ptr_iterator_tag@0@@Z 1000d820 f i LagComp.obj
 0001:0000c890       ??$_Move_unchecked@V?$_Deque_unchecked_iterator@V?$_Deque_val@U?$_Deque_simple_types@UPlayerRecords@@@std@@@std@@@std@@V12@@std@@YA?AV?$_Deque_unchecked_iterator@V?$_Deque_val@U?$_Deque_simple_types@UPlayerRecords@@@std@@@std@@@0@V10@00@Z 1000d890 f i LagComp.obj
 0001:0000c8e0       ??$_Seek_wrapped@V?$_Deque_iterator@V?$_Deque_val@U?$_Deque_simple_types@UPlayerRecords@@@std@@@std@@@std@@V?$_Deque_unchecked_iterator@V?$_Deque_val@U?$_Deque_simple_types@UPlayerRecords@@@std@@@std@@@2@@std@@YAXAAV?$_Deque_iterator@V?$_Deque_val@U?$_Deque_simple_types@UPlayerRecords@@@std@@@std@@@0@ABV?$_Deque_unchecked_iterator@V?$_Deque_val@U?$_Deque_simple_types@UPlayerRecords@@@std@@@std@@@0@@Z 1000d8e0 f i LagComp.obj
 0001:0000c900       ??$_Uninitialized_value_construct_n1@PAPAUPlayerRecords@@IV?$allocator@PAUPlayerRecords@@@std@@@std@@YAPAPAUPlayerRecords@@PAPAU1@IAAV?$allocator@PAUPlayerRecords@@@0@U?$integral_constant@_N$00@0@@Z 1000d900 f i LagComp.obj
 0001:0000c900       ??$_Uninitialized_value_construct_n1@PAPAUvec2@zgui@@IV?$allocator@PAUvec2@zgui@@@std@@@std@@YAPAPAUvec2@zgui@@PAPAU12@IAAV?$allocator@PAUvec2@zgui@@@0@U?$integral_constant@_N$00@0@@Z 1000d900 f i zgui.obj
 0001:0000c920       ??$_Uninitialized_value_construct_n@PAPAUvec2@zgui@@IV?$allocator@PAUvec2@zgui@@@std@@@std@@YAPAPAUvec2@zgui@@PAPAU12@IAAV?$allocator@PAUvec2@zgui@@@0@@Z 1000d920 f i zgui.obj
 0001:0000c920       ??$_Uninitialized_value_construct_n@PAPAUPlayerRecords@@IV?$allocator@PAUPlayerRecords@@@std@@@std@@YAPAPAUPlayerRecords@@PAPAU1@IAAV?$allocator@PAUPlayerRecords@@@0@@Z 1000d920 f i LagComp.obj
 0001:0000c950       ??$_Zero_range@PAPAUPlayerRecords@@@std@@YAPAPAUPlayerRecords@@QAPAU1@0@Z 1000d950 f i LagComp.obj
 0001:0000c950       ??$_Zero_range@PAPAUvec2@zgui@@@std@@YAPAPAUvec2@zgui@@QAPAU12@0@Z 1000d950 f i zgui.obj
 0001:0000c980       ??$clamp@MM@LagComp@@QAEMMMM@Z 1000d980 f i LagComp.obj
 0001:0000c9b0       ??$construct@UPlayerRecords@@ABU1@@?$_Default_allocator_traits@V?$allocator@UPlayerRecords@@@std@@@std@@SAXAAV?$allocator@UPlayerRecords@@@1@QAUPlayerRecords@@ABU3@@Z 1000d9b0 f i LagComp.obj
 0001:0000c9f0       ??$construct@UHitMarker_t@@ABU1@@?$_Default_allocator_traits@V?$allocator@UHitMarker_t@@@std@@@std@@SAXAAV?$allocator@UHitMarker_t@@@1@QAUHitMarker_t@@ABU3@@Z 1000d9f0 f i Hooks.obj
 0001:0000c9f0       ??$construct@Uvec2@zgui@@ABU12@@?$_Default_allocator_traits@V?$allocator@Uvec2@zgui@@@std@@@std@@SAXAAV?$allocator@Uvec2@zgui@@@1@QAUvec2@zgui@@ABU34@@Z 1000d9f0 f i zgui.obj
 0001:0000c9f0       ??$construct@U_Container_proxy@std@@U12@@?$_Default_allocator_traits@V?$allocator@U_Container_proxy@std@@@std@@@std@@SAXAAV?$allocator@U_Container_proxy@std@@@1@QAU_Container_proxy@1@$$QAU31@@Z 1000d9f0 f i LagComp.obj
 0001:0000ca30       ??$move@V?$_Deque_iterator@V?$_Deque_val@U?$_Deque_simple_types@UPlayerRecords@@@std@@@std@@@std@@V12@@std@@YA?AV?$_Deque_iterator@V?$_Deque_val@U?$_Deque_simple_types@UPlayerRecords@@@std@@@std@@@0@V10@00@Z 1000da30 f i LagComp.obj
 0001:0000cb30       ??$move_backward@V?$_Deque_iterator@V?$_Deque_val@U?$_Deque_simple_types@UPlayerRecords@@@std@@@std@@@std@@V12@@std@@YA?AV?$_Deque_iterator@V?$_Deque_val@U?$_Deque_simple_types@UPlayerRecords@@@std@@@std@@@0@V10@00@Z 1000db30 f i LagComp.obj
 0001:0000cc30       ??0?$_Deque_alloc@U?$_Deque_base_types@UPlayerRecords@@V?$allocator@UPlayerRecords@@@std@@@std@@@std@@QAE@XZ 1000dc30 f i LagComp.obj
 0001:0000cc30       ??0?$_Deque_alloc@U?$_Deque_base_types@Uvec2@zgui@@V?$allocator@Uvec2@zgui@@@std@@@std@@@std@@QAE@XZ 1000dc30 f i zgui.obj
 0001:0000cc60       ??0?$_Deque_unchecked_const_iterator@V?$_Deque_val@U?$_Deque_simple_types@UPlayerRecords@@@std@@@std@@@std@@QAE@IPBU_Container_base12@1@@Z 1000dc60 f i LagComp.obj
 0001:0000cc90       ??0?$_Deque_unchecked_iterator@V?$_Deque_val@U?$_Deque_simple_types@UPlayerRecords@@@std@@@std@@@std@@QAE@IPBU_Container_base12@1@@Z 1000dc90 f i LagComp.obj
 0001:0000ccb0       ??0?$_Deque_val@U?$_Deque_simple_types@UPlayerRecords@@@std@@@std@@QAE@XZ 1000dcb0 f i LagComp.obj
 0001:0000ccb0       ??0?$_Deque_val@U?$_Deque_simple_types@Uvec2@zgui@@@std@@@std@@QAE@XZ 1000dcb0 f i zgui.obj
 0001:0000ccf0       ??0?$deque@Uvec2@zgui@@V?$allocator@Uvec2@zgui@@@std@@@std@@QAE@XZ 1000dcf0 f i zgui.obj
 0001:0000ccf0       ??0?$deque@UPlayerRecords@@V?$allocator@UPlayerRecords@@@std@@@std@@QAE@XZ 1000dcf0 f i LagComp.obj
 0001:0000cd10       ??0LagComp@@QAE@XZ         1000dd10 f i LagComp.obj
 0001:0000cd40       ??0PlayerRecords@@QAE@XZ   1000dd40 f i LagComp.obj
 0001:0000cda0       ??1?$_Deque_alloc@U?$_Deque_base_types@Uvec2@zgui@@V?$allocator@Uvec2@zgui@@@std@@@std@@@std@@QAE@XZ 1000dda0 f i zgui.obj
 0001:0000cda0       ??1?$_Deque_alloc@U?$_Deque_base_types@UPlayerRecords@@V?$allocator@UPlayerRecords@@@std@@@std@@@std@@QAE@XZ 1000dda0 f i LagComp.obj
 0001:0000cde0       ??1?$deque@UPlayerRecords@@V?$allocator@UPlayerRecords@@@std@@@std@@QAE@XZ 1000dde0 f i LagComp.obj
 0001:0000ce20       ??1LagComp@@QAE@XZ         1000de20 f i LagComp.obj
 0001:0000ce70       ??4PlayerRecords@@QAEAAU0@$$QAU0@@Z 1000de70 f i LagComp.obj
 0001:0000cf70       ??8?$_Deque_unchecked_const_iterator@V?$_Deque_val@U?$_Deque_simple_types@UPlayerRecords@@@std@@@std@@@std@@QBE_NABV01@@Z 1000df70 f i LagComp.obj
 0001:0000cf70       ??8error_category@std@@QBE_NABV01@@Z 1000df70 f i zgui.obj
 0001:0000cfa0       ??9?$_Deque_unchecked_const_iterator@V?$_Deque_val@U?$_Deque_simple_types@UPlayerRecords@@@std@@@std@@@std@@QBE_NABV01@@Z 1000dfa0 f i LagComp.obj
 0001:0000cfe0       ??D?$_Deque_unchecked_const_iterator@V?$_Deque_val@U?$_Deque_simple_types@UPlayerRecords@@@std@@@std@@@std@@QBEABUPlayerRecords@@XZ 1000dfe0 f i LagComp.obj
 0001:0000d030       ??D?$_Deque_unchecked_iterator@V?$_Deque_val@U?$_Deque_simple_types@UPlayerRecords@@@std@@@std@@@std@@QBEAAUPlayerRecords@@XZ 1000e030 f i LagComp.obj
 0001:0000d050       ??E?$_Deque_unchecked_const_iterator@V?$_Deque_val@U?$_Deque_simple_types@UPlayerRecords@@@std@@@std@@@std@@QAEAAV01@XZ 1000e050 f i LagComp.obj
 0001:0000d070       ??E?$_Deque_unchecked_iterator@V?$_Deque_val@U?$_Deque_simple_types@UPlayerRecords@@@std@@@std@@@std@@QAEAAV01@XZ 1000e070 f i LagComp.obj
 0001:0000d090       ??F?$_Deque_unchecked_const_iterator@V?$_Deque_val@U?$_Deque_simple_types@UPlayerRecords@@@std@@@std@@@std@@QAEAAV01@XZ 1000e090 f i LagComp.obj
 0001:0000d0b0       ??F?$_Deque_unchecked_iterator@V?$_Deque_val@U?$_Deque_simple_types@UPlayerRecords@@@std@@@std@@@std@@QAEAAV01@XZ 1000e0b0 f i LagComp.obj
 0001:0000d0d0       ??G?$_Deque_const_iterator@V?$_Deque_val@U?$_Deque_simple_types@UPlayerRecords@@@std@@@std@@@std@@QBEHABV01@@Z 1000e0d0 f i LagComp.obj
 0001:0000d100       ??G?$_Deque_iterator@V?$_Deque_val@U?$_Deque_simple_types@UPlayerRecords@@@std@@@std@@@std@@QBEHABV?$_Deque_const_iterator@V?$_Deque_val@U?$_Deque_simple_types@UPlayerRecords@@@std@@@std@@@1@@Z 1000e100 f i LagComp.obj
 0001:0000d120       ??G?$_Deque_unchecked_const_iterator@V?$_Deque_val@U?$_Deque_simple_types@UPlayerRecords@@@std@@@std@@@std@@QBEHABV01@@Z 1000e120 f i LagComp.obj
 0001:0000d140       ??G?$_Deque_unchecked_iterator@V?$_Deque_val@U?$_Deque_simple_types@UPlayerRecords@@@std@@@std@@@std@@QBEHABV?$_Deque_unchecked_const_iterator@V?$_Deque_val@U?$_Deque_simple_types@UPlayerRecords@@@std@@@std@@@1@@Z 1000e140 f i LagComp.obj
 0001:0000d160       ??H?$_Deque_const_iterator@V?$_Deque_val@U?$_Deque_simple_types@UPlayerRecords@@@std@@@std@@@std@@QBE?AV01@H@Z 1000e160 f i LagComp.obj
 0001:0000d1e0       ?ClearRecords@LagComp@@QAEXH@Z 1000e1e0 f   LagComp.obj
 0001:0000d310       ?GetInt@ConVar@@QBEHXZ     1000e310 f i LagComp.obj
 0001:0000d330       ?GetNetChannel@IVEngineClient@@QAEPAVNetChannel@@XZ 1000e330 f i LagComp.obj
 0001:0000d360       ?GetOrigin@C_BaseEntity@@QAE?AVVector@@XZ 1000e360 f i LagComp.obj
 0001:0000d420       ?LerpTime@LagComp@@QAEMXZ  1000e420 f   LagComp.obj
 0001:0000d5f0       ?StoreRecord@LagComp@@QAEXPAVC_BaseEntity@@@Z 1000e5f0 f   LagComp.obj
 0001:0000dc00       ?ValidTick@LagComp@@QAE_NH@Z 1000ec00 f   LagComp.obj
 0001:0000ddc0       ?_Alloc_proxy@?$_Deque_alloc@U?$_Deque_base_types@UPlayerRecords@@V?$allocator@UPlayerRecords@@@std@@@std@@@std@@QAEXXZ 1000edc0 f i LagComp.obj
 0001:0000ddc0       ?_Alloc_proxy@?$_Deque_alloc@U?$_Deque_base_types@Uvec2@zgui@@V?$allocator@Uvec2@zgui@@@std@@@std@@@std@@QAEXXZ 1000edc0 f i zgui.obj
 0001:0000de50       ?_Free_proxy@?$_Deque_alloc@U?$_Deque_base_types@UPlayerRecords@@V?$allocator@UPlayerRecords@@@std@@@std@@@std@@QAEXXZ 1000ee50 f i LagComp.obj
 0001:0000de50       ?_Free_proxy@?$_Deque_alloc@U?$_Deque_base_types@Uvec2@zgui@@V?$allocator@Uvec2@zgui@@@std@@@std@@@std@@QAEXXZ 1000ee50 f i zgui.obj
 0001:0000dec0       ?_Getblock@?$_Deque_alloc@U?$_Deque_base_types@UPlayerRecords@@V?$allocator@UPlayerRecords@@@std@@@std@@@std@@QBEII@Z 1000eec0 f i LagComp.obj
 0001:0000def0       ?_Growmap@?$deque@UPlayerRecords@@V?$allocator@UPlayerRecords@@@std@@@std@@IAEXI@Z 1000eef0 f i LagComp.obj
 0001:0000e1a0       ?_Make_iter@?$deque@UPlayerRecords@@V?$allocator@UPlayerRecords@@@std@@@std@@QBE?AV?$_Deque_iterator@V?$_Deque_val@U?$_Deque_simple_types@UPlayerRecords@@@std@@@std@@@2@V?$_Deque_const_iterator@V?$_Deque_val@U?$_Deque_simple_types@UPlayerRecords@@@std@@@std@@@2@@Z 1000f1a0 f i LagComp.obj
 0001:0000e220       ?_Seek_to@?$_Deque_const_iterator@V?$_Deque_val@U?$_Deque_simple_types@UPlayerRecords@@@std@@@std@@@std@@QAEXABV?$_Deque_unchecked_const_iterator@V?$_Deque_val@U?$_Deque_simple_types@UPlayerRecords@@@std@@@std@@@2@@Z 1000f220 f i LagComp.obj
 0001:0000e240       ?_Tidy@?$deque@UPlayerRecords@@V?$allocator@UPlayerRecords@@@std@@@std@@IAEXXZ 1000f240 f i LagComp.obj
 0001:0000e350       ?_Unwrapped@?$_Deque_iterator@V?$_Deque_val@U?$_Deque_simple_types@UPlayerRecords@@@std@@@std@@@std@@QBE?AV?$_Deque_unchecked_iterator@V?$_Deque_val@U?$_Deque_simple_types@UPlayerRecords@@@std@@@std@@@2@XZ 1000f350 f i LagComp.obj
 0001:0000e390       ?_Xlen@?$deque@Uvec2@zgui@@V?$allocator@Uvec2@zgui@@@std@@@std@@IBEXXZ 1000f390 f i zgui.obj
 0001:0000e390       ?_Xlen@?$deque@UPlayerRecords@@V?$allocator@UPlayerRecords@@@std@@@std@@IBEXXZ 1000f390 f i LagComp.obj
 0001:0000e3b0       ?fabs@@YAMM@Z              1000f3b0 f i ResolverRecode.obj
 0001:0000e3b0       ?abs@@YAMM@Z               1000f3b0 f i LagComp.obj
 0001:0000e3d0       ?allocate@?$allocator@UPlayerRecords@@@std@@QAEPAUPlayerRecords@@I@Z 1000f3d0 f i LagComp.obj
 0001:0000e400       ?allocate@?$allocator@UHitMarker_t@@@std@@QAEPAUHitMarker_t@@I@Z 1000f400 f i Hooks.obj
 0001:0000e400       ?allocate@?$allocator@U_Container_proxy@std@@@std@@QAEPAU_Container_proxy@2@I@Z 1000f400 f i LagComp.obj
 0001:0000e400       ?allocate@?$allocator@Uvec2@zgui@@@std@@QAEPAUvec2@zgui@@I@Z 1000f400 f i zgui.obj
 0001:0000e430       ?deallocate@?$_Default_allocator_traits@V?$allocator@U_Container_proxy@std@@@std@@@std@@SAXAAV?$allocator@U_Container_proxy@std@@@2@QAU_Container_proxy@2@I@Z 1000f430 f i LagComp.obj
 0001:0000e450       ?deallocate@?$allocator@UPlayerRecords@@@std@@QAEXQAUPlayerRecords@@I@Z 1000f450 f i LagComp.obj
 0001:0000e480       ?empty@?$deque@Uvec2@zgui@@V?$allocator@Uvec2@zgui@@@std@@@std@@QBE_NXZ 1000f480 f i zgui.obj
 0001:0000e480       ?empty@?$deque@UPlayerRecords@@V?$allocator@UPlayerRecords@@@std@@@std@@QBE_NXZ 1000f480 f i LagComp.obj
 0001:0000e4b0       ?end@?$deque@UPlayerRecords@@V?$allocator@UPlayerRecords@@@std@@@std@@QAE?AV?$_Deque_iterator@V?$_Deque_val@U?$_Deque_simple_types@UPlayerRecords@@@std@@@std@@@2@XZ 1000f4b0 f i LagComp.obj
 0001:0000e4b0       ?end@?$deque@Uvec2@zgui@@V?$allocator@Uvec2@zgui@@@std@@@std@@QAE?AV?$_Deque_iterator@V?$_Deque_val@U?$_Deque_simple_types@Uvec2@zgui@@@std@@@std@@@2@XZ 1000f4b0 f i zgui.obj
 0001:0000e520       ?erase@?$deque@UPlayerRecords@@V?$allocator@UPlayerRecords@@@std@@@std@@QAE?AV?$_Deque_iterator@V?$_Deque_val@U?$_Deque_simple_types@UPlayerRecords@@@std@@@std@@@2@V?$_Deque_const_iterator@V?$_Deque_val@U?$_Deque_simple_types@UPlayerRecords@@@std@@@std@@@2@0@Z 1000f520 f i LagComp.obj
 0001:0000e7c0       ?erase@?$deque@UPlayerRecords@@V?$allocator@UPlayerRecords@@@std@@@std@@QAE?AV?$_Deque_iterator@V?$_Deque_val@U?$_Deque_simple_types@UPlayerRecords@@@std@@@std@@@2@V?$_Deque_const_iterator@V?$_Deque_val@U?$_Deque_simple_types@UPlayerRecords@@@std@@@std@@@2@@Z 1000f7c0 f i LagComp.obj
 0001:0000e850       ?front@?$deque@UPlayerRecords@@V?$allocator@UPlayerRecords@@@std@@@std@@QAEAAUPlayerRecords@@XZ 1000f850 f i LagComp.obj
 0001:0000e8c0       ?max_size@?$_Default_allocator_traits@V?$allocator@UPlayerRecords@@@std@@@std@@SAIABV?$allocator@UPlayerRecords@@@2@@Z 1000f8c0 f i LagComp.obj
 0001:0000e8d0       ?max_size@?$deque@UPlayerRecords@@V?$allocator@UPlayerRecords@@@std@@@std@@QBEIXZ 1000f8d0 f i LagComp.obj
 0001:0000e8f0       ?pop_back@?$deque@UPlayerRecords@@V?$allocator@UPlayerRecords@@@std@@@std@@QAEXXZ 1000f8f0 f i LagComp.obj
 0001:0000e9b0       ?pop_front@?$deque@UPlayerRecords@@V?$allocator@UPlayerRecords@@@std@@@std@@QAEXXZ 1000f9b0 f i LagComp.obj
 0001:0000ea70       ?push_back@?$deque@UPlayerRecords@@V?$allocator@UPlayerRecords@@@std@@@std@@QAEXABUPlayerRecords@@@Z 1000fa70 f i LagComp.obj
 0001:0000ebd0       _ceilf                     1000fbd0 f i LagComp.obj
 0001:0000ec10       _fabsf                     1000fc10 f i LagComp.obj
 0001:0000ec30       ??$?RABMABM@?$less@X@std@@QBE_NABM0@Z 1000fc30 f i ResolverRecode.obj
 0001:0000ec70       ??$clamp@M@std@@YAABMABM00@Z 1000fc70 f i ResolverRecode.obj
 0001:0000eca0       ??$clamp@MU?$less@X@std@@@std@@YAABMABM00U?$less@X@0@@Z 1000fca0 f i ResolverRecode.obj
 0001:0000ed10       ??0ResolverRecode@@QAE@XZ  1000fd10 f i ResolverRecode.obj
 0001:0000ed60       ??0resolverInfo@@QAE@XZ    1000fd60 f i Resolver.obj
 0001:0000ed60       ??0resolverInfo2@@QAE@XZ   1000fd60 f i ResolverRecode.obj
 0001:0000ed90       ??0resolver_info@@QAE@XZ   1000fd90 f i ResolverRecode.obj
 0001:0000ed90       ??0resolver_infos@@QAE@XZ  1000fd90 f i Resolver.obj
 0001:0000ee30       ?AnimState@C_BaseEntity@@QAEPAVC_AnimState@@XZ 1000fe30 f i ResolverRecode.obj
 0001:0000ee50       ?ClientAnimations@C_BaseEntity@@QAEX_N@Z 1000fe50 f i ResolverRecode.obj
 0001:0000ef00       ?GetLowerBodyYaw@C_BaseEntity@@QAEMXZ 1000ff00 f i ResolverRecode.obj
 0001:0000efb0       ?UpdateClientAnimation@C_BaseEntity@@QAEXXZ 1000ffb0 f i ResolverRecode.obj
 0001:0000efe0       ?round@@YAMM@Z             1000ffe0 f i ResolverRecode.obj
 0001:0000f000       _fmodf                     10010000 f i ResolverRecode.obj
 0001:0000f040       ??ZVector@@QAEAAV0@M@Z     10010040 f i AntiAim.obj
 0001:0000f090       ?FakeDuck@AntiAim@@QAEXPAVCUserCmd@@@Z 10010090 f   AntiAim.obj
 0001:0000f140       ?FasttSqrt@@YAMM@Z         10010140 f i AntiAim.obj
 0001:0000f170       ?GetMoveType@C_BaseEntity@@QAE?AW4MoveType_t@@XZ 10010170 f i AntiAim.obj
 0001:0000f220       ?OnCreateMove@AntiAim@@QAEXXZ 10010220 f   AntiAim.obj
 0001:0000fc90       ?Pitch@AntiAim@@QAEXXZ     10010c90 f   AntiAim.obj
 0001:0000fcf0       ?PitchSwitch@AntiAim@@QAEXXZ 10010cf0 f   AntiAim.obj
 0001:0000fd60       ?Yaw@AntiAim@@QAEXXZ       10010d60 f   AntiAim.obj
 0001:0000ff60       ?at_target@@YAMXZ          10010f60 f   AntiAim.obj
 0001:00010190       ?calculate_angle@@YA?AVVector@@V1@0@Z 10011190 f   AntiAim.obj
 0001:00010260       ?is_valid@C_BaseEntity@@QAE_NPAV1@_N1@Z 10011260 f i AntiAim.obj
 0001:000102e0       ?niggacheese@AntiAim@@QAEXXZ 100112e0 f   AntiAim.obj
 0001:000106a0       ?slowmogang@@YAXPAVCUserCmd@@M@Z 100116a0 f   AntiAim.obj
 0001:000107c0       ??0?$array@VFloatingText@DamageESP@@$0DC@@std@@QAE@XZ 100117c0 f i damageesp.obj
 0001:000107e0       ??0FloatingText@DamageESP@@QAE@XZ 100117e0 f i damageesp.obj
 0001:00010800       ??0c_aimbot@@QAE@XZ        10011800 f i Legit.obj
 0001:00010820       ?GetCurAngle@@YAMMVVector@@0@Z 10011820 f   Legit.obj
 0001:00010890       ?GetCurLen@@YAMVVector@@0@Z 10011890 f   Legit.obj
 0001:000109a0       ?GetMaxDelta@@YA?AVVector@@MMV1@0@Z 100119a0 f   Legit.obj
 0001:00010aa0       ?Smooth@@YA?AVVector@@AAV1@V1@M_N@Z 10011aa0 f   Legit.obj
 0001:00010f90       ?calculateAngleBetween@@YA?AVVector@@ABV1@0@Z 10011f90 f   Legit.obj
 0001:00011290       ?run@c_aimbot@@QAEXPAVCUserCmd@@@Z 10012290 f   Legit.obj
 0001:000113c0       _powf                      100123c0 f i Legit.obj
 0001:000113f0       ??0legit_backtrackdata@@QAE@XZ 100123f0 f i Legitbot.obj
 0001:00011410       ??4legit_backtrackdata@@QAEAAU0@$$QAU0@@Z 10012410 f i Legitbot.obj
 0001:000114f0       ?AntiAim@Legitbot@@QAEXXZ  100124f0 f   Legitbot.obj
 0001:00011810       ?CreateMove@Legitbot@@QAEXPAVCUserCmd@@@Z 10012810 f   Legitbot.obj
 0001:00011890       ?DesyncDelta@@YAMPAVC_AnimState@@@Z 10012890 f   Legitbot.obj
 0001:00011890       ?GetMaxDDelta@@YAMPAVC_AnimState@@@Z 10012890 f   ESP.obj
 0001:000119a0       ?Dot@Vector@@QBEMABV1@@Z   100129a0 f i Legitbot.obj
 0001:00011a00       ?GetBoneMatrix@C_BaseEntity@@QAE?AVmatrix3x4_t@@H@Z 10012a00 f i Legitbot.obj
 0001:00011a50       ?GetViewPunchAngle@C_BaseEntity@@QAE?AVVector@@XZ 10012a50 f i Legitbot.obj
 0001:00011a80       ?RecoilControl@Legitbot@@QAEXXZ 10012a80 f   Legitbot.obj
 0001:00011d00       ?angle_vector@@YA?AVVector@@V1@@Z 10012d00 f i Legitbot.obj
 0001:00011de0       ?backtrack@Legitbot@@QAEXPAVCUserCmd@@@Z 10012de0 f   Legitbot.obj
 0001:00012300       ?get_hitbox_pos@@YA?AVVector@@PAVC_BaseEntity@@H@Z 10013300 f   Legitbot.obj
 0001:00012420       ?m_aimPunchAngle@C_BaseEntity@@QAE?AVVector@@XZ 10013420 f i Legitbot.obj
 0001:000124e0       ?point_to_line@@YAMVVector@@00@Z 100134e0 f i Legitbot.obj
 0001:00012590       _floorf                    10013590 f i Legitbot.obj
 0001:000125d0       ??0Resolver@@QAE@XZ        100135d0 f i Resolver.obj
 0001:000126e0       ?AnimOverlays@C_BaseEntity@@QAEPAVAnimationLayer@@XZ 100136e0 f i Resolver.obj
 0001:00012700       ?AnimationFix@Resolver@@QAEXPAVC_BaseEntity@@@Z 10013700 f   Resolver.obj
 0001:000135f0       ?FrameStage@Resolver@@QAEXW4ClientFrameStage_t@@@Z 100145f0 f   Resolver.obj
 0001:00013730       ?HandleHits@@YAXPAVC_BaseEntity@@@Z 10014730 f   Resolver.obj
 0001:000139c0       ?NumOverlays@C_BaseEntity@@QAEHXZ 100149c0 f i Resolver.obj
 0001:000139d0       ?OnCreateMove@Resolver@@QAEXXZ 100149d0 f   Resolver.obj
 0001:000141a0       ?SetLowerBodyYaw@C_BaseEntity@@QAEXM@Z 100151a0 f i Resolver.obj
 0001:00014260       ??$GetOriginal@P6EXPAXI_N1@Z@VMTHook@@QAEP6EXPAXI_N1@ZI@Z 10015260 f i Hooks.obj
 0001:00014260       ??$GetOriginal@P6GXW4ClientFrameStage_t@@@Z@VMTHook@@QAEP6GXW4ClientFrameStage_t@@@ZI@Z 10015260 f i Hooks.obj
 0001:00014260       ??$GetOriginal@P6IXPAX0@Z@VMTHook@@QAEP6IXPAX0@ZI@Z 10015260 f i Hooks.obj
 0001:00014260       ??$GetOriginal@P6EXPAXPAVIMatRenderContext@@ABUDrawModelState_t@@ABUModelRenderInfo_t@@PAVmatrix3x4_t@@@Z@VMTHook@@QAEP6EXPAXPAVIMatRenderContext@@ABUDrawModelState_t@@ABUModelRenderInfo_t@@PAVmatrix3x4_t@@@ZI@Z 10015260 f i Chams.obj
 0001:00014260       ??$GetOriginal@P6IXPAVISurface@@PAX@Z@VMTHook@@QAEP6IXPAVISurface@@PAX@ZI@Z 10015260 f i Hooks.obj
 0001:00014260       ??$GetOriginal@P6I_NPAVIClientMode@@PAXMPAVCUserCmd@@@Z@VMTHook@@QAEP6I_NPAVIClientMode@@PAXMPAVCUserCmd@@@ZI@Z 10015260 f i Hooks.obj
 0001:00014260       ??$GetOriginal@P6IXPAX0PAVCViewSetup@@@Z@VMTHook@@QAEP6IXPAX0PAVCViewSetup@@@ZI@Z 10015260 f i Hooks.obj
 0001:00014260       ??$GetOriginal@P6IHPAXHH@Z@VMTHook@@QAEP6IHPAXHH@ZI@Z 10015260 f i Hooks.obj
 0001:00014280       ??0Chams@@QAE@XZ           10015280 f i Chams.obj
 0001:000142c0       ?BacktrackChams@Chams@@QAEXPAX0PAVIMatRenderContext@@ABUDrawModelState_t@@ABUModelRenderInfo_t@@PAVmatrix3x4_t@@@Z 100152c0 f   Chams.obj
 0001:00014a80       ?FindMaterial@IMaterialSystem@@QAEPAVIMaterial@@PBD0_N0@Z 10015a80 f i Chams.obj
 0001:00014ac0       ?ForcedMaterialOverride@CModelRender@@QAEXPAVIMaterial@@W4OverrideType_t@@@Z 10015ac0 f i Chams.obj
 0001:00014af0       ?GetModelName@IVModelInfo@@QAEPBDPBUmodel_t@@@Z 10015af0 f i Chams.obj
 0001:00014b30       ?OnDrawModelExecute@Chams@@QAEXPAX0PAVIMatRenderContext@@ABUDrawModelState_t@@ABUModelRenderInfo_t@@PAVmatrix3x4_t@@@Z 10015b30 f   Chams.obj
 0001:00015560       ??$?0AAPAVVMTHook@@@?$_Compressed_pair@U?$default_delete@VVMTHook@@@std@@PAVVMTHook@@$00@std@@QAE@U_Zero_then_variadic_args_t@1@AAPAVVMTHook@@@Z 10016560 f i Hooks.obj
 0001:00015560       ??$?0AAPAVNetvarTree@@@?$_Compressed_pair@U?$default_delete@VNetvarTree@@@std@@PAVNetvarTree@@$00@std@@QAE@U_Zero_then_variadic_args_t@1@AAPAVNetvarTree@@@Z 10016560 f i Hooks.obj
 0001:00015560       ??$?0AAPAI@?$_Compressed_pair@U?$default_delete@$$BY0A@I@std@@PAI$00@std@@QAE@U_Zero_then_variadic_args_t@1@AAPAI@Z 10016560 f i Hooks.obj
 0001:00015560       ??$?0AAPAVShadowVTManager@@@?$_Compressed_pair@U?$default_delete@VShadowVTManager@@@std@@PAVShadowVTManager@@$00@std@@QAE@U_Zero_then_variadic_args_t@1@AAPAVShadowVTManager@@@Z 10016560 f i Hooks.obj
 0001:00015560       ??$?0AAPAV_Facet_base@std@@@?$_Compressed_pair@U?$default_delete@V_Facet_base@std@@@std@@PAV_Facet_base@2@$00@std@@QAE@U_Zero_then_variadic_args_t@1@AAPAV_Facet_base@1@@Z 10016560 f i zgui.obj
 0001:00015590       ??$?0PADX@?$basic_string@DU?$char_traits@D@std@@V?$allocator@D@2@@std@@QAE@PAD0ABV?$allocator@D@1@@Z 10016590 f i zgui.obj
 0001:00015640       ??$?0PAV_Facet_base@std@@@?$_Unique_ptr_base@V_Facet_base@std@@U?$default_delete@V_Facet_base@std@@@2@@std@@QAE@PAV_Facet_base@1@@Z 10016640 f i zgui.obj
 0001:00015640       ??$?0PAVVMTHook@@@?$_Unique_ptr_base@VVMTHook@@U?$default_delete@VVMTHook@@@std@@@std@@QAE@PAVVMTHook@@@Z 10016640 f i Hooks.obj
 0001:00015640       ??$?0PAVNetvarTree@@@?$_Unique_ptr_base@VNetvarTree@@U?$default_delete@VNetvarTree@@@std@@@std@@QAE@PAVNetvarTree@@@Z 10016640 f i Hooks.obj
 0001:00015640       ??$?0PAI@?$_Unique_ptr_base@IU?$default_delete@$$BY0A@I@std@@@std@@QAE@PAI@Z 10016640 f i Hooks.obj
 0001:00015640       ??$?0PAVShadowVTManager@@@?$_Unique_ptr_base@VShadowVTManager@@U?$default_delete@VShadowVTManager@@@std@@@std@@QAE@PAVShadowVTManager@@@Z 10016640 f i Hooks.obj
 0001:00015670       ??$?0PAIU?$default_delete@$$BY0A@I@std@@$0A@X@?$unique_ptr@$$BY0A@IU?$default_delete@$$BY0A@I@std@@@std@@QAE@PAI@Z 10016670 f i Hooks.obj
 0001:00015670       ??$?0U?$default_delete@VNetvarTree@@@std@@$0A@@?$unique_ptr@VNetvarTree@@U?$default_delete@VNetvarTree@@@std@@@std@@QAE@PAVNetvarTree@@@Z 10016670 f i Hooks.obj
 0001:00015670       ??$?0U?$default_delete@VVMTHook@@@std@@$0A@@?$unique_ptr@VVMTHook@@U?$default_delete@VVMTHook@@@std@@@std@@QAE@PAVVMTHook@@@Z 10016670 f i Hooks.obj
 0001:00015670       ??$?0U?$default_delete@V_Facet_base@std@@@std@@$0A@@?$unique_ptr@V_Facet_base@std@@U?$default_delete@V_Facet_base@std@@@2@@std@@QAE@PAV_Facet_base@1@@Z 10016670 f i zgui.obj
 0001:000156b0       ??$?6DU?$char_traits@D@std@@_J@std@@YAAAV?$basic_ostream@DU?$char_traits@D@std@@@0@AAV10@ABU?$_Smanip@_J@0@@Z 100166b0 f i zgui.obj
 0001:000156e0       ??$?9DU?$char_traits@D@std@@$01@std@@YA_NV?$basic_string_view@DU?$char_traits@D@std@@@0@0@Z 100166e0 f i zgui.obj
 0001:00015720       ??$?RABHABH@?$less@X@std@@QBE_NABH0@Z 10016720 f i zgui.obj
 0001:00015750       ??$?YV?$basic_string_view@DU?$char_traits@D@std@@@std@@X@?$basic_string@DU?$char_traits@D@std@@V?$allocator@D@2@@std@@QAEAAV01@ABV?$basic_string_view@DU?$char_traits@D@std@@@1@@Z 10016750 f i zgui.obj
 0001:00015770       ??$_Destroy_range1@V?$allocator@Uzgui_control_render_t@zgui@@@std@@@std@@YAXPAUzgui_control_render_t@zgui@@0AAV?$allocator@Uzgui_control_render_t@zgui@@@0@U?$integral_constant@_N$0A@@0@@Z 10016770 f i zgui.obj
 0001:000157b0       ??$_Destroy_range1@V?$allocator@V?$basic_string@DU?$char_traits@D@std@@V?$allocator@D@2@@std@@@std@@@std@@YAXPAV?$basic_string@DU?$char_traits@D@std@@V?$allocator@D@2@@0@0AAV?$allocator@V?$basic_string@DU?$char_traits@D@std@@V?$allocator@D@2@@std@@@0@U?$integral_constant@_N$0A@@0@@Z 100167b0 f i zgui.obj
 0001:000157f0       ??$_Destroy_range@V?$allocator@Uzgui_control_render_t@zgui@@@std@@@std@@YAXPAUzgui_control_render_t@zgui@@0AAV?$allocator@Uzgui_control_render_t@zgui@@@0@@Z 100167f0 f i zgui.obj
 0001:00015820       ??$_Destroy_range@V?$allocator@V?$basic_string@DU?$char_traits@D@std@@V?$allocator@D@2@@std@@@std@@@std@@YAXPAV?$basic_string@DU?$char_traits@D@std@@V?$allocator@D@2@@0@0AAV?$allocator@V?$basic_string@DU?$char_traits@D@std@@V?$allocator@D@2@@std@@@0@@Z 10016820 f i zgui.obj
 0001:00015850       ??$_Emplace_back@Uzgui_control_render_t@zgui@@@?$_Uninitialized_backout_al@PAUzgui_control_render_t@zgui@@V?$allocator@Uzgui_control_render_t@zgui@@@std@@@std@@QAEX$$QAUzgui_control_render_t@zgui@@@Z 10016850 f i zgui.obj
 0001:000158b0       ??$_Emplace_back@V?$basic_string@DU?$char_traits@D@std@@V?$allocator@D@2@@std@@@?$_Uninitialized_backout_al@PAV?$basic_string@DU?$char_traits@D@std@@V?$allocator@D@2@@std@@V?$allocator@V?$basic_string@DU?$char_traits@D@std@@V?$allocator@D@2@@std@@@2@@std@@QAEX$$QAV?$basic_string@DU?$char_traits@D@std@@V?$allocator@D@2@@1@@Z 100168b0 f i zgui.obj
 0001:00015910       ??$_Emplace_back_with_unused_capacity@ABV?$basic_string@DU?$char_traits@D@std@@V?$allocator@D@2@@std@@@?$vector@V?$basic_string@DU?$char_traits@D@std@@V?$allocator@D@2@@std@@V?$allocator@V?$basic_string@DU?$char_traits@D@std@@V?$allocator@D@2@@std@@@2@@std@@AAEAAV?$basic_string@DU?$char_traits@D@std@@V?$allocator@D@2@@1@ABV21@@Z 10016910 f i zgui.obj
 0001:000159c0       ??$_Emplace_back_with_unused_capacity@Uzgui_control_render_t@zgui@@@?$vector@Uzgui_control_render_t@zgui@@V?$allocator@Uzgui_control_render_t@zgui@@@std@@@std@@AAEAAUzgui_control_render_t@zgui@@$$QAU23@@Z 100169c0 f i zgui.obj
 0001:00015a70       ??$_Emplace_reallocate@ABV?$basic_string@DU?$char_traits@D@std@@V?$allocator@D@2@@std@@@?$vector@V?$basic_string@DU?$char_traits@D@std@@V?$allocator@D@2@@std@@V?$allocator@V?$basic_string@DU?$char_traits@D@std@@V?$allocator@D@2@@std@@@2@@std@@QAEPAV?$basic_string@DU?$char_traits@D@std@@V?$allocator@D@2@@1@QAV21@ABV21@@Z 10016a70 f i zgui.obj
 0001:00015c60       ??$_Emplace_reallocate@Uzgui_control_render_t@zgui@@@?$vector@Uzgui_control_render_t@zgui@@V?$allocator@Uzgui_control_render_t@zgui@@@std@@@std@@QAEPAUzgui_control_render_t@zgui@@QAU23@$$QAU23@@Z 10016c60 f i zgui.obj
 0001:00015e50       ??$_Get_size_of_n@$0BI@@std@@YAII@Z 10016e50 f i zgui.obj
 0001:00015e80       ??$_Get_size_of_n@$0DM@@std@@YAII@Z 10016e80 f i zgui.obj
 0001:00015eb0       ??$_Getvals@D@?$numpunct@D@std@@IAEXDPBUlconv@@U_Cvtvec@@@Z 10016eb0 f i zgui.obj
 0001:00015f10       ??$_Idl_distance@PAUzgui_control_render_t@zgui@@PAU12@@std@@YAHABQAUzgui_control_render_t@zgui@@0@Z 10016f10 f i zgui.obj
 0001:00015f30       ??$_Idl_distance@PAV?$basic_string@DU?$char_traits@D@std@@V?$allocator@D@2@@std@@PAV12@@std@@YAHABQAV?$basic_string@DU?$char_traits@D@std@@V?$allocator@D@2@@0@0@Z 10016f30 f i zgui.obj
 0001:00015f30       ??$_Idl_distance@PBV?$basic_string@DU?$char_traits@D@std@@V?$allocator@D@2@@std@@PBV12@@std@@YAHABQBV?$basic_string@DU?$char_traits@D@std@@V?$allocator@D@2@@0@0@Z 10016f30 f i Menu.obj
 0001:00015f50       ??$_Immortalize@V_Iostream_error_category@std@@@std@@YAAAV_Iostream_error_category@0@XZ 10016f50 f i zgui.obj
 0001:00015f80       ??$_Immortalize_impl@V_Iostream_error_category@std@@@std@@YGHPAX0PAPAX@Z 10016f80 f i zgui.obj
 0001:00015fb0       ??$_Integral_to_string@DH@std@@YA?AV?$basic_string@DU?$char_traits@D@std@@V?$allocator@D@2@@0@H@Z 10016fb0 f i zgui.obj
 0001:00016040       ??$_Maklocchr@D@std@@YADDPADABU_Cvtvec@@@Z 10017040 f i zgui.obj
 0001:00016050       ??$_Maklocstr@D@std@@YAPADPBDPADABU_Cvtvec@@@Z 10017050 f i zgui.obj
 0001:000160f0       ??$_Pocma@V?$allocator@D@std@@@std@@YAXAAV?$allocator@D@0@0@Z 100170f0 f i zgui.obj
 0001:00016110       ??$_Pocma@V?$allocator@D@std@@@std@@YAXAAV?$allocator@D@0@0U?$integral_constant@_N$00@0@@Z 10017110 f i zgui.obj
 0001:00016130       ??$_Reallocate_for@V<lambda_c6753c90be971fc9cc00b4f35f237a75>@@D@?$basic_string@DU?$char_traits@D@std@@V?$allocator@D@2@@std@@QAEAAV01@IV<lambda_c6753c90be971fc9cc00b4f35f237a75>@@D@Z 10017130 f i zgui.obj
 0001:00016210       ??$_Reallocate_grow_by@V<lambda_15711c68e099a15a58f4d77303cb286d>@@D@?$basic_string@DU?$char_traits@D@std@@V?$allocator@D@2@@std@@QAEAAV01@IV<lambda_15711c68e099a15a58f4d77303cb286d>@@D@Z 10017210 f i zgui.obj
 0001:00016340       ??$_Reallocate_grow_by@V<lambda_6607a66f2a10a1261ff9db96cba1015b>@@IID@?$basic_string@DU?$char_traits@D@std@@V?$allocator@D@2@@std@@QAEAAV01@IV<lambda_6607a66f2a10a1261ff9db96cba1015b>@@IID@Z 10017340 f i zgui.obj
 0001:00016480       ??$_Reallocate_grow_by@V<lambda_ab246b20b9526e2ef7792587e4298a77>@@PBDI@?$basic_string@DU?$char_traits@D@std@@V?$allocator@D@2@@std@@QAEAAV01@IV<lambda_ab246b20b9526e2ef7792587e4298a77>@@PBDI@Z 10017480 f i zgui.obj
 0001:000165b0       ??$_Reallocate_grow_by@V<lambda_c1b8c41cb4019640539cfd828748c4d4>@@ID@?$basic_string@DU?$char_traits@D@std@@V?$allocator@D@2@@std@@QAEAAV01@IV<lambda_c1b8c41cb4019640539cfd828748c4d4>@@ID@Z 100175b0 f i zgui.obj
 0001:000166e0       ??$_UIntegral_to_buff@DI@std@@YAPADPADI@Z 100176e0 f i zgui.obj
 0001:000167a0       ??$_Uninitialized_move@PAUzgui_control_render_t@zgui@@PAU12@V?$allocator@Uzgui_control_render_t@zgui@@@std@@@std@@YAPAUzgui_control_render_t@zgui@@QAU12@0PAU12@AAV?$allocator@Uzgui_control_render_t@zgui@@@0@@Z 100177a0 f i zgui.obj
 0001:00016860       ??$_Uninitialized_move@PAV?$basic_string@DU?$char_traits@D@std@@V?$allocator@D@2@@std@@PAV12@V?$allocator@V?$basic_string@DU?$char_traits@D@std@@V?$allocator@D@2@@std@@@2@@std@@YAPAV?$basic_string@DU?$char_traits@D@std@@V?$allocator@D@2@@0@QAV10@0PAV10@AAV?$allocator@V?$basic_string@DU?$char_traits@D@std@@V?$allocator@D@2@@std@@@0@@Z 10017860 f i zgui.obj
 0001:00016920       ??$_Uninitialized_move_al_unchecked@PAUzgui_control_render_t@zgui@@PAU12@V?$allocator@Uzgui_control_render_t@zgui@@@std@@@std@@YAPAUzgui_control_render_t@zgui@@PAU12@QAU12@1AAV?$allocator@Uzgui_control_render_t@zgui@@@0@U_General_ptr_iterator_tag@0@U_Unused_parameter@0@@Z 10017920 f i zgui.obj
 0001:000169b0       ??$_Uninitialized_move_al_unchecked@PAV?$basic_string@DU?$char_traits@D@std@@V?$allocator@D@2@@std@@PAV12@V?$allocator@V?$basic_string@DU?$char_traits@D@std@@V?$allocator@D@2@@std@@@2@@std@@YAPAV?$basic_string@DU?$char_traits@D@std@@V?$allocator@D@2@@0@PAV10@QAV10@1AAV?$allocator@V?$basic_string@DU?$char_traits@D@std@@V?$allocator@D@2@@std@@@0@U_General_ptr_iterator_tag@0@U_Unused_parameter@0@@Z 100179b0 f i zgui.obj
 0001:00016a40       ??$append@V?$basic_string_view@DU?$char_traits@D@std@@@std@@X@?$basic_string@DU?$char_traits@D@std@@V?$allocator@D@2@@std@@QAEAAV01@ABV?$basic_string_view@DU?$char_traits@D@std@@@1@@Z 10017a40 f i zgui.obj
 0001:00016a90       ??$clamp@H@std@@YAABHABH00@Z 10017a90 f i zgui.obj
 0001:00016ac0       ??$clamp@HU?$less@X@std@@@std@@YAABHABH00U?$less@X@0@@Z 10017ac0 f i zgui.obj
 0001:00016b30       ??$construct@Uzgui_control_render_t@zgui@@U12@@?$_Default_allocator_traits@V?$allocator@Uzgui_control_render_t@zgui@@@std@@@std@@SAXAAV?$allocator@Uzgui_control_render_t@zgui@@@1@QAUzgui_control_render_t@zgui@@$$QAU34@@Z 10017b30 f i zgui.obj
 0001:00016b70       ??$construct@V?$basic_string@DU?$char_traits@D@std@@V?$allocator@D@2@@std@@ABV12@@?$_Default_allocator_traits@V?$allocator@V?$basic_string@DU?$char_traits@D@std@@V?$allocator@D@2@@std@@@std@@@std@@SAXAAV?$allocator@V?$basic_string@DU?$char_traits@D@std@@V?$allocator@D@2@@std@@@1@QAV?$basic_string@DU?$char_traits@D@std@@V?$allocator@D@2@@1@ABV31@@Z 10017b70 f i zgui.obj
 0001:00016bb0       ??$construct@V?$basic_string@DU?$char_traits@D@std@@V?$allocator@D@2@@std@@V12@@?$_Default_allocator_traits@V?$allocator@V?$basic_string@DU?$char_traits@D@std@@V?$allocator@D@2@@std@@@std@@@std@@SAXAAV?$allocator@V?$basic_string@DU?$char_traits@D@std@@V?$allocator@D@2@@std@@@1@QAV?$basic_string@DU?$char_traits@D@std@@V?$allocator@D@2@@1@$$QAV31@@Z 10017bb0 f i zgui.obj
 0001:00016bf0       ??$destroy@Uzgui_control_render_t@zgui@@@?$_Default_allocator_traits@V?$allocator@Uzgui_control_render_t@zgui@@@std@@@std@@SAXAAV?$allocator@Uzgui_control_render_t@zgui@@@1@QAUzgui_control_render_t@zgui@@@Z 10017bf0 f i zgui.obj
 0001:00016c00       ??$destroy@V?$basic_string@DU?$char_traits@D@std@@V?$allocator@D@2@@std@@@?$_Default_allocator_traits@V?$allocator@V?$basic_string@DU?$char_traits@D@std@@V?$allocator@D@2@@std@@@std@@@std@@SAXAAV?$allocator@V?$basic_string@DU?$char_traits@D@std@@V?$allocator@D@2@@std@@@1@QAV?$basic_string@DU?$char_traits@D@std@@V?$allocator@D@2@@1@@Z 10017c00 f i zgui.obj
 0001:00016c10       ??$emplace_back@ABV?$basic_string@DU?$char_traits@D@std@@V?$allocator@D@2@@std@@@?$vector@V?$basic_string@DU?$char_traits@D@std@@V?$allocator@D@2@@std@@V?$allocator@V?$basic_string@DU?$char_traits@D@std@@V?$allocator@D@2@@std@@@2@@std@@QAEAAV?$basic_string@DU?$char_traits@D@std@@V?$allocator@D@2@@1@ABV21@@Z 10017c10 f i zgui.obj
 0001:00016c80       ??$emplace_back@Uzgui_control_render_t@zgui@@@?$vector@Uzgui_control_render_t@zgui@@V?$allocator@Uzgui_control_render_t@zgui@@@std@@@std@@QAEAAUzgui_control_render_t@zgui@@$$QAU23@@Z 10017c80 f i zgui.obj
 0001:00016cf0       ??$end@D$0BF@@std@@YAPADAAY0BF@D@Z 10017cf0 f i zgui.obj
 0001:00016d00       ??$getline@DU?$char_traits@D@std@@V?$allocator@D@2@@std@@YAAAV?$basic_istream@DU?$char_traits@D@std@@@0@$$QAV10@AAV?$basic_string@DU?$char_traits@D@std@@V?$allocator@D@2@@0@D@Z 10017d00 f i zgui.obj
 0001:00016f00       ??$getline@DU?$char_traits@D@std@@V?$allocator@D@2@@std@@YAAAV?$basic_istream@DU?$char_traits@D@std@@@0@AAV10@AAV?$basic_string@DU?$char_traits@D@std@@V?$allocator@D@2@@0@D@Z 10017f00 f i zgui.obj
 0001:00016f30       ??$use_facet@V?$ctype@D@std@@@std@@YAABV?$ctype@D@0@ABVlocale@0@@Z 10017f30 f i zgui.obj
 0001:00017040       ??$use_facet@V?$num_put@DV?$ostreambuf_iterator@DU?$char_traits@D@std@@@std@@@std@@@std@@YAABV?$num_put@DV?$ostreambuf_iterator@DU?$char_traits@D@std@@@std@@@0@ABVlocale@0@@Z 10018040 f i zgui.obj
 0001:00017150       ??$use_facet@V?$numpunct@D@std@@@std@@YAABV?$numpunct@D@0@ABVlocale@0@@Z 10018150 f i zgui.obj
 0001:00017260       ??0<unnamed-type-global_colors>@@QAE@XZ 10018260 f i zgui.obj
 0001:000174c0       ??0<unnamed-type-global_config>@@QAE@XZ 100184c0 f i zgui.obj
 0001:00017510       ??0?$_Yarn@D@std@@QAE@XZ   10018510 f i zgui.obj
 0001:00017530       ??0?$_Yarn@_W@std@@QAE@XZ  10018530 f i zgui.obj
 0001:00017550       ??0?$basic_ios@DU?$char_traits@D@std@@@std@@IAE@XZ 10018550 f i zgui.obj
 0001:00017570       ??0?$basic_iostream@DU?$char_traits@D@std@@@std@@QAE@PAV?$basic_streambuf@DU?$char_traits@D@std@@@1@@Z 10018570 f i zgui.obj
 0001:00017640       ??0?$basic_istream@DU?$char_traits@D@std@@@std@@QAE@PAV?$basic_streambuf@DU?$char_traits@D@std@@@1@_N@Z 10018640 f i zgui.obj
 0001:00017710       ??0?$basic_istringstream@DU?$char_traits@D@std@@V?$allocator@D@2@@std@@QAE@ABV?$basic_string@DU?$char_traits@D@std@@V?$allocator@D@2@@1@H@Z 10018710 f i zgui.obj
 0001:000177e0       ??0?$basic_ostream@DU?$char_traits@D@std@@@std@@QAE@W4_Uninitialized@1@_N@Z 100187e0 f i zgui.obj
 0001:000178b0       ??0?$basic_streambuf@DU?$char_traits@D@std@@@std@@IAE@XZ 100188b0 f i zgui.obj
 0001:00017910       ??0?$basic_string@DU?$char_traits@D@std@@V?$allocator@D@2@@std@@QAE@ABV01@@Z 10018910 f i zgui.obj
 0001:00017980       ??0?$basic_string@DU?$char_traits@D@std@@V?$allocator@D@2@@std@@QAE@ABV?$allocator@D@1@@Z 10018980 f i zgui.obj
 0001:000179d0       ??0?$basic_string@DU?$char_traits@D@std@@V?$allocator@D@2@@std@@QAE@ID@Z 100189d0 f i zgui.obj
 0001:00017a30       ??0?$basic_string@DU?$char_traits@D@std@@V?$allocator@D@2@@std@@QAE@XZ 10018a30 f i zgui.obj
 0001:00017a70       ??0?$basic_string_view@DU?$char_traits@D@std@@@std@@QAE@QBD@Z 10018a70 f i zgui.obj
 0001:00017aa0       ??0?$basic_stringbuf@DU?$char_traits@D@std@@V?$allocator@D@2@@std@@QAE@ABV?$basic_string@DU?$char_traits@D@std@@V?$allocator@D@2@@1@H@Z 10018aa0 f i zgui.obj
 0001:00017b40       ??0?$basic_stringbuf@DU?$char_traits@D@std@@V?$allocator@D@2@@std@@QAE@H@Z 10018b40 f i zgui.obj
 0001:00017bc0       ??0?$basic_stringstream@DU?$char_traits@D@std@@V?$allocator@D@2@@std@@QAE@H@Z 10018bc0 f i zgui.obj
 0001:00017c90       ??0?$ctype@D@std@@QAE@ABV_Locinfo@1@I@Z 10018c90 f i zgui.obj
 0001:00017cf0       ??0?$fpos@U_Mbstatet@@@std@@QAE@_J@Z 10018cf0 f i zgui.obj
 0001:00017d30       ??0?$num_put@DV?$ostreambuf_iterator@DU?$char_traits@D@std@@@std@@@std@@QAE@ABV_Locinfo@1@I@Z 10018d30 f i zgui.obj
 0001:00017d90       ??0?$numpunct@D@std@@QAE@ABV_Locinfo@1@I_N@Z 10018d90 f i zgui.obj
 0001:00017e00       ??0?$ostreambuf_iterator@DU?$char_traits@D@std@@@std@@QAE@PAV?$basic_streambuf@DU?$char_traits@D@std@@@1@@Z 10018e00 f i zgui.obj
 0001:00017e20       ??0?$stack@Uvec2@zgui@@V?$deque@Uvec2@zgui@@V?$allocator@Uvec2@zgui@@@std@@@std@@@std@@QAE@XZ 10018e20 f i zgui.obj
 0001:00017e40       ??0_Facet_base@std@@QAE@XZ 10018e40 f i zgui.obj
 0001:00017e60       ??0_Generic_error_category@std@@QAE@XZ 10018e60 f i zgui.obj
 0001:00017e90       ??0_Iostream_error_category@std@@QAE@XZ 10018e90 f i zgui.obj
 0001:00017ec0       ??0_Locinfo@std@@QAE@PBD@Z 10018ec0 f i zgui.obj
 0001:00017fa0       ??0_Sentry_base@?$basic_ostream@DU?$char_traits@D@std@@@std@@QAE@AAV12@@Z 10018fa0 f i zgui.obj
 0001:00017fa0       ??0_Sentry_base@?$basic_istream@DU?$char_traits@D@std@@@std@@QAE@AAV12@@Z 10018fa0 f i zgui.obj
 0001:00018000       ??0_System_error@std@@IAE@Verror_code@1@ABV?$basic_string@DU?$char_traits@D@std@@V?$allocator@D@2@@1@@Z 10019000 f i zgui.obj
 0001:000180a0       ??0_System_error@std@@QAE@ABV01@@Z 100190a0 f i zgui.obj
 0001:000180e0       ??0bad_cast@std@@QAE@ABV01@@Z 100190e0 f i zgui.obj
 0001:00018110       ??0bad_cast@std@@QAE@XZ    10019110 f i zgui.obj
 0001:00018140       ??0ctype_base@std@@QAE@I@Z 10019140 f i zgui.obj
 0001:00018170       ??0error_category@std@@QAE@XZ 10019170 f i zgui.obj
 0001:00018190       ??0error_condition@std@@QAE@HABVerror_category@1@@Z 10019190 f i zgui.obj
 0001:00018190       ??0<lambda_28ad49831541a2424837282b434053c9>@@QAE@ABVVector@@AAVVector2D@@@Z 10019190 f i ESP.obj
 0001:00018190       ??0error_code@std@@QAE@HABVerror_category@1@@Z 10019190 f i zgui.obj
 0001:00018190       ??0?$initializer_list@Umulti_select_item@zgui@@@std@@QAE@PBUmulti_select_item@zgui@@0@Z 10019190 f i Menu.obj
 0001:00018190       ??0?$initializer_list@PBD@std@@QAE@PBQBD0@Z 10019190 f i Hooks.obj
 0001:00018190       ??0?$initializer_list@V?$basic_string@DU?$char_traits@D@std@@V?$allocator@D@2@@std@@@std@@QAE@PBV?$basic_string@DU?$char_traits@D@std@@V?$allocator@D@2@@1@0@Z 10019190 f i Menu.obj
 0001:000181c0       ??0exception@std@@QAE@ABV01@@Z 100191c0 f i zgui.obj
 0001:00018200       ??0exception@std@@QAE@QBD@Z 10019200 f i zgui.obj
 0001:00018250       ??0exception@std@@QAE@QBDH@Z 10019250 f i zgui.obj
 0001:00018280       ??0facet@locale@std@@IAE@I@Z 10019280 f i zgui.obj
 0001:000182b0       ??0failure@ios_base@std@@QAE@ABV012@@Z 100192b0 f i zgui.obj
 0001:000182e0       ??0failure@ios_base@std@@QAE@PBDABVerror_code@2@@Z 100192e0 f i zgui.obj
 0001:00018310       ??0gui_context_t@@QAE@XZ   10019310 f i zgui.obj
 0001:00018330       ??0gui_window_context_t@zgui@@QAE@XZ 10019330 f i zgui.obj
 0001:00018360       ??0Address@@QAE@PBX@Z      10019360 f i Interfaces.obj
 0001:00018360       ??0Address@@QAE@I@Z        10019360 f i Interfaces.obj
 0001:00018360       ??0<lambda_739f859172b80e6727f25b1c85211d0b>@@QAE@AAVVector@@@Z 10019360 f i Hooks.obj
 0001:00018360       ??0CBaseHandle@@QAE@K@Z    10019360 f i ESP.obj
 0001:00018360       ??0id@locale@std@@QAE@I@Z  10019360 f i zgui.obj
 0001:00018380       ??0ios_base@std@@IAE@XZ    10019380 f i zgui.obj
 0001:000183a0       ??0locale@std@@QAE@ABV01@@Z 100193a0 f i zgui.obj
 0001:000183f0       ??0locale@std@@QAE@XZ      100193f0 f i zgui.obj
 0001:00018430       ??0runtime_error@std@@QAE@ABV01@@Z 10019430 f i zgui.obj
 0001:00018460       ??0runtime_error@std@@QAE@ABV?$basic_string@DU?$char_traits@D@std@@V?$allocator@D@2@@1@@Z 10019460 f i zgui.obj
 0001:00018490       ??0runtime_error@std@@QAE@PBD@Z 10019490 f i zgui.obj
 0001:000184c0       ??0sentry@?$basic_istream@DU?$char_traits@D@std@@@std@@QAE@AAV12@_N@Z 100194c0 f i zgui.obj
 0001:00018530       ??0sentry@?$basic_ostream@DU?$char_traits@D@std@@@std@@QAE@AAV12@@Z 10019530 f i zgui.obj
 0001:000185f0       ??0system_error@std@@QAE@ABV01@@Z 100195f0 f i zgui.obj
 0001:00018620       ??0system_error@std@@QAE@Verror_code@1@PBD@Z 10019620 f i zgui.obj
 0001:00018690       ??0zgui_control_render_t@zgui@@QAE@$$QAU01@@Z 10019690 f i zgui.obj
 0001:00018710       ??1?$_Uninitialized_backout_al@PAUzgui_control_render_t@zgui@@V?$allocator@Uzgui_control_render_t@zgui@@@std@@@std@@QAE@XZ 10019710 f i zgui.obj
 0001:00018760       ??1?$_Uninitialized_backout_al@PAV?$basic_string@DU?$char_traits@D@std@@V?$allocator@D@2@@std@@V?$allocator@V?$basic_string@DU?$char_traits@D@std@@V?$allocator@D@2@@std@@@2@@std@@QAE@XZ 10019760 f i zgui.obj
 0001:000187b0       ??1?$_Yarn@D@std@@QAE@XZ   100197b0 f i zgui.obj
 0001:000187b0       ??1?$_Yarn@_W@std@@QAE@XZ  100197b0 f i zgui.obj
 0001:000187f0       ??1?$basic_ios@DU?$char_traits@D@std@@@std@@UAE@XZ 100197f0 f i zgui.obj
 0001:00018810       ??1?$basic_iostream@DU?$char_traits@D@std@@@std@@UAE@XZ 10019810 f i zgui.obj
 0001:00018870       ??1?$basic_istream@DU?$char_traits@D@std@@@std@@UAE@XZ 10019870 f i zgui.obj
 0001:000188b0       ??1?$basic_istringstream@DU?$char_traits@D@std@@V?$allocator@D@2@@std@@UAE@XZ 100198b0 f i zgui.obj
 0001:00018910       ??1?$basic_ostream@DU?$char_traits@D@std@@@std@@UAE@XZ 10019910 f i zgui.obj
 0001:00018950       ??1?$basic_streambuf@DU?$char_traits@D@std@@@std@@UAE@XZ 10019950 f i zgui.obj
 0001:000189a0       ??1?$basic_stringbuf@DU?$char_traits@D@std@@V?$allocator@D@2@@std@@UAE@XZ 100199a0 f i zgui.obj
 0001:000189f0       ??1?$basic_stringstream@DU?$char_traits@D@std@@V?$allocator@D@2@@std@@UAE@XZ 100199f0 f i zgui.obj
 0001:00018a50       ??1?$ctype@D@std@@MAE@XZ   10019a50 f i zgui.obj
 0001:00018aa0       ??1?$deque@Uvec2@zgui@@V?$allocator@Uvec2@zgui@@@std@@@std@@QAE@XZ 10019aa0 f i zgui.obj
 0001:00018ae0       ??1?$num_put@DV?$ostreambuf_iterator@DU?$char_traits@D@std@@@std@@@std@@MAE@XZ 10019ae0 f i zgui.obj
 0001:00018b00       ??1?$numpunct@D@std@@MAE@XZ 10019b00 f i zgui.obj
 0001:00018b50       ??1?$stack@Uvec2@zgui@@V?$deque@Uvec2@zgui@@V?$allocator@Uvec2@zgui@@@std@@@std@@@std@@QAE@XZ 10019b50 f i zgui.obj
 0001:00018b70       ??1?$unique_ptr@V_Facet_base@std@@U?$default_delete@V_Facet_base@std@@@2@@std@@QAE@XZ 10019b70 f i zgui.obj
 0001:00018bb0       ??1?$vector@Uzgui_control_render_t@zgui@@V?$allocator@Uzgui_control_render_t@zgui@@@std@@@std@@QAE@XZ 10019bb0 f i zgui.obj
 0001:00018bf0       ??1?$vector@V?$basic_string@DU?$char_traits@D@std@@V?$allocator@D@2@@std@@V?$allocator@V?$basic_string@DU?$char_traits@D@std@@V?$allocator@D@2@@std@@@2@@std@@QAE@XZ 10019bf0 f i zgui.obj
 0001:00018c30       ??1_Facet_base@std@@UAE@XZ 10019c30 f i zgui.obj
 0001:00018c50       ??1_Locinfo@std@@QAE@XZ    10019c50 f i zgui.obj
 0001:00018cd0       ??1_Sentry_base@?$basic_ostream@DU?$char_traits@D@std@@@std@@QAE@XZ 10019cd0 f i zgui.obj
 0001:00018cd0       ??1_Sentry_base@?$basic_istream@DU?$char_traits@D@std@@@std@@QAE@XZ 10019cd0 f i zgui.obj
 0001:00018d50       ??1_System_error@std@@UAE@XZ 10019d50 f i zgui.obj
 0001:00018d70       ??1bad_cast@std@@UAE@XZ    10019d70 f i zgui.obj
 0001:00018d70       ??1runtime_error@std@@UAE@XZ 10019d70 f i zgui.obj
 0001:00018d90       ??1ctype_base@std@@UAE@XZ  10019d90 f i zgui.obj
 0001:00018db0       ??1exception@std@@UAE@XZ   10019db0 f i zgui.obj
 0001:00018de0       ??1facet@locale@std@@MAE@XZ 10019de0 f i zgui.obj
 0001:00018e00       ??1failure@ios_base@std@@UAE@XZ 10019e00 f i zgui.obj
 0001:00018e20       ??1gui_context_t@@QAE@XZ   10019e20 f i zgui.obj
 0001:00018e40       ??1gui_window_context_t@zgui@@QAE@XZ 10019e40 f i zgui.obj
 0001:00018e70       ??1ios_base@std@@UAE@XZ    10019e70 f i zgui.obj
 0001:00018eb0       ??1locale@std@@QAE@XZ      10019eb0 f i zgui.obj
 0001:00018f30       ??1sentry@?$basic_istream@DU?$char_traits@D@std@@@std@@QAE@XZ 10019f30 f i zgui.obj
 0001:00018f50       ??1sentry@?$basic_ostream@DU?$char_traits@D@std@@@std@@QAE@XZ 10019f50 f i zgui.obj
 0001:00018fa0       ??1system_error@std@@UAE@XZ 10019fa0 f i zgui.obj
 0001:00018fc0       ??1zgui_control_render_t@zgui@@QAE@XZ 10019fc0 f i zgui.obj
 0001:00018fe0       ??4?$basic_string@DU?$char_traits@D@std@@V?$allocator@D@2@@std@@QAEAAV01@$$QAV01@@Z 10019fe0 f i zgui.obj
 0001:00019070       ??4?$ostreambuf_iterator@DU?$char_traits@D@std@@@std@@QAEAAV01@D@Z 1001a070 f i zgui.obj
 0001:000190d0       ??6?$basic_ostream@DU?$char_traits@D@std@@@std@@QAEAAV01@M@Z 1001a0d0 f i zgui.obj
 0001:000192b0       ??6?$basic_ostream@DU?$char_traits@D@std@@@std@@QAEAAV01@P6AAAVios_base@1@AAV21@@Z@Z 1001a2b0 f i zgui.obj
 0001:000192f0       ??8std@@YA_NABVerror_condition@0@0@Z 1001a2f0 f i zgui.obj
 0001:00019350       ??A?$basic_string@DU?$char_traits@D@std@@V?$allocator@D@2@@std@@QAEAADI@Z 1001a350 f i zgui.obj
 0001:00019350       ??A?$basic_string@DU?$char_traits@D@std@@V?$allocator@D@2@@std@@QBEABDI@Z 1001a350 f i zgui.obj
 0001:00019380       ??A?$vector@Uzgui_control_render_t@zgui@@V?$allocator@Uzgui_control_render_t@zgui@@@std@@@std@@QAEAAUzgui_control_render_t@zgui@@I@Z 1001a380 f i zgui.obj
 0001:000193a0       ??A?$vector@V?$basic_string@DU?$char_traits@D@std@@V?$allocator@D@2@@std@@V?$allocator@V?$basic_string@DU?$char_traits@D@std@@V?$allocator@D@2@@std@@@2@@std@@QAEAAV?$basic_string@DU?$char_traits@D@std@@V?$allocator@D@2@@1@I@Z 1001a3a0 f i zgui.obj
 0001:000193c0       ??B?$fpos@U_Mbstatet@@@std@@QBE_JXZ 1001a3c0 f i zgui.obj
 0001:000193f0       ??Bid@locale@std@@QAEIXZ   1001a3f0 f i zgui.obj
 0001:00019440       ??Bios_base@std@@QBE_NXZ   1001a440 f i zgui.obj
 0001:00019470       ??Bsentry@?$basic_istream@DU?$char_traits@D@std@@@std@@QBE_NXZ 1001a470 f i zgui.obj
 0001:00019470       ??Bsentry@?$basic_ostream@DU?$char_traits@D@std@@@std@@QBE_NXZ 1001a470 f i zgui.obj
 0001:00019490       ??D?$_Deque_const_iterator@V?$_Deque_val@U?$_Deque_simple_types@Uvec2@zgui@@@std@@@std@@@std@@QBEABUvec2@zgui@@XZ 1001a490 f i zgui.obj
 0001:000194e0       ??D?$_Deque_iterator@V?$_Deque_val@U?$_Deque_simple_types@Uvec2@zgui@@@std@@@std@@@std@@QBEAAUvec2@zgui@@XZ 1001a4e0 f i zgui.obj
 0001:00019500       ??G?$_Deque_iterator@V?$_Deque_val@U?$_Deque_simple_types@Uvec2@zgui@@@std@@@std@@@std@@QBE?AV01@H@Z 1001a500 f i zgui.obj
 0001:00019580       ??R<lambda_15711c68e099a15a58f4d77303cb286d>@@QBEXQADQBDID@Z 1001a580 f i zgui.obj
 0001:000195e0       ??R<lambda_6607a66f2a10a1261ff9db96cba1015b>@@QBEXQADQBDIIID@Z 1001a5e0 f i zgui.obj
 0001:00019640       ??R<lambda_ab246b20b9526e2ef7792587e4298a77>@@QBEXQADQBDI1I@Z 1001a640 f i zgui.obj
 0001:000196a0       ??R<lambda_c1b8c41cb4019640539cfd828748c4d4>@@QBEXQADQBDIID@Z 1001a6a0 f i zgui.obj
 0001:00019700       ??R<lambda_c6753c90be971fc9cc00b4f35f237a75>@@QBEXQADID@Z 1001a700 f i zgui.obj
 0001:00019740       ??R?$default_delete@V_Facet_base@std@@@std@@QBEXPAV_Facet_base@1@@Z 1001a740 f i zgui.obj
 0001:00019780       ??Y?$basic_string@DU?$char_traits@D@std@@V?$allocator@D@2@@std@@QAEAAV01@ABV01@@Z 1001a780 f i zgui.obj
 0001:000197a0       ??Y?$basic_string@DU?$char_traits@D@std@@V?$allocator@D@2@@std@@QAEAAV01@D@Z 1001a7a0 f i zgui.obj
 0001:000197c0       ??Y?$basic_string@DU?$char_traits@D@std@@V?$allocator@D@2@@std@@QAEAAV01@QBD@Z 1001a7c0 f i zgui.obj
 0001:000197e0       ??Z?$_Deque_iterator@V?$_Deque_val@U?$_Deque_simple_types@Uvec2@zgui@@@std@@@std@@@std@@QAEAAV01@H@Z 1001a7e0 f i zgui.obj
 0001:00019800       ??_D?$basic_iostream@DU?$char_traits@D@std@@@std@@QAEXXZ 1001a800 f i zgui.obj
 0001:00019830       ??_D?$basic_istream@DU?$char_traits@D@std@@@std@@QAEXXZ 1001a830 f i zgui.obj
 0001:00019860       ??_D?$basic_istringstream@DU?$char_traits@D@std@@V?$allocator@D@2@@std@@QAEXXZ 1001a860 f i zgui.obj
 0001:00019890       ??_D?$basic_ostream@DU?$char_traits@D@std@@@std@@QAEXXZ 1001a890 f i zgui.obj
 0001:000198c0       ??_D?$basic_stringstream@DU?$char_traits@D@std@@V?$allocator@D@2@@std@@QAEXXZ 1001a8c0 f i zgui.obj
 0001:000198e1       ??_E?$basic_iostream@DU?$char_traits@D@std@@@std@@$4PPPPPPPM@A@AEPAXI@Z 1001a8e1 f i zgui.obj
 0001:000198e9       ??_E?$basic_istream@DU?$char_traits@D@std@@@std@@$4PPPPPPPM@A@AEPAXI@Z 1001a8e9 f i zgui.obj
 0001:000198f1       ??_E?$basic_istringstream@DU?$char_traits@D@std@@V?$allocator@D@2@@std@@$4PPPPPPPM@A@AEPAXI@Z 1001a8f1 f i zgui.obj
 0001:000198f9       ??_E?$basic_ostream@DU?$char_traits@D@std@@@std@@$4PPPPPPPM@A@AEPAXI@Z 1001a8f9 f i zgui.obj
 0001:00019901       ??_E?$basic_stringstream@DU?$char_traits@D@std@@V?$allocator@D@2@@std@@$4PPPPPPPM@A@AEPAXI@Z 1001a901 f i zgui.obj
 0001:00019910       ??_E?$basic_ios@DU?$char_traits@D@std@@@std@@UAEPAXI@Z 1001a910 f i zgui.obj
 0001:00019910       ??_G?$basic_ios@DU?$char_traits@D@std@@@std@@UAEPAXI@Z 1001a910 f i zgui.obj
 0001:00019940       ??_E?$basic_iostream@DU?$char_traits@D@std@@@std@@UAEPAXI@Z 1001a940 f i zgui.obj
 0001:00019940       ??_G?$basic_iostream@DU?$char_traits@D@std@@@std@@UAEPAXI@Z 1001a940 f i zgui.obj
 0001:00019980       ??_E?$basic_istream@DU?$char_traits@D@std@@@std@@UAEPAXI@Z 1001a980 f i zgui.obj
 0001:00019980       ??_G?$basic_istream@DU?$char_traits@D@std@@@std@@UAEPAXI@Z 1001a980 f i zgui.obj
 0001:000199c0       ??_G?$basic_istringstream@DU?$char_traits@D@std@@V?$allocator@D@2@@std@@UAEPAXI@Z 1001a9c0 f i zgui.obj
 0001:000199c0       ??_E?$basic_istringstream@DU?$char_traits@D@std@@V?$allocator@D@2@@std@@UAEPAXI@Z 1001a9c0 f i zgui.obj
 0001:00019a00       ??_G?$basic_ostream@DU?$char_traits@D@std@@@std@@UAEPAXI@Z 1001aa00 f i zgui.obj
 0001:00019a00       ??_E?$basic_ostream@DU?$char_traits@D@std@@@std@@UAEPAXI@Z 1001aa00 f i zgui.obj
 0001:00019a40       ??_G?$basic_streambuf@DU?$char_traits@D@std@@@std@@UAEPAXI@Z 1001aa40 f i zgui.obj
 0001:00019a40       ??_E?$basic_streambuf@DU?$char_traits@D@std@@@std@@UAEPAXI@Z 1001aa40 f i zgui.obj
 0001:00019a70       ??_G?$basic_string@DU?$char_traits@D@std@@V?$allocator@D@2@@std@@QAEPAXI@Z 1001aa70 f i zgui.obj
 0001:00019aa0       ??_E?$basic_stringbuf@DU?$char_traits@D@std@@V?$allocator@D@2@@std@@UAEPAXI@Z 1001aaa0 f i zgui.obj
 0001:00019aa0       ??_G?$basic_stringbuf@DU?$char_traits@D@std@@V?$allocator@D@2@@std@@UAEPAXI@Z 1001aaa0 f i zgui.obj
 0001:00019ad0       ??_G?$basic_stringstream@DU?$char_traits@D@std@@V?$allocator@D@2@@std@@UAEPAXI@Z 1001aad0 f i zgui.obj
 0001:00019ad0       ??_E?$basic_stringstream@DU?$char_traits@D@std@@V?$allocator@D@2@@std@@UAEPAXI@Z 1001aad0 f i zgui.obj
 0001:00019b10       ??_E?$ctype@D@std@@MAEPAXI@Z 1001ab10 f i zgui.obj
 0001:00019b10       ??_G?$ctype@D@std@@MAEPAXI@Z 1001ab10 f i zgui.obj
 0001:00019b40       ??_E?$num_put@DV?$ostreambuf_iterator@DU?$char_traits@D@std@@@std@@@std@@MAEPAXI@Z 1001ab40 f i zgui.obj
 0001:00019b40       ??_G?$num_put@DV?$ostreambuf_iterator@DU?$char_traits@D@std@@@std@@@std@@MAEPAXI@Z 1001ab40 f i zgui.obj
 0001:00019b70       ??_G?$numpunct@D@std@@MAEPAXI@Z 1001ab70 f i zgui.obj
 0001:00019b70       ??_E?$numpunct@D@std@@MAEPAXI@Z 1001ab70 f i zgui.obj
 0001:00019ba0       ??_G_Facet_base@std@@UAEPAXI@Z 1001aba0 f i zgui.obj
 0001:00019ba0       ??_E_Facet_base@std@@UAEPAXI@Z 1001aba0 f i zgui.obj
 0001:00019bd0       ??_G_Generic_error_category@std@@UAEPAXI@Z 1001abd0 f i zgui.obj
 0001:00019bd0       ??_E_Generic_error_category@std@@UAEPAXI@Z 1001abd0 f i zgui.obj
 0001:00019c00       ??_G_Iostream_error_category@std@@UAEPAXI@Z 1001ac00 f i zgui.obj
 0001:00019c00       ??_E_Iostream_error_category@std@@UAEPAXI@Z 1001ac00 f i zgui.obj
 0001:00019c30       ??_G_System_error@std@@UAEPAXI@Z 1001ac30 f i zgui.obj
 0001:00019c30       ??_E_System_error@std@@UAEPAXI@Z 1001ac30 f i zgui.obj
 0001:00019c60       ??_Gbad_cast@std@@UAEPAXI@Z 1001ac60 f i zgui.obj
 0001:00019c60       ??_Ebad_cast@std@@UAEPAXI@Z 1001ac60 f i zgui.obj
 0001:00019c60       ??_Gruntime_error@std@@UAEPAXI@Z 1001ac60 f i zgui.obj
 0001:00019c60       ??_Eruntime_error@std@@UAEPAXI@Z 1001ac60 f i zgui.obj
 0001:00019c90       ??_Ectype_base@std@@UAEPAXI@Z 1001ac90 f i zgui.obj
 0001:00019c90       ??_Gctype_base@std@@UAEPAXI@Z 1001ac90 f i zgui.obj
 0001:00019cc0       ??_Gexception@std@@UAEPAXI@Z 1001acc0 f i zgui.obj
 0001:00019cc0       ??_Eexception@std@@UAEPAXI@Z 1001acc0 f i zgui.obj
 0001:00019cf0       ??_Gfacet@locale@std@@MAEPAXI@Z 1001acf0 f i zgui.obj
 0001:00019cf0       ??_Efacet@locale@std@@MAEPAXI@Z 1001acf0 f i zgui.obj
 0001:00019d20       ??_Efailure@ios_base@std@@UAEPAXI@Z 1001ad20 f i zgui.obj
 0001:00019d20       ??_Gfailure@ios_base@std@@UAEPAXI@Z 1001ad20 f i zgui.obj
 0001:00019d50       ??_Eios_base@std@@UAEPAXI@Z 1001ad50 f i zgui.obj
 0001:00019d50       ??_Gios_base@std@@UAEPAXI@Z 1001ad50 f i zgui.obj
 0001:00019d80       ??_Glocale@std@@QAEPAXI@Z  1001ad80 f i zgui.obj
 0001:00019db0       ??_Esystem_error@std@@UAEPAXI@Z 1001adb0 f i zgui.obj
 0001:00019db0       ??_Gsystem_error@std@@UAEPAXI@Z 1001adb0 f i zgui.obj
 0001:00019de0       ??_Gzgui_control_render_t@zgui@@QAEPAXI@Z 1001ade0 f i zgui.obj
 0001:00019e10       ?FromHSV@color@zgui@@QAEAAU12@MMM@Z 1001ae10 f i zgui.obj
 0001:00019e10       ?FromHSV@Color@@QAEAAU1@MMM@Z 1001ae10 f i ESP.obj
 0001:0001a120       ?_Assign_rv_contents@?$basic_string@DU?$char_traits@D@std@@V?$allocator@D@2@@std@@QAEX$$QAV12@U?$integral_constant@_N$00@2@@Z 1001b120 f i zgui.obj
 0001:0001a160       ?_Calculate_growth@?$vector@Uzgui_control_render_t@zgui@@V?$allocator@Uzgui_control_render_t@zgui@@@std@@@std@@ABEII@Z 1001b160 f i zgui.obj
 0001:0001a1b0       ?_Calculate_growth@?$vector@V?$basic_string@DU?$char_traits@D@std@@V?$allocator@D@2@@std@@V?$allocator@V?$basic_string@DU?$char_traits@D@std@@V?$allocator@D@2@@std@@@2@@std@@ABEII@Z 1001b1b0 f i zgui.obj
 0001:0001a200       ?_Change_array@?$vector@Uzgui_control_render_t@zgui@@V?$allocator@Uzgui_control_render_t@zgui@@@std@@@std@@AAEXQAUzgui_control_render_t@zgui@@II@Z 1001b200 f i zgui.obj
 0001:0001a2c0       ?_Change_array@?$vector@V?$basic_string@DU?$char_traits@D@std@@V?$allocator@D@2@@std@@V?$allocator@V?$basic_string@DU?$char_traits@D@std@@V?$allocator@D@2@@std@@@2@@std@@AAEXQAV?$basic_string@DU?$char_traits@D@std@@V?$allocator@D@2@@2@II@Z 1001b2c0 f i zgui.obj
 0001:0001a380       ?_Check_offset@?$_String_val@U?$_Simple_types@D@std@@@std@@QBEXI@Z 1001b380 f i zgui.obj
 0001:0001a3a0       ?_Construct@?$basic_string@DU?$char_traits@D@std@@V?$allocator@D@2@@std@@QAEXQAD0Urandom_access_iterator_tag@2@@Z 1001b3a0 f i zgui.obj
 0001:0001a3e0       ?_Construct_lv_contents@?$basic_string@DU?$char_traits@D@std@@V?$allocator@D@2@@std@@QAEXABV12@@Z 1001b3e0 f i zgui.obj
 0001:0001a4e0       ?_Decref@facet@locale@std@@UAEPAV_Facet_base@3@XZ 1001b4e0 f i zgui.obj
 0001:0001a510       ?_Destroy@?$vector@Uzgui_control_render_t@zgui@@V?$allocator@Uzgui_control_render_t@zgui@@@std@@@std@@AAEXPAUzgui_control_render_t@zgui@@0@Z 1001b510 f i zgui.obj
 0001:0001a540       ?_Destroy@?$vector@V?$basic_string@DU?$char_traits@D@std@@V?$allocator@D@2@@std@@V?$allocator@V?$basic_string@DU?$char_traits@D@std@@V?$allocator@D@2@@std@@@2@@std@@AAEXPAV?$basic_string@DU?$char_traits@D@std@@V?$allocator@D@2@@2@0@Z 1001b540 f i zgui.obj
 0001:0001a570       ?_Eos@?$basic_string@DU?$char_traits@D@std@@V?$allocator@D@2@@std@@QAEXI@Z 1001b570 f i zgui.obj
 0001:0001a5c0       ?_Equal@?$basic_string_view@DU?$char_traits@D@std@@@std@@QBE_NV12@@Z 1001b5c0 f i zgui.obj
 0001:0001a5f0       ?_Ffmt@?$num_put@DV?$ostreambuf_iterator@DU?$char_traits@D@std@@@std@@@std@@ABAPADPADDH@Z 1001b5f0 f i zgui.obj
 0001:0001a730       ?_Fput@?$num_put@DV?$ostreambuf_iterator@DU?$char_traits@D@std@@@std@@@std@@ABA?AV?$ostreambuf_iterator@DU?$char_traits@D@std@@@2@V32@AAVios_base@2@DPBDI@Z 1001b730 f i zgui.obj
 0001:0001abf0       ?_Getblock@?$_Deque_alloc@U?$_Deque_base_types@Uvec2@zgui@@V?$allocator@Uvec2@zgui@@@std@@@std@@@std@@QBEII@Z 1001bbf0 f i zgui.obj
 0001:0001ac20       ?_Getblock@?$_Deque_val@U?$_Deque_simple_types@Uvec2@zgui@@@std@@@std@@QBEII@Z 1001bc20 f i zgui.obj
 0001:0001ac40       ?_Getcat@?$ctype@D@std@@SAIPAPBVfacet@locale@2@PBV42@@Z 1001bc40 f i zgui.obj
 0001:0001ad20       ?_Getcat@?$num_put@DV?$ostreambuf_iterator@DU?$char_traits@D@std@@@std@@@std@@SAIPAPBVfacet@locale@2@PBV42@@Z 1001bd20 f i zgui.obj
 0001:0001ae00       ?_Getcat@?$numpunct@D@std@@SAIPAPBVfacet@locale@2@PBV42@@Z 1001be00 f i zgui.obj
 0001:0001aee0       ?_Getctype@_Locinfo@std@@QBE?AU_Ctypevec@@XZ 1001bee0 f i zgui.obj
 0001:0001af30       ?_Getcvt@_Locinfo@std@@QBE?AU_Cvtvec@@XZ 1001bf30 f i zgui.obj
 0001:0001af70       ?_Getfacet@locale@std@@QBEPBVfacet@12@I@Z 1001bf70 f i zgui.obj
 0001:0001b000       ?_Getfalse@_Locinfo@std@@QBEPBDXZ 1001c000 f i zgui.obj
 0001:0001b010       ?_Getlconv@_Locinfo@std@@QBEPBUlconv@@XZ 1001c010 f i zgui.obj
 0001:0001b020       ?_Getstate@?$basic_stringbuf@DU?$char_traits@D@std@@V?$allocator@D@2@@std@@CAHH@Z 1001c020 f i zgui.obj
 0001:0001b080       ?_Gettrue@_Locinfo@std@@QBEPBDXZ 1001c080 f i zgui.obj
 0001:0001b090       ?_Gnavail@?$basic_streambuf@DU?$char_traits@D@std@@@std@@IBE_JXZ 1001c090 f i zgui.obj
 0001:0001b0c0       ?_Gninc@?$basic_streambuf@DU?$char_traits@D@std@@@std@@IAEPADXZ 1001c0c0 f i zgui.obj
 0001:0001b110       ?_Gnpreinc@?$basic_streambuf@DU?$char_traits@D@std@@@std@@IAEPADXZ 1001c110 f i zgui.obj
 0001:0001b150       ?_Growmap@?$deque@Uvec2@zgui@@V?$allocator@Uvec2@zgui@@@std@@@std@@IAEXI@Z 1001c150 f i zgui.obj
 0001:0001b410       ?_Ifmt@?$num_put@DV?$ostreambuf_iterator@DU?$char_traits@D@std@@@std@@@std@@ABAPADPADPBDH@Z 1001c410 f i zgui.obj
 0001:0001b530       ?_Incref@facet@locale@std@@UAEXXZ 1001c530 f i zgui.obj
 0001:0001b530       ?_Incref@_Ref_count_base@std@@QAEXXZ 1001c530 f i NetvarManager.obj
 0001:0001b550       ?_Init@?$basic_streambuf@DU?$char_traits@D@std@@@std@@IAEXXZ 1001c550 f i zgui.obj
 0001:0001b5c0       ?_Init@?$basic_stringbuf@DU?$char_traits@D@std@@V?$allocator@D@2@@std@@IAEXPBDIH@Z 1001c5c0 f i zgui.obj
 0001:0001b6d0       ?_Init@?$ctype@D@std@@IAEXABV_Locinfo@2@@Z 1001c6d0 f i zgui.obj
 0001:0001b710       ?_Init@?$numpunct@D@std@@IAEXABV_Locinfo@2@_N@Z 1001c710 f i zgui.obj
 0001:0001b8b0       ?_Init@ios_base@std@@IAEXXZ 1001c8b0 f i zgui.obj
 0001:0001b960       ?_Ipfx@?$basic_istream@DU?$char_traits@D@std@@@std@@QAE_N_N@Z 1001c960 f i zgui.obj
 0001:0001bb80       ?_Iput@?$num_put@DV?$ostreambuf_iterator@DU?$char_traits@D@std@@@std@@@std@@ABA?AV?$ostreambuf_iterator@DU?$char_traits@D@std@@@2@V32@AAVios_base@2@DPADI@Z 1001cb80 f i zgui.obj
 0001:0001bf90       ?_Makestr@_System_error@std@@CA?AV?$basic_string@DU?$char_traits@D@std@@V?$allocator@D@2@@2@Verror_code@2@V32@@Z 1001cf90 f i zgui.obj
 0001:0001c040       ?_Move_alloc@?$_String_alloc@U?$_String_base_types@DV?$allocator@D@std@@@std@@@std@@QAEXAAV?$allocator@D@2@@Z 1001d040 f i zgui.obj
 0001:0001c070       ?_Osfx@?$basic_ostream@DU?$char_traits@D@std@@@std@@QAEXXZ 1001d070 f i zgui.obj
 0001:0001c140       ?_Pnavail@?$basic_streambuf@DU?$char_traits@D@std@@@std@@IBE_JXZ 1001d140 f i zgui.obj
 0001:0001c170       ?_Pninc@?$basic_streambuf@DU?$char_traits@D@std@@@std@@IAEPADXZ 1001d170 f i zgui.obj
 0001:0001c1c0       ?_Put@?$num_put@DV?$ostreambuf_iterator@DU?$char_traits@D@std@@@std@@@std@@ABA?AV?$ostreambuf_iterator@DU?$char_traits@D@std@@@2@V32@PBDI@Z 1001d1c0 f i zgui.obj
 0001:0001c220       ?_Rep@?$num_put@DV?$ostreambuf_iterator@DU?$char_traits@D@std@@@std@@@std@@ABA?AV?$ostreambuf_iterator@DU?$char_traits@D@std@@@2@V32@DI@Z 1001d220 f i zgui.obj
 0001:0001c270       ?_Tidy@?$_Yarn@_W@std@@AAEXXZ 1001d270 f i zgui.obj
 0001:0001c270       ?_Tidy@?$_Yarn@D@std@@AAEXXZ 1001d270 f i zgui.obj
 0001:0001c2a0       ?_Tidy@?$basic_stringbuf@DU?$char_traits@D@std@@V?$allocator@D@2@@std@@IAEXXZ 1001d2a0 f i zgui.obj
 0001:0001c350       ?_Tidy@?$ctype@D@std@@IAEXXZ 1001d350 f i zgui.obj
 0001:0001c3b0       ?_Tidy@?$deque@Uvec2@zgui@@V?$allocator@Uvec2@zgui@@@std@@@std@@IAEXXZ 1001d3b0 f i zgui.obj
 0001:0001c4c0       ?_Tidy@?$numpunct@D@std@@AAEXXZ 1001d4c0 f i zgui.obj
 0001:0001c500       ?_Tidy@?$vector@Uzgui_control_render_t@zgui@@V?$allocator@Uzgui_control_render_t@zgui@@@std@@@std@@AAEXXZ 1001d500 f i zgui.obj
 0001:0001c5b0       ?_Tidy@?$vector@V?$basic_string@DU?$char_traits@D@std@@V?$allocator@D@2@@std@@V?$allocator@V?$basic_string@DU?$char_traits@D@std@@V?$allocator@D@2@@std@@@2@@std@@AAEXXZ 1001d5b0 f i zgui.obj
 0001:0001c660       ?_Umove@?$vector@Uzgui_control_render_t@zgui@@V?$allocator@Uzgui_control_render_t@zgui@@@std@@@std@@AAEPAUzgui_control_render_t@zgui@@PAU34@00@Z 1001d660 f i zgui.obj
 0001:0001c690       ?_Umove@?$vector@V?$basic_string@DU?$char_traits@D@std@@V?$allocator@D@2@@std@@V?$allocator@V?$basic_string@DU?$char_traits@D@std@@V?$allocator@D@2@@std@@@2@@std@@AAEPAV?$basic_string@DU?$char_traits@D@std@@V?$allocator@D@2@@2@PAV32@00@Z 1001d690 f i zgui.obj
 0001:0001c6c0       ?_Umove_if_noexcept1@?$vector@Uzgui_control_render_t@zgui@@V?$allocator@Uzgui_control_render_t@zgui@@@std@@@std@@AAEXPAUzgui_control_render_t@zgui@@00U?$integral_constant@_N$00@2@@Z 1001d6c0 f i zgui.obj
 0001:0001c6f0       ?_Umove_if_noexcept1@?$vector@V?$basic_string@DU?$char_traits@D@std@@V?$allocator@D@2@@std@@V?$allocator@V?$basic_string@DU?$char_traits@D@std@@V?$allocator@D@2@@std@@@2@@std@@AAEXPAV?$basic_string@DU?$char_traits@D@std@@V?$allocator@D@2@@2@00U?$integral_constant@_N$00@2@@Z 1001d6f0 f i zgui.obj
 0001:0001c720       ?_Umove_if_noexcept@?$vector@Uzgui_control_render_t@zgui@@V?$allocator@Uzgui_control_render_t@zgui@@@std@@@std@@AAEXPAUzgui_control_render_t@zgui@@00@Z 1001d720 f i zgui.obj
 0001:0001c750       ?_Umove_if_noexcept@?$vector@V?$basic_string@DU?$char_traits@D@std@@V?$allocator@D@2@@std@@V?$allocator@V?$basic_string@DU?$char_traits@D@std@@V?$allocator@D@2@@std@@@2@@std@@AAEXPAV?$basic_string@DU?$char_traits@D@std@@V?$allocator@D@2@@2@00@Z 1001d750 f i zgui.obj
 0001:0001c780       ?_Xran@?$_String_val@U?$_Simple_types@D@std@@@std@@SAXXZ 1001d780 f i zgui.obj
 0001:0001c790       ?_Xrange@?$vector@V?$basic_string@DU?$char_traits@D@std@@V?$allocator@D@2@@std@@V?$allocator@V?$basic_string@DU?$char_traits@D@std@@V?$allocator@D@2@@std@@@2@@std@@CAXXZ 1001d790 f i zgui.obj
 0001:0001c7a0       ?allocate@?$allocator@Uzgui_control_render_t@zgui@@@std@@QAEPAUzgui_control_render_t@zgui@@I@Z 1001d7a0 f i zgui.obj
 0001:0001c7d0       ?allocate@?$allocator@V?$basic_string@DU?$char_traits@D@std@@V?$allocator@D@2@@std@@@std@@QAEPAV?$basic_string@DU?$char_traits@D@std@@V?$allocator@D@2@@2@I@Z 1001d7d0 f i zgui.obj
 0001:0001c800       ?append@?$basic_string@DU?$char_traits@D@std@@V?$allocator@D@2@@std@@QAEAAV12@ABV12@@Z 1001d800 f i zgui.obj
 0001:0001c840       ?append@?$basic_string@DU?$char_traits@D@std@@V?$allocator@D@2@@std@@QAEAAV12@ID@Z 1001d840 f i zgui.obj
 0001:0001c8e0       ?append@?$basic_string@DU?$char_traits@D@std@@V?$allocator@D@2@@std@@QAEAAV12@QBD@Z 1001d8e0 f i zgui.obj
 0001:0001c910       ?append@?$basic_string@DU?$char_traits@D@std@@V?$allocator@D@2@@std@@QAEAAV12@QBDI@Z 1001d910 f i zgui.obj
 0001:0001c9b0       ?assign@?$basic_string@DU?$char_traits@D@std@@V?$allocator@D@2@@std@@QAEAAV12@$$QAV12@@Z 1001d9b0 f i zgui.obj
 0001:0001c9e0       ?assign@?$basic_string@DU?$char_traits@D@std@@V?$allocator@D@2@@std@@QAEAAV12@ID@Z 1001d9e0 f i zgui.obj
 0001:0001ca70       ?assign@?$char_traits@D@std@@SAPADQADID@Z 1001da70 f i zgui.obj
 0001:0001ca90       ?at@?$vector@V?$basic_string@DU?$char_traits@D@std@@V?$allocator@D@2@@std@@V?$allocator@V?$basic_string@DU?$char_traits@D@std@@V?$allocator@D@2@@std@@@2@@std@@QAEAAV?$basic_string@DU?$char_traits@D@std@@V?$allocator@D@2@@2@I@Z 1001da90 f i zgui.obj
 0001:0001cac0       ?back@?$deque@Uvec2@zgui@@V?$allocator@Uvec2@zgui@@@std@@@std@@QAEAAUvec2@zgui@@XZ 1001dac0 f i zgui.obj
 0001:0001cb60       ?backup_line@zgui@@YAXXZ   1001db60 f   zgui.obj
 0001:0001cbb0       ?begin_groupbox@zgui@@YAXV?$basic_string_view@DU?$char_traits@D@std@@@std@@Uvec2@1@H@Z 1001dbb0 f   zgui.obj
 0001:0001cf10       ?begin_window@zgui@@YA_NV?$basic_string_view@DU?$char_traits@D@std@@@std@@Uvec2@1@KH@Z 1001df10 f   zgui.obj
 0001:0001d770       ?button@zgui@@YA_NPBDUvec2@1@@Z 1001e770 f   zgui.obj
 0001:0001db80       ?c_str@?$_Yarn@D@std@@QBEPBDXZ 1001eb80 f i zgui.obj
 0001:0001dbb0       ?c_str@locale@std@@QBEPBDXZ 1001ebb0 f i zgui.obj
 0001:0001dbf0       ?capacity@?$vector@Uzgui_control_render_t@zgui@@V?$allocator@Uzgui_control_render_t@zgui@@@std@@@std@@QBEIXZ 1001ebf0 f i zgui.obj
 0001:0001dc20       ?capacity@?$vector@V?$basic_string@DU?$char_traits@D@std@@V?$allocator@D@2@@std@@V?$allocator@V?$basic_string@DU?$char_traits@D@std@@V?$allocator@D@2@@std@@@2@@std@@QBEIXZ 1001ec20 f i zgui.obj
 0001:0001dc50       ?size@?$basic_string_view@DU?$char_traits@D@std@@@std@@QBEIXZ 1001ec50 f i zgui.obj
 0001:0001dc50       ?category@error_condition@std@@QBEABVerror_category@2@XZ 1001ec50 f i zgui.obj
 0001:0001dc50       ?category@error_code@std@@QBEABVerror_category@2@XZ 1001ec50 f i zgui.obj
 0001:0001dc50       ?end@?$initializer_list@PBD@std@@QBEPBQBDXZ 1001ec50 f i Hooks.obj
 0001:0001dc50       ?end@?$initializer_list@V?$basic_string@DU?$char_traits@D@std@@V?$allocator@D@2@@std@@@std@@QBEPBV?$basic_string@DU?$char_traits@D@std@@V?$allocator@D@2@@2@XZ 1001ec50 f i Menu.obj
 0001:0001dc50       ?GetType@RecvProp@@QBE?AW4SendPropType@@XZ 1001ec50 f i NetvarManager.obj
 0001:0001dc50       ?length@?$basic_string_view@DU?$char_traits@D@std@@@std@@QBEIXZ 1001ec50 f i zgui.obj
 0001:0001dc50       ?GetNumProps@RecvTable@@QAEHXZ 1001ec50 f i NetvarManager.obj
 0001:0001dc50       ?end@?$initializer_list@Umulti_select_item@zgui@@@std@@QBEPBUmulti_select_item@zgui@@XZ 1001ec50 f i Menu.obj
 0001:0001dc70       ?checkbox@zgui@@YAXPBDAA_N@Z 1001ec70 f   zgui.obj
 0001:0001e090       ?clear@?$basic_ios@DU?$char_traits@D@std@@@std@@QAEXH_N@Z 1001f090 f i zgui.obj
 0001:0001e0d0       ?clear@?$vector@Uzgui_control_render_t@zgui@@V?$allocator@Uzgui_control_render_t@zgui@@@std@@@std@@QAEXXZ 1001f0d0 f i zgui.obj
 0001:0001e150       ?clear@ios_base@std@@QAEXH@Z 1001f150 f i zgui.obj
 0001:0001e170       ?clear@ios_base@std@@QAEXH_N@Z 1001f170 f i zgui.obj
 0001:0001e210       ?clickable_text@zgui@@YA_NPBD@Z 1001f210 f   zgui.obj
 0001:0001e4b0       ?colorpicker@zgui@@YAXPBDAAUcolor@1@@Z 1001f4b0 f   zgui.obj
 0001:0001f3c0       ?combobox@zgui@@YAXPBDV?$vector@V?$basic_string@DU?$char_traits@D@std@@V?$allocator@D@2@@std@@V?$allocator@V?$basic_string@DU?$char_traits@D@std@@V?$allocator@D@2@@std@@@2@@std@@AAH@Z 100203c0 f   zgui.obj
 0001:0001fc00       ?deallocate@?$allocator@Uvec2@zgui@@@std@@QAEXQAUvec2@zgui@@I@Z 10020c00 f i zgui.obj
 0001:0001fc00       ?deallocate@?$allocator@UHitMarker_t@@@std@@QAEXQAUHitMarker_t@@I@Z 10020c00 f i Hooks.obj
 0001:0001fc20       ?deallocate@?$allocator@Uzgui_control_render_t@zgui@@@std@@QAEXQAUzgui_control_render_t@zgui@@I@Z 10020c20 f i zgui.obj
 0001:0001fc40       ?deallocate@?$allocator@V?$basic_string@DU?$char_traits@D@std@@V?$allocator@D@2@@std@@@std@@QAEXQAV?$basic_string@DU?$char_traits@D@std@@V?$allocator@D@2@@2@I@Z 10020c40 f i zgui.obj
 0001:0001fc60       ?decimal_point@?$numpunct@D@std@@QBEDXZ 10020c60 f i zgui.obj
 0001:0001fc60       ?always_noconv@codecvt_base@std@@QBE_NXZ 10020c60 f i Interfaces.obj
 0001:0001fc80       ?default_error_condition@error_category@std@@UBE?AVerror_condition@2@H@Z 10020c80 f i zgui.obj
 0001:0001fca0       ?do_decimal_point@?$numpunct@D@std@@MBEDXZ 10020ca0 f i zgui.obj
 0001:0001fcc0       ?do_falsename@?$numpunct@D@std@@MBE?AV?$basic_string@DU?$char_traits@D@std@@V?$allocator@D@2@@2@XZ 10020cc0 f i zgui.obj
 0001:0001fd00       ?do_grouping@?$numpunct@D@std@@MBE?AV?$basic_string@DU?$char_traits@D@std@@V?$allocator@D@2@@2@XZ 10020d00 f i zgui.obj
 0001:0001fd40       ?do_narrow@?$ctype@D@std@@MBEDDD@Z 10020d40 f i zgui.obj
 0001:0001fd50       ?do_narrow@?$ctype@D@std@@MBEPBDPBD0DPAD@Z 10020d50 f i zgui.obj
 0001:0001fd90       ?do_put@?$num_put@DV?$ostreambuf_iterator@DU?$char_traits@D@std@@@std@@@std@@MBE?AV?$ostreambuf_iterator@DU?$char_traits@D@std@@@2@V32@AAVios_base@2@DJ@Z 10020d90 f i zgui.obj
 0001:0001fe00       ?do_put@?$num_put@DV?$ostreambuf_iterator@DU?$char_traits@D@std@@@std@@@std@@MBE?AV?$ostreambuf_iterator@DU?$char_traits@D@std@@@2@V32@AAVios_base@2@DK@Z 10020e00 f i zgui.obj
 0001:0001fe70       ?do_put@?$num_put@DV?$ostreambuf_iterator@DU?$char_traits@D@std@@@std@@@std@@MBE?AV?$ostreambuf_iterator@DU?$char_traits@D@std@@@2@V32@AAVios_base@2@DN@Z 10020e70 f i zgui.obj
 0001:00020030       ?do_put@?$num_put@DV?$ostreambuf_iterator@DU?$char_traits@D@std@@@std@@@std@@MBE?AV?$ostreambuf_iterator@DU?$char_traits@D@std@@@2@V32@AAVios_base@2@DO@Z 10021030 f i zgui.obj
 0001:00020200       ?do_put@?$num_put@DV?$ostreambuf_iterator@DU?$char_traits@D@std@@@std@@@std@@MBE?AV?$ostreambuf_iterator@DU?$char_traits@D@std@@@2@V32@AAVios_base@2@DPBX@Z 10021200 f i zgui.obj
 0001:00020250       ?do_put@?$num_put@DV?$ostreambuf_iterator@DU?$char_traits@D@std@@@std@@@std@@MBE?AV?$ostreambuf_iterator@DU?$char_traits@D@std@@@2@V32@AAVios_base@2@D_J@Z 10021250 f i zgui.obj
 0001:000202c0       ?do_put@?$num_put@DV?$ostreambuf_iterator@DU?$char_traits@D@std@@@std@@@std@@MBE?AV?$ostreambuf_iterator@DU?$char_traits@D@std@@@2@V32@AAVios_base@2@D_K@Z 100212c0 f i zgui.obj
 0001:00020330       ?do_put@?$num_put@DV?$ostreambuf_iterator@DU?$char_traits@D@std@@@std@@@std@@MBE?AV?$ostreambuf_iterator@DU?$char_traits@D@std@@@2@V32@AAVios_base@2@D_N@Z 10021330 f i zgui.obj
 0001:00020570       ?do_thousands_sep@?$numpunct@D@std@@MBEDXZ 10021570 f i zgui.obj
 0001:00020590       ?do_tolower@?$ctype@D@std@@MBEDD@Z 10021590 f i zgui.obj
 0001:000205c0       ?do_tolower@?$ctype@D@std@@MBEPBDPADPBD@Z 100215c0 f i zgui.obj
 0001:00020620       ?do_toupper@?$ctype@D@std@@MBEDD@Z 10021620 f i zgui.obj
 0001:00020650       ?do_toupper@?$ctype@D@std@@MBEPBDPADPBD@Z 10021650 f i zgui.obj
 0001:000206b0       ?do_truename@?$numpunct@D@std@@MBE?AV?$basic_string@DU?$char_traits@D@std@@V?$allocator@D@2@@2@XZ 100216b0 f i zgui.obj
 0001:000206f0       ?do_widen@?$ctype@D@std@@MBEDD@Z 100216f0 f i zgui.obj
 0001:00020700       ?do_widen@?$ctype@D@std@@MBEPBDPBD0PAD@Z 10021700 f i zgui.obj
 0001:00020740       ?dummy@zgui@@YAXXZ         10021740 f   zgui.obj
 0001:00020790       ?eback@?$basic_streambuf@DU?$char_traits@D@std@@@std@@IBEPADXZ 10021790 f i zgui.obj
 0001:000207b0       ?egptr@?$basic_streambuf@DU?$char_traits@D@std@@@std@@IBEPADXZ 100217b0 f i zgui.obj
 0001:000207d0       ?empty@?$basic_string@DU?$char_traits@D@std@@V?$allocator@D@2@@std@@QBE_NXZ 100217d0 f i zgui.obj
 0001:00020800       ?empty@?$basic_string_view@DU?$char_traits@D@std@@@std@@QBE_NXZ 10021800 f i zgui.obj
 0001:00020830       ?empty@?$stack@Uvec2@zgui@@V?$deque@Uvec2@zgui@@V?$allocator@Uvec2@zgui@@@std@@@std@@@std@@QBE_NXZ 10021830 f i zgui.obj
 0001:00020850       ?end_groupbox@zgui@@YAXXZ  10021850 f   zgui.obj
 0001:00020890       ?end_window@zgui@@YAXXZ    10021890 f   zgui.obj
 0001:00020ed0       ?epptr@?$basic_streambuf@DU?$char_traits@D@std@@@std@@IBEPADXZ 10021ed0 f i zgui.obj
 0001:00020ef0       ?eq@?$char_traits@D@std@@SA_NABD0@Z 10021ef0 f i zgui.obj
 0001:00020f20       ?eq_int_type@?$char_traits@D@std@@SA_NABH0@Z 10021f20 f i zgui.obj
 0001:00020f50       ?equivalent@error_category@std@@UBE_NABVerror_code@2@H@Z 10021f50 f i zgui.obj
 0001:00020fa0       ?equivalent@error_category@std@@UBE_NHABVerror_condition@2@@Z 10021fa0 f i zgui.obj
 0001:00020fe0       ?erase@?$basic_string@DU?$char_traits@D@std@@V?$allocator@D@2@@std@@QAEAAV12@I@Z 10021fe0 f i zgui.obj
 0001:00021020       ?fail@ios_base@std@@QBE_NXZ 10022020 f i zgui.obj
 0001:00021050       ?failed@?$ostreambuf_iterator@DU?$char_traits@D@std@@@std@@QBE_NXZ 10022050 f i zgui.obj
 0001:00021060       ?falsename@?$numpunct@D@std@@QBE?AV?$basic_string@DU?$char_traits@D@std@@V?$allocator@D@2@@2@XZ 10022060 f i zgui.obj
 0001:000210a0       ?fill@?$basic_ios@DU?$char_traits@D@std@@@std@@QBEDXZ 100220a0 f i zgui.obj
 0001:000210c0       ?fixed@std@@YAAAVios_base@1@AAV21@@Z 100220c0 f i zgui.obj
 0001:000210e0       ?flags@ios_base@std@@QBEHXZ 100220e0 f i zgui.obj
 0001:00021100       ?flush@?$basic_ostream@DU?$char_traits@D@std@@@std@@QAEAAV12@XZ 10022100 f i zgui.obj
 0001:000211b0       ?gbump@?$basic_streambuf@DU?$char_traits@D@std@@@std@@IAEXH@Z 100221b0 f i zgui.obj
 0001:000211f0       ?get_allocator@?$basic_string@DU?$char_traits@D@std@@V?$allocator@D@2@@std@@QBE?AV?$allocator@D@2@XZ 100221f0 f i zgui.obj
 0001:00021210       ?getloc@ios_base@std@@QBE?AVlocale@2@XZ 10022210 f i zgui.obj
 0001:00021250       ?good@ios_base@std@@QBE_NXZ 10022250 f i zgui.obj
 0001:00021280       ?gptr@?$basic_streambuf@DU?$char_traits@D@std@@@std@@IBEPADXZ 10022280 f i zgui.obj
 0001:000212a0       ?grouping@?$numpunct@D@std@@QBE?AV?$basic_string@DU?$char_traits@D@std@@V?$allocator@D@2@@2@XZ 100222a0 f i zgui.obj
 0001:00021320       ?init@?$basic_ios@DU?$char_traits@D@std@@@std@@IAEXPAV?$basic_streambuf@DU?$char_traits@D@std@@@2@_N@Z 10022320 f i zgui.obj
 0001:00021390       ?insert@?$basic_string@DU?$char_traits@D@std@@V?$allocator@D@2@@std@@QAEAAV12@IID@Z 10022390 f i zgui.obj
 0001:00021450       ?iostream_category@std@@YAABVerror_category@1@XZ 10022450 f i zgui.obj
 0001:00021480       ?is@?$ctype@D@std@@QBE_NFD@Z 10022480 f i zgui.obj
 0001:000214c0       ?key_bind@zgui@@YAXPBDAAH@Z 100224c0 f   zgui.obj
 0001:00021a70       ?key_down@@YA_NH@Z         10022a70 f i zgui.obj
 0001:00021a80       ?key_pressed@@YA_NH@Z      10022a80 f i zgui.obj
 0001:00021ac0       ?listbox@zgui@@YAXPBDV?$vector@Umulti_select_item@zgui@@V?$allocator@Umulti_select_item@zgui@@@std@@@std@@@Z 10022ac0 f   zgui.obj
 0001:000220e0       ?make_error_code@std@@YA?AVerror_code@1@W4io_errc@1@@Z 100230e0 f i zgui.obj
 0001:00022100       ?max_size@?$_Default_allocator_traits@V?$allocator@Uvec2@zgui@@@std@@@std@@SAIABV?$allocator@Uvec2@zgui@@@2@@Z 10023100 f i zgui.obj
 0001:00022100       ?max_size@?$_Default_allocator_traits@V?$allocator@UHitMarker_t@@@std@@@std@@SAIABV?$allocator@UHitMarker_t@@@2@@Z 10023100 f i Hooks.obj
 0001:00022110       ?max_size@?$_Default_allocator_traits@V?$allocator@Uzgui_control_render_t@zgui@@@std@@@std@@SAIABV?$allocator@Uzgui_control_render_t@zgui@@@2@@Z 10023110 f i zgui.obj
 0001:00022120       ?max_size@?$_Default_allocator_traits@V?$allocator@V?$basic_string@DU?$char_traits@D@std@@V?$allocator@D@2@@std@@@std@@@std@@SAIABV?$allocator@V?$basic_string@DU?$char_traits@D@std@@V?$allocator@D@2@@std@@@2@@Z 10023120 f i zgui.obj
 0001:00022130       ?max_size@?$deque@Uvec2@zgui@@V?$allocator@Uvec2@zgui@@@std@@@std@@QBEIXZ 10023130 f i zgui.obj
 0001:00022150       ?max_size@?$vector@Uzgui_control_render_t@zgui@@V?$allocator@Uzgui_control_render_t@zgui@@@std@@@std@@QBEIXZ 10023150 f i zgui.obj
 0001:00022190       ?max_size@?$vector@V?$basic_string@DU?$char_traits@D@std@@V?$allocator@D@2@@std@@V?$allocator@V?$basic_string@DU?$char_traits@D@std@@V?$allocator@D@2@@std@@@2@@std@@QBEIXZ 10023190 f i zgui.obj
 0001:000221d0       ?message@_Generic_error_category@std@@UBE?AV?$basic_string@DU?$char_traits@D@std@@V?$allocator@D@2@@2@H@Z 100231d0 f i zgui.obj
 0001:00022210       ?message@_Iostream_error_category@std@@UBE?AV?$basic_string@DU?$char_traits@D@std@@V?$allocator@D@2@@2@H@Z 10023210 f i zgui.obj
 0001:00022270       ?message@error_code@std@@QBE?AV?$basic_string@DU?$char_traits@D@std@@V?$allocator@D@2@@2@XZ 10023270 f i zgui.obj
 0001:000222d0       ?mouse_in_region@@YA_NHHHH@Z 100232d0 f   zgui.obj
 0001:00022340       ?multi_combobox@zgui@@YAXPBDV?$vector@Umulti_select_item@zgui@@V?$allocator@Umulti_select_item@zgui@@@std@@@std@@@Z 10023340 f   zgui.obj
 0001:00022cc0       ?name@_Generic_error_category@std@@UBEPBDXZ 10023cc0 f i zgui.obj
 0001:00022cd0       ?name@_Iostream_error_category@std@@UBEPBDXZ 10023cd0 f i zgui.obj
 0001:00022ce0       ?next_column@zgui@@YAXHH@Z 10023ce0 f   zgui.obj
 0001:00022d60       ?not_eof@?$char_traits@D@std@@SAHABH@Z 10023d60 f i zgui.obj
 0001:00022db0       ?overflow@?$basic_streambuf@DU?$char_traits@D@std@@@std@@MAEHH@Z 10023db0 f i zgui.obj
 0001:00022db0       ?pbackfail@?$basic_streambuf@DU?$char_traits@D@std@@@std@@MAEHH@Z 10023db0 f i zgui.obj
 0001:00022dd0       ?overflow@?$basic_stringbuf@DU?$char_traits@D@std@@V?$allocator@D@2@@std@@MAEHH@Z 10023dd0 f i zgui.obj
 0001:00022fe0       ?pbackfail@?$basic_stringbuf@DU?$char_traits@D@std@@V?$allocator@D@2@@std@@MAEHH@Z 10023fe0 f i zgui.obj
 0001:000230c0       ?pbase@?$basic_streambuf@DU?$char_traits@D@std@@@std@@IBEPADXZ 100240c0 f i zgui.obj
 0001:000230e0       ?pbump@?$basic_streambuf@DU?$char_traits@D@std@@@std@@IAEXH@Z 100240e0 f i zgui.obj
 0001:00023120       ?poll_input@zgui@@YAXPAUHWND__@@@Z 10024120 f   zgui.obj
 0001:00023210       ?poll_input@zgui@@YAXV?$basic_string_view@DU?$char_traits@D@std@@@std@@@Z 10024210 f   zgui.obj
 0001:00023310       ?pop@?$stack@Uvec2@zgui@@V?$deque@Uvec2@zgui@@V?$allocator@Uvec2@zgui@@@std@@@std@@@std@@QAEXXZ 10024310 f i zgui.obj
 0001:00023330       ?pop_back@?$basic_string@DU?$char_traits@D@std@@V?$allocator@D@2@@std@@QAEXXZ 10024330 f i zgui.obj
 0001:00023360       ?pop_back@?$deque@Uvec2@zgui@@V?$allocator@Uvec2@zgui@@@std@@@std@@QAEXXZ 10024360 f i zgui.obj
 0001:00023410       ?pop_cursor_pos@zgui@@YA?AUvec2@1@XZ 10024410 f   zgui.obj
 0001:00023460       ?pptr@?$basic_streambuf@DU?$char_traits@D@std@@@std@@IBEPADXZ 10024460 f i zgui.obj
 0001:00023480       ?precision@ios_base@std@@QBE_JXZ 10024480 f i zgui.obj
 0001:000234a0       ?pubsync@?$basic_streambuf@DU?$char_traits@D@std@@@std@@QAEHXZ 100244a0 f i zgui.obj
 0001:000234c0       ?push@?$stack@Uvec2@zgui@@V?$deque@Uvec2@zgui@@V?$allocator@Uvec2@zgui@@@std@@@std@@@std@@QAEXABUvec2@zgui@@@Z 100244c0 f i zgui.obj
 0001:000234f0       ?push_back@?$basic_string@DU?$char_traits@D@std@@V?$allocator@D@2@@std@@QAEXD@Z 100244f0 f i zgui.obj
 0001:00023580       ?push_back@?$deque@Uvec2@zgui@@V?$allocator@Uvec2@zgui@@@std@@@std@@QAEXABUvec2@zgui@@@Z 10024580 f i zgui.obj
 0001:000236e0       ?push_back@?$vector@V?$basic_string@DU?$char_traits@D@std@@V?$allocator@D@2@@std@@V?$allocator@V?$basic_string@DU?$char_traits@D@std@@V?$allocator@D@2@@std@@@2@@std@@QAEXABV?$basic_string@DU?$char_traits@D@std@@V?$allocator@D@2@@2@@Z 100246e0 f i zgui.obj
 0001:00023700       ?push_cursor_pos@zgui@@YAXUvec2@1@@Z 10024700 f   zgui.obj
 0001:00023740       ?put@?$num_put@DV?$ostreambuf_iterator@DU?$char_traits@D@std@@@std@@@std@@QBE?AV?$ostreambuf_iterator@DU?$char_traits@D@std@@@2@V32@AAVios_base@2@DN@Z 10024740 f i zgui.obj
 0001:00023790       ?rdbuf@?$basic_ios@DU?$char_traits@D@std@@@std@@QBEPAV?$basic_streambuf@DU?$char_traits@D@std@@@2@XZ 10024790 f i zgui.obj
 0001:000237b0       ?GetName@RecvTable@@QAEPBDXZ 100247b0 f i NetvarManager.obj
 0001:000237b0       ?rdstate@ios_base@std@@QBEHXZ 100247b0 f i zgui.obj
 0001:000237d0       ?release@?$unique_ptr@VNetvarTree@@U?$default_delete@VNetvarTree@@@std@@@std@@QAEPAVNetvarTree@@XZ 100247d0 f i Hooks.obj
 0001:000237d0       ?release@?$unique_ptr@VVMTHook@@U?$default_delete@VVMTHook@@@std@@@std@@QAEPAVVMTHook@@XZ 100247d0 f i Hooks.obj
 0001:000237d0       ?release@?$unique_ptr@V_Facet_base@std@@U?$default_delete@V_Facet_base@std@@@2@@std@@QAEPAV_Facet_base@2@XZ 100247d0 f i zgui.obj
 0001:000237d0       ?release@?$unique_ptr@$$BY0A@IU?$default_delete@$$BY0A@I@std@@@std@@QAEPAIXZ 100247d0 f i Hooks.obj
 0001:00023800       ?resize@?$basic_string@DU?$char_traits@D@std@@V?$allocator@D@2@@std@@QAEXID@Z 10024800 f i zgui.obj
 0001:00023850       ?same_line@zgui@@YAXM@Z    10024850 f   zgui.obj
 0001:000238b0       ?sbumpc@?$basic_streambuf@DU?$char_traits@D@std@@@std@@QAEHXZ 100248b0 f i zgui.obj
 0001:00023910       ?seekoff@?$basic_streambuf@DU?$char_traits@D@std@@@std@@MAE?AV?$fpos@U_Mbstatet@@@2@_JHH@Z 10024910 f i zgui.obj
 0001:00023930       ?seekoff@?$basic_stringbuf@DU?$char_traits@D@std@@V?$allocator@D@2@@std@@MAE?AV?$fpos@U_Mbstatet@@@2@_JHH@Z 10024930 f i zgui.obj
 0001:00023b20       ?seekpos@?$basic_streambuf@DU?$char_traits@D@std@@@std@@MAE?AV?$fpos@U_Mbstatet@@@2@V32@H@Z 10024b20 f i zgui.obj
 0001:00023b40       ?seekpos@?$basic_stringbuf@DU?$char_traits@D@std@@V?$allocator@D@2@@std@@MAE?AV?$fpos@U_Mbstatet@@@2@V32@H@Z 10024b40 f i zgui.obj
 0001:00023c80       ?sendToClipboard@@YAXPAUHWND__@@ABV?$basic_string@DU?$char_traits@D@std@@V?$allocator@D@2@@std@@@Z 10024c80 f   zgui.obj
 0001:00023d10       ?setbuf@?$basic_streambuf@DU?$char_traits@D@std@@@std@@MAEPAV12@PAD_J@Z 10024d10 f i zgui.obj
 0001:00023d20       ?setf@ios_base@std@@QAEHHH@Z 10024d20 f i zgui.obj
 0001:00023d60       ?setg@?$basic_streambuf@DU?$char_traits@D@std@@@std@@IAEXPAD00@Z 10024d60 f i zgui.obj
 0001:00023da0       ?setp@?$basic_streambuf@DU?$char_traits@D@std@@@std@@IAEXPAD00@Z 10024da0 f i zgui.obj
 0001:00023de0       ?setp@?$basic_streambuf@DU?$char_traits@D@std@@@std@@IAEXPAD0@Z 10024de0 f i zgui.obj
 0001:00023e20       ?setstate@?$basic_ios@DU?$char_traits@D@std@@@std@@QAEXH_N@Z 10024e20 f i zgui.obj
 0001:00023e50       ?sgetc@?$basic_streambuf@DU?$char_traits@D@std@@@std@@QAEHXZ 10024e50 f i zgui.obj
 0001:00023eb0       ?showmanyc@?$basic_streambuf@DU?$char_traits@D@std@@@std@@MAE_JXZ 10024eb0 f i zgui.obj
 0001:00023ec0       ?size@?$vector@Uzgui_control_render_t@zgui@@V?$allocator@Uzgui_control_render_t@zgui@@@std@@@std@@QBEIXZ 10024ec0 f i zgui.obj
 0001:00023ef0       ?size@?$vector@V?$basic_string@DU?$char_traits@D@std@@V?$allocator@D@2@@std@@V?$allocator@V?$basic_string@DU?$char_traits@D@std@@V?$allocator@D@2@@std@@@2@@std@@QBEIXZ 10024ef0 f i zgui.obj
 0001:00023f20       ?slider_float@zgui@@YAXPBDMMAAM@Z 10024f20 f   zgui.obj
 0001:000248a0       ?slider_int@zgui@@YAXPBDHHAAH@Z 100258a0 f   zgui.obj
 0001:00025170       ?snextc@?$basic_streambuf@DU?$char_traits@D@std@@@std@@QAEHXZ 10026170 f i zgui.obj
 0001:00025200       ?split_str@@YA?AV?$vector@V?$basic_string@DU?$char_traits@D@std@@V?$allocator@D@2@@std@@V?$allocator@V?$basic_string@DU?$char_traits@D@std@@V?$allocator@D@2@@std@@@2@@std@@PBDD@Z 10026200 f   zgui.obj
 0001:000252d0       ?sputc@?$basic_streambuf@DU?$char_traits@D@std@@@std@@QAEHD@Z 100262d0 f i zgui.obj
 0001:00025350       ?str@?$basic_stringbuf@DU?$char_traits@D@std@@V?$allocator@D@2@@std@@QBE?AV?$basic_string@DU?$char_traits@D@std@@V?$allocator@D@2@@2@XZ 10026350 f i zgui.obj
 0001:00025450       ?str@?$basic_stringstream@DU?$char_traits@D@std@@V?$allocator@D@2@@std@@QBE?AV?$basic_string@DU?$char_traits@D@std@@V?$allocator@D@2@@2@XZ 10026450 f i zgui.obj
 0001:00025490       ?tab_button@zgui@@YA_NPBDUvec2@1@_N@Z 10026490 f   zgui.obj
 0001:00025970       ?text@zgui@@YAXPBD@Z       10026970 f   zgui.obj
 0001:00025b20       ?text_input@zgui@@YAXPBDAAV?$basic_string@DU?$char_traits@D@std@@V?$allocator@D@2@@std@@HH@Z 10026b20 f   zgui.obj
 0001:000261d0       ?thousands_sep@?$numpunct@D@std@@QBEDXZ 100271d0 f i zgui.obj
 0001:000261f0       ?tie@?$basic_ios@DU?$char_traits@D@std@@@std@@QBEPAV?$basic_ostream@DU?$char_traits@D@std@@@2@XZ 100271f0 f i zgui.obj
 0001:00026210       ?to_char_type@?$char_traits@D@std@@SADABH@Z 10027210 f i zgui.obj
 0001:00026220       ?to_int_type@?$char_traits@D@std@@SAHABD@Z 10027220 f i zgui.obj
 0001:00026230       ?to_string@std@@YA?AV?$basic_string@DU?$char_traits@D@std@@V?$allocator@D@2@@1@H@Z 10027230 f i zgui.obj
 0001:00026260       ?toggle_button@zgui@@YAXPBDUvec2@1@AA_N@Z 10027260 f   zgui.obj
 0001:00026680       ?top@?$stack@Uvec2@zgui@@V?$deque@Uvec2@zgui@@V?$allocator@Uvec2@zgui@@@std@@@std@@@std@@QAEAAUvec2@zgui@@XZ 10027680 f i zgui.obj
 0001:000266a0       ?truename@?$numpunct@D@std@@QBE?AV?$basic_string@DU?$char_traits@D@std@@V?$allocator@D@2@@2@XZ 100276a0 f i zgui.obj
 0001:000266e0       ?uflow@?$basic_streambuf@DU?$char_traits@D@std@@@std@@MAEHXZ 100276e0 f i zgui.obj
 0001:00026740       ?underflow@?$basic_streambuf@DU?$char_traits@D@std@@@std@@MAEHXZ 10027740 f i zgui.obj
 0001:00026750       ?underflow@?$basic_stringbuf@DU?$char_traits@D@std@@V?$allocator@D@2@@std@@MAEHXZ 10027750 f i zgui.obj
 0001:00026830       ?what@exception@std@@UBEPBDXZ 10027830 f i zgui.obj
 0001:00026860       ?widen@?$basic_ios@DU?$char_traits@D@std@@@std@@QBEDD@Z 10027860 f i zgui.obj
 0001:000268e0       ?widen@?$ctype@D@std@@QBEDD@Z 100278e0 f i zgui.obj
 0001:00026910       ?widen@?$ctype@D@std@@QBEPBDPBD0PAD@Z 10027910 f i zgui.obj
 0001:00026940       ?width@ios_base@std@@QAE_J_J@Z 10027940 f i zgui.obj
 0001:00026980       ?width@ios_base@std@@QBE_JXZ 10027980 f i zgui.obj
 0001:000269a0       ?xsgetn@?$basic_streambuf@DU?$char_traits@D@std@@@std@@MAE_JPAD_J@Z 100279a0 f i zgui.obj
 0001:00026ac0       ?xsputn@?$basic_streambuf@DU?$char_traits@D@std@@@std@@MAE_JPBD_J@Z 10027ac0 f i zgui.obj
 0001:00026bf0       ___local_stdio_printf_options 10027bf0 f i zgui.obj
 0001:00026c00       __vsprintf_s_l             10027c00 f i zgui.obj
 0001:00026c50       _fabsl                     10027c50 f i zgui.obj
 0001:00026c70       _frexpl                    10027c70 f i zgui.obj
 0001:00026c90       _sprintf_s                 10027c90 f i zgui.obj
 0001:00026cd0       ?OnDllAttach@@YAHXZ        10027cd0 f   DLLMain.obj
 0001:00026d10       _DllMain@12                10027d10 f   DLLMain.obj
 0001:00026d50       ??$?0U?$default_delete@$$BY0A@I@std@@$0A@@?$unique_ptr@$$BY0A@IU?$default_delete@$$BY0A@I@std@@@std@@QAE@$$T@Z 10027d50 f i Hooks.obj
 0001:00026d90       ??$?0U?$default_delete@VShadowVTManager@@@std@@$0A@@?$unique_ptr@VShadowVTManager@@U?$default_delete@VShadowVTManager@@@std@@@std@@QAE@XZ 10027d90 f i Hooks.obj
 0001:00026d90       ??$?0U?$default_delete@VVMTHook@@@std@@$0A@@?$unique_ptr@VVMTHook@@U?$default_delete@VVMTHook@@@std@@@std@@QAE@XZ 10027d90 f i Hooks.obj
 0001:00026d90       ??$?0U?$default_delete@VNetvarTree@@@std@@$0A@@?$unique_ptr@VNetvarTree@@U?$default_delete@VNetvarTree@@@std@@@std@@QAE@XZ 10027d90 f i NetvarManager.obj
 0001:00026dd0       ??$?0V?$_String_iterator@V?$_String_val@U?$_Simple_types@D@std@@@std@@@std@@X@?$basic_string@_WU?$char_traits@_W@std@@V?$allocator@_W@2@@std@@QAE@V?$_String_iterator@V?$_String_val@U?$_Simple_types@D@std@@@std@@@1@0ABV?$allocator@_W@1@@Z 10027dd0 f i Hooks.obj
 0001:00026e80       ??$?0_JU?$ratio@$00$00@std@@X@?$duration@_JU?$ratio@$00$0DLJKMKAA@@std@@@chrono@std@@QAE@ABV?$duration@_JU?$ratio@$00$00@std@@@12@@Z 10027e80 f i Hooks.obj
 0001:00026ec0       ??$?0_JU?$ratio@$00$0JIJGIA@@std@@X@?$duration@_JU?$ratio@$00$0DLJKMKAA@@std@@@chrono@std@@QAE@ABV?$duration@_JU?$ratio@$00$0JIJGIA@@std@@@12@@Z 10027ec0 f i Hooks.obj
 0001:00026f00       ??$?0_JX@?$duration@_JU?$ratio@$00$0DLJKMKAA@@std@@@chrono@std@@QAE@AB_J@Z 10027f00 f i Hooks.obj
 0001:00026f00       ??$?0_JX@?$duration@_JU?$ratio@$00$0DOI@@std@@@chrono@std@@QAE@AB_J@Z 10027f00 f i Hooks.obj
 0001:00026f00       ??$?0_JX@?$duration@_JU?$ratio@$00$0JIJGIA@@std@@@chrono@std@@QAE@AB_J@Z 10027f00 f i Hooks.obj
 0001:00026f00       ??$?0_JX@?$duration@_JU?$ratio@$00$00@std@@@chrono@std@@QAE@AB_J@Z 10027f00 f i Hooks.obj
 0001:00026f00       ??$?0_KX@?$duration@_JU?$ratio@$00$0DOI@@std@@@chrono@std@@QAE@AB_K@Z 10027f00 f i Hooks.obj
 0001:00026f20       ??$?HDU?$char_traits@D@std@@V?$allocator@D@1@@std@@YA?AV?$basic_string@DU?$char_traits@D@std@@V?$allocator@D@2@@0@$$QAV10@ABV10@@Z 10027f20 f i Hooks.obj
 0001:00026f60       ??$?HDU?$char_traits@D@std@@V?$allocator@D@1@@std@@YA?AV?$basic_string@DU?$char_traits@D@std@@V?$allocator@D@2@@0@ABV10@0@Z 10027f60 f i Hooks.obj
 0001:00027000       ??$?M_JU?$ratio@$00$0DOI@@std@@_JU01@@chrono@std@@YA_NABV?$duration@_JU?$ratio@$00$0DOI@@std@@@01@0@Z 10028000 f i Hooks.obj
 0001:00027070       ??$?N_JU?$ratio@$00$0DOI@@std@@_JU01@@chrono@std@@YA_NABV?$duration@_JU?$ratio@$00$0DOI@@std@@@01@0@Z 10028070 f i Hooks.obj
 0001:000270b0       ??$?RI$0A@@?$default_delete@$$BY0A@I@std@@QBEXPAI@Z 100280b0 f i Hooks.obj
 0001:000270e0       ??$_Construct@PAD@?$basic_string@_WU?$char_traits@_W@std@@V?$allocator@_W@2@@std@@QAEXPADQADUinput_iterator_tag@1@@Z 100280e0 f i Hooks.obj
 0001:00027170       ??$_Construct@PAD@?$basic_string@_WU?$char_traits@_W@std@@V?$allocator@_W@2@@std@@QAEXQAD0Uforward_iterator_tag@1@@Z 10028170 f i Hooks.obj
 0001:000271c0       ??$_Distance1@PAD@std@@YAHPAD0Urandom_access_iterator_tag@0@@Z 100281c0 f i Hooks.obj
 0001:000271d0       ??$_Distance1@PBQBD@std@@YAHPBQBD0Urandom_access_iterator_tag@0@@Z 100281d0 f i Hooks.obj
 0001:000271e0       ??$_Emplace_back@Vtrace_info@@@?$_Uninitialized_backout_al@PAVtrace_info@@V?$allocator@Vtrace_info@@@std@@@std@@QAEX$$QAVtrace_info@@@Z 100281e0 f i Hooks.obj
 0001:00027240       ??$_Emplace_back_with_unused_capacity@ABUHitMarker_t@@@?$vector@UHitMarker_t@@V?$allocator@UHitMarker_t@@@std@@@std@@AAEAAUHitMarker_t@@ABU2@@Z 10028240 f i Hooks.obj
 0001:000272f0       ??$_Emplace_back_with_unused_capacity@Vtrace_info@@@?$vector@Vtrace_info@@V?$allocator@Vtrace_info@@@std@@@std@@AAEAAVtrace_info@@$$QAV2@@Z 100282f0 f i Hooks.obj
 0001:000273a0       ??$_Emplace_reallocate@ABUHitMarker_t@@@?$vector@UHitMarker_t@@V?$allocator@UHitMarker_t@@@std@@@std@@QAEPAUHitMarker_t@@QAU2@ABU2@@Z 100283a0 f i Hooks.obj
 0001:00027590       ??$_Emplace_reallocate@Vtrace_info@@@?$vector@Vtrace_info@@V?$allocator@Vtrace_info@@@std@@@std@@QAEPAVtrace_info@@QAV2@$$QAV2@@Z 10028590 f i Hooks.obj
 0001:00027780       ??$_Get_size_of_n@$01@std@@YAII@Z 10028780 f i Hooks.obj
 0001:000277b0       ??$_Get_size_of_n@$0CA@@std@@YAII@Z 100287b0 f i Hooks.obj
 0001:000277e0       ??$_Get_unwrapped@V?$_String_iterator@V?$_String_val@U?$_Simple_types@D@std@@@std@@@std@@$0A@@std@@YAPADABV?$_String_iterator@V?$_String_val@U?$_Simple_types@D@std@@@std@@@0@@Z 100287e0 f i Hooks.obj
 0001:000277f0       ??$_Idl_distance@PAUHitMarker_t@@PAU1@@std@@YAHABQAUHitMarker_t@@0@Z 100287f0 f i Hooks.obj
 0001:00027810       ??$_Idl_distance@PAVtrace_info@@PAV1@@std@@YAHABQAVtrace_info@@0@Z 10028810 f i Hooks.obj
 0001:00027830       ??$_Move_unchecked1@PAVtrace_info@@PAV1@@std@@YAPAVtrace_info@@PAV1@00U_General_ptr_iterator_tag@0@@Z 10028830 f i Hooks.obj
 0001:00027870       ??$_Move_unchecked@PAUHitMarker_t@@PAU1@@std@@YAPAUHitMarker_t@@PAU1@00@Z 10028870 f i Hooks.obj
 0001:000278b0       ??$_Move_unchecked@PAVtrace_info@@PAV1@@std@@YAPAVtrace_info@@PAV1@00@Z 100288b0 f i Hooks.obj
 0001:000278f0       ??$_Range_construct_or_tidy@PBQBD@?$vector@PBDV?$allocator@PBD@std@@@std@@AAEXPBQBD0Uforward_iterator_tag@1@@Z 100288f0 f i Hooks.obj
 0001:000279c0       ??$_Reallocate_grow_by@V<lambda_38fb7828f6004e9a4c6a38bfc6df7f44>@@_W@?$basic_string@_WU?$char_traits@_W@std@@V?$allocator@_W@2@@std@@QAEAAV01@IV<lambda_38fb7828f6004e9a4c6a38bfc6df7f44>@@_W@Z 100289c0 f i Hooks.obj
 0001:00027af0       ??$_Reallocate_grow_by@V<lambda_4755c59c3a9e60a5b049353a7584df55>@@$$V@?$basic_string@_WU?$char_traits@_W@std@@V?$allocator@_W@2@@std@@QAEAAV01@IV<lambda_4755c59c3a9e60a5b049353a7584df55>@@@Z 10028af0 f i Hooks.obj
 0001:00027c10       ??$_Reallocate_grow_by@V<lambda_67d87d4aa1269033985980465fd1d824>@@$$V@?$basic_string@DU?$char_traits@D@std@@V?$allocator@D@2@@std@@QAEAAV01@IV<lambda_67d87d4aa1269033985980465fd1d824>@@@Z 10028c10 f i Hooks.obj
 0001:00027d30       ??$_To_xtime@_JU?$ratio@$00$0DOI@@std@@@std@@YA?AUxtime@@ABV?$duration@_JU?$ratio@$00$0DOI@@std@@@chrono@0@@Z 10028d30 f i Hooks.obj
 0001:00027e20       ??$_Uninitialized_move@PAUHitMarker_t@@PAU1@V?$allocator@UHitMarker_t@@@std@@@std@@YAPAUHitMarker_t@@QAU1@0PAU1@AAV?$allocator@UHitMarker_t@@@0@@Z 10028e20 f i Hooks.obj
 0001:00027ef0       ??$_Uninitialized_move@PAVtrace_info@@PAV1@V?$allocator@Vtrace_info@@@std@@@std@@YAPAVtrace_info@@QAV1@0PAV1@AAV?$allocator@Vtrace_info@@@0@@Z 10028ef0 f i Hooks.obj
 0001:00027fb0       ??$_Uninitialized_move_al_unchecked@PAVtrace_info@@PAV1@V?$allocator@Vtrace_info@@@std@@@std@@YAPAVtrace_info@@PAV1@QAV1@1AAV?$allocator@Vtrace_info@@@0@U_General_ptr_iterator_tag@0@U_Unused_parameter@0@@Z 10028fb0 f i Hooks.obj
 0001:00028040       ??$construct@Vtrace_info@@V1@@?$_Default_allocator_traits@V?$allocator@Vtrace_info@@@std@@@std@@SAXAAV?$allocator@Vtrace_info@@@1@QAVtrace_info@@$$QAV3@@Z 10029040 f i Hooks.obj
 0001:00028080       ??$distance@PAD@std@@YAHPAD0@Z 10029080 f i Hooks.obj
 0001:000280a0       ??$distance@PBQBD@std@@YAHPBQBD0@Z 100290a0 f i Hooks.obj
 0001:000280c0       ??$duration_cast@V?$duration@_JU?$ratio@$00$00@std@@@chrono@std@@_JU?$ratio@$00$0DLJKMKAA@@3@X@chrono@std@@YA?AV?$duration@_JU?$ratio@$00$00@std@@@01@ABV?$duration@_JU?$ratio@$00$0DLJKMKAA@@std@@@01@@Z 100290c0 f i Hooks.obj
 0001:000281d0       ??$duration_cast@V?$duration@_JU?$ratio@$00$0DLJKMKAA@@std@@@chrono@std@@_JU?$ratio@$00$00@3@X@chrono@std@@YA?AV?$duration@_JU?$ratio@$00$0DLJKMKAA@@std@@@01@ABV?$duration@_JU?$ratio@$00$00@std@@@01@@Z 100291d0 f i Hooks.obj
 0001:000282e0       ??$duration_cast@V?$duration@_JU?$ratio@$00$0DLJKMKAA@@std@@@chrono@std@@_JU?$ratio@$00$0DOI@@3@X@chrono@std@@YA?AV?$duration@_JU?$ratio@$00$0DLJKMKAA@@std@@@01@ABV?$duration@_JU?$ratio@$00$0DOI@@std@@@01@@Z 100292e0 f i Hooks.obj
 0001:000283f0       ??$duration_cast@V?$duration@_JU?$ratio@$00$0DLJKMKAA@@std@@@chrono@std@@_JU?$ratio@$00$0JIJGIA@@3@X@chrono@std@@YA?AV?$duration@_JU?$ratio@$00$0DLJKMKAA@@std@@@01@ABV?$duration@_JU?$ratio@$00$0JIJGIA@@std@@@01@@Z 100293f0 f i Hooks.obj
 0001:000284f0       ??$emplace_back@ABUHitMarker_t@@@?$vector@UHitMarker_t@@V?$allocator@UHitMarker_t@@@std@@@std@@QAEAAUHitMarker_t@@ABU2@@Z 100294f0 f i Hooks.obj
 0001:00028560       ??$emplace_back@Vtrace_info@@@?$vector@Vtrace_info@@V?$allocator@Vtrace_info@@@std@@@std@@QAEAAVtrace_info@@$$QAV2@@Z 10029560 f i Hooks.obj
 0001:000285d0       ??$make_unique@$$BY0A@I$0A@@std@@YA?AV?$unique_ptr@$$BY0A@IU?$default_delete@$$BY0A@I@std@@@0@I@Z 100295d0 f i Hooks.obj
 0001:00028650       ??$make_unique@VNetvarTree@@$$V$0A@@std@@YA?AV?$unique_ptr@VNetvarTree@@U?$default_delete@VNetvarTree@@@std@@@0@XZ 10029650 f i Hooks.obj
 0001:000286e0       ??$make_unique@VVMTHook@@AAPAVCModelRender@@$0A@@std@@YA?AV?$unique_ptr@VVMTHook@@U?$default_delete@VVMTHook@@@std@@@0@AAPAVCModelRender@@@Z 100296e0 f i Hooks.obj
 0001:000286e0       ??$make_unique@VVMTHook@@AAPAVISurface@@$0A@@std@@YA?AV?$unique_ptr@VVMTHook@@U?$default_delete@VVMTHook@@@std@@@0@AAPAVISurface@@@Z 100296e0 f i Hooks.obj
 0001:000286e0       ??$make_unique@VVMTHook@@AAPAVIVRenderView@@$0A@@std@@YA?AV?$unique_ptr@VVMTHook@@U?$default_delete@VVMTHook@@@std@@@0@AAPAVIVRenderView@@@Z 100296e0 f i Hooks.obj
 0001:000286e0       ??$make_unique@VVMTHook@@AAPAVIBaseClientDLL@@$0A@@std@@YA?AV?$unique_ptr@VVMTHook@@U?$default_delete@VVMTHook@@@std@@@0@AAPAVIBaseClientDLL@@@Z 100296e0 f i Hooks.obj
 0001:000286e0       ??$make_unique@VVMTHook@@AAPAVIPanel@@$0A@@std@@YA?AV?$unique_ptr@VVMTHook@@U?$default_delete@VVMTHook@@@std@@@0@AAPAVIPanel@@@Z 100296e0 f i Hooks.obj
 0001:000286e0       ??$make_unique@VVMTHook@@AAPAVIClientMode@@$0A@@std@@YA?AV?$unique_ptr@VVMTHook@@U?$default_delete@VVMTHook@@@std@@@0@AAPAVIClientMode@@@Z 100296e0 f i Hooks.obj
 0001:00028780       ??$reset@PAIX@?$unique_ptr@$$BY0A@IU?$default_delete@$$BY0A@I@std@@@std@@QAEXPAI@Z 10029780 f i Hooks.obj
 0001:000287d0       ??$sleep_for@_JU?$ratio@$00$0DOI@@std@@@this_thread@std@@YAXABV?$duration@_JU?$ratio@$00$0DOI@@std@@@chrono@1@@Z 100297d0 f i Hooks.obj
 0001:00028830       ??$vsprintf_s@$0IAA@@@YAHAAY0IAA@DPBDPAD@Z 10029830 f i Hooks.obj
 0001:00028880       ??0?$time_point@Usystem_clock@chrono@std@@V?$duration@_JU?$ratio@$00$0JIJGIA@@std@@@23@@chrono@std@@QAE@ABV?$duration@_JU?$ratio@$00$0JIJGIA@@std@@@12@@Z 10029880 f i Hooks.obj
 0001:000288a0       ??0?$vector@PBDV?$allocator@PBD@std@@@std@@QAE@V?$initializer_list@PBD@1@ABV?$allocator@PBD@1@@Z 100298a0 f i Hooks.obj
 0001:00028900       ??0BeamInfo_t@@QAE@XZ      10029900 f i Hooks.obj
 0001:00028980       ??0BulletEvent@@QAE@XZ     10029980 f i Hooks.obj
 0001:000289a0       ??0Color@@QAE@HHHH@Z       100299a0 f i Hooks.obj
 0001:000289e0       ??0Color@@QAE@XZ           100299e0 f i Hooks.obj
 0001:00028a20       ??0Event@@QAE@XZ           10029a20 f i Hooks.obj
 0001:00028ab0       ??0EventRStart@@QAE@XZ     10029ab0 f i Hooks.obj
 0001:00028ad0       ??0FootstepEvent@@QAE@XZ   10029ad0 f i Hooks.obj
 0001:00028af0       ??0Hooks@@QAE@XZ           10029af0 f i Hooks.obj
 0001:00028bb0       ??0IGameEventListener@@QAE@XZ 10029bb0 f i Hooks.obj
 0001:00028bd0       ??0Misc@@QAE@XZ            10029bd0 f i Hooks.obj
 0001:00028c60       ??0Player_Death@@QAE@XZ    10029c60 f i Hooks.obj
 0001:00028c80       ??0ProtectGuard@@QAE@PAXII@Z 10029c80 f i Hooks.obj
 0001:00028ce0       ??0VMTHook@@QAE@PAX@Z      10029ce0 f i Hooks.obj
 0001:00028df0       ??0WeaponFire@@QAE@XZ      10029df0 f i Hooks.obj
 0001:00028e10       ??0trace_info@@QAE@VVector@@0MH@Z 10029e10 f i Hooks.obj
 0001:00028e70       ??1?$_Hash@V?$_Umap_traits@V?$basic_string@DU?$char_traits@D@std@@V?$allocator@D@2@@std@@V?$shared_ptr@UNode@NetvarTree@@@2@V?$_Uhash_compare@V?$basic_string@DU?$char_traits@D@std@@V?$allocator@D@2@@std@@U?$hash@V?$basic_string@DU?$char_traits@D@std@@V?$allocator@D@2@@std@@@2@U?$equal_to@V?$basic_string@DU?$char_traits@D@std@@V?$allocator@D@2@@std@@@2@@2@V?$allocator@U?$pair@$$CBV?$basic_string@DU?$char_traits@D@std@@V?$allocator@D@2@@std@@V?$shared_ptr@UNode@NetvarTree@@@2@@std@@@2@$0A@@std@@@std@@QAE@XZ 10029e70 f i Hooks.obj
 0001:00028ea0       ??1?$_List_alloc@U?$_List_base_types@U?$pair@$$CBV?$basic_string@DU?$char_traits@D@std@@V?$allocator@D@2@@std@@V?$shared_ptr@UNode@NetvarTree@@@2@@std@@V?$allocator@U?$pair@$$CBV?$basic_string@DU?$char_traits@D@std@@V?$allocator@D@2@@std@@V?$shared_ptr@UNode@NetvarTree@@@2@@std@@@2@@std@@@std@@QAE@XZ 10029ea0 f i Hooks.obj
 0001:00028ee0       ??1?$_List_buy@U?$pair@$$CBV?$basic_string@DU?$char_traits@D@std@@V?$allocator@D@2@@std@@V?$shared_ptr@UNode@NetvarTree@@@2@@std@@V?$allocator@U?$pair@$$CBV?$basic_string@DU?$char_traits@D@std@@V?$allocator@D@2@@std@@V?$shared_ptr@UNode@NetvarTree@@@2@@std@@@2@@std@@QAE@XZ 10029ee0 f i Hooks.obj
 0001:00028f00       ??1?$basic_string@_WU?$char_traits@_W@std@@V?$allocator@_W@2@@std@@QAE@XZ 10029f00 f i Hooks.obj
 0001:00028f40       ??1?$list@U?$pair@$$CBV?$basic_string@DU?$char_traits@D@std@@V?$allocator@D@2@@std@@V?$shared_ptr@UNode@NetvarTree@@@2@@std@@V?$allocator@U?$pair@$$CBV?$basic_string@DU?$char_traits@D@std@@V?$allocator@D@2@@std@@V?$shared_ptr@UNode@NetvarTree@@@2@@std@@@2@@std@@QAE@XZ 10029f40 f i Hooks.obj
 0001:00028f80       ??1?$unique_ptr@$$BY0A@IU?$default_delete@$$BY0A@I@std@@@std@@QAE@XZ 10029f80 f i Hooks.obj
 0001:00028fc0       ??1?$unique_ptr@VNetvarTree@@U?$default_delete@VNetvarTree@@@std@@@std@@QAE@XZ 10029fc0 f i Hooks.obj
 0001:00029000       ??1?$unique_ptr@VShadowVTManager@@U?$default_delete@VShadowVTManager@@@std@@@std@@QAE@XZ 1002a000 f i Hooks.obj
 0001:00029040       ??1?$unique_ptr@VVMTHook@@U?$default_delete@VVMTHook@@@std@@@std@@QAE@XZ 1002a040 f i Hooks.obj
 0001:00029080       ??1?$unordered_map@V?$basic_string@DU?$char_traits@D@std@@V?$allocator@D@2@@std@@V?$shared_ptr@UNode@NetvarTree@@@2@U?$hash@V?$basic_string@DU?$char_traits@D@std@@V?$allocator@D@2@@std@@@2@U?$equal_to@V?$basic_string@DU?$char_traits@D@std@@V?$allocator@D@2@@std@@@2@V?$allocator@U?$pair@$$CBV?$basic_string@DU?$char_traits@D@std@@V?$allocator@D@2@@std@@V?$shared_ptr@UNode@NetvarTree@@@2@@std@@@2@@std@@QAE@XZ 1002a080 f i Hooks.obj
 0001:000290a0       ??1?$vector@UHitMarker_t@@V?$allocator@UHitMarker_t@@@std@@@std@@QAE@XZ 1002a0a0 f i Hooks.obj
 0001:000290e0       ??1?$vector@Vtrace_info@@V?$allocator@Vtrace_info@@@std@@@std@@QAE@XZ 1002a0e0 f i Hooks.obj
 0001:00029120       ??1WeaponFire@@UAE@XZ      1002a120 f i Hooks.obj
 0001:00029120       ??1FootstepEvent@@UAE@XZ   1002a120 f i Hooks.obj
 0001:00029120       ??1Player_Death@@UAE@XZ    1002a120 f i Hooks.obj
 0001:00029120       ??1Event@@UAE@XZ           1002a120 f i Hooks.obj
 0001:00029120       ??1EventRStart@@UAE@XZ     1002a120 f i Hooks.obj
 0001:00029120       ??1BulletEvent@@UAE@XZ     1002a120 f i Hooks.obj
 0001:00029140       ??1Hooks@@QAE@XZ           1002a140 f i Hooks.obj
 0001:000291d0       ??1IGameEventListener@@UAE@XZ 1002a1d0 f i Hooks.obj
 0001:000291f0       ??1Misc@@QAE@XZ            1002a1f0 f i Hooks.obj
 0001:00029210       ??1Node@NetvarTree@@QAE@XZ 1002a210 f i NetvarManager.obj
 0001:00029210       ??1NetvarTree@@QAE@XZ      1002a210 f i Hooks.obj
 0001:00029230       ??1ProtectGuard@@QAE@XZ    1002a230 f i Hooks.obj
 0001:00029260       ??1ShadowVTManager@@QAE@XZ 1002a260 f i Hooks.obj
 0001:000292b0       ??1VMTHook@@QAE@XZ         1002a2b0 f i Hooks.obj
 0001:000292e0       ??4?$unique_ptr@$$BY0A@IU?$default_delete@$$BY0A@I@std@@@std@@QAEAAV01@$$QAV01@@Z 1002a2e0 f i Hooks.obj
 0001:00029330       ??4?$unique_ptr@VNetvarTree@@U?$default_delete@VNetvarTree@@@std@@@std@@QAEAAV01@$$QAV01@@Z 1002a330 f i Hooks.obj
 0001:00029380       ??4?$unique_ptr@VVMTHook@@U?$default_delete@VVMTHook@@@std@@@std@@QAEAAV01@$$QAV01@@Z 1002a380 f i Hooks.obj
 0001:000293d0       ??4trace_info@@QAEAAV0@$$QAV0@@Z 1002a3d0 f i Hooks.obj
 0001:00029420       ??A?$unique_ptr@$$BY0A@IU?$default_delete@$$BY0A@I@std@@@std@@QBEAAII@Z 1002a420 f i Hooks.obj
 0001:00029440       ??A?$vector@UHitMarker_t@@V?$allocator@UHitMarker_t@@@std@@@std@@QAEAAUHitMarker_t@@I@Z 1002a440 f i Hooks.obj
 0001:00029460       ??A?$vector@Vtrace_info@@V?$allocator@Vtrace_info@@@std@@@std@@QAEAAVtrace_info@@I@Z 1002a460 f i Hooks.obj
 0001:00029480       ??H?$_Vector_iterator@V?$_Vector_val@U?$_Simple_types@UHitMarker_t@@@std@@@std@@@std@@QBE?AV01@H@Z 1002a480 f i Hooks.obj
 0001:000294b0       ??H?$_Vector_iterator@V?$_Vector_val@U?$_Simple_types@Vtrace_info@@@std@@@std@@@std@@QBE?AV01@H@Z 1002a4b0 f i Hooks.obj
 0001:000294e0       ??R<lambda_38fb7828f6004e9a4c6a38bfc6df7f44>@@QBEXQA_WQB_WI_W@Z 1002a4e0 f i Hooks.obj
 0001:00029540       ??R<lambda_4755c59c3a9e60a5b049353a7584df55>@@QBEXQA_WQB_WI@Z 1002a540 f i Hooks.obj
 0001:00029570       ?VectorTransform@Math@@QAEXVVector@@Vmatrix3x4_t@@AAV2@@Z 1002a570 f   Math.obj
 0001:000297e0       ??R<lambda_6724294d5f705bae63fbef1080579267>@@QBEXPBD@Z 1002a7e0 f i Hooks.obj
 0001:00029890       ??R<lambda_67d87d4aa1269033985980465fd1d824>@@QBEXQADQBDI@Z 1002a890 f i Hooks.obj
 0001:000298c0       ??R<lambda_739f859172b80e6727f25b1c85211d0b>@@QBEMM@Z 1002a8c0 f i Hooks.obj
 0001:00029ac0       ??R?$default_delete@VNetvarTree@@@std@@QBEXPAVNetvarTree@@@Z 1002aac0 f i Hooks.obj
 0001:00029b00       ??R?$default_delete@VShadowVTManager@@@std@@QBEXPAVShadowVTManager@@@Z 1002ab00 f i Hooks.obj
 0001:00029b40       ??R?$default_delete@VVMTHook@@@std@@QBEXPAVVMTHook@@@Z 1002ab40 f i Hooks.obj
 0001:00029b80       ??Y?$_Vector_const_iterator@V?$_Vector_val@U?$_Simple_types@UHitMarker_t@@@std@@@std@@@std@@QAEAAV01@H@Z 1002ab80 f i Hooks.obj
 0001:00029bb0       ??Y?$_Vector_const_iterator@V?$_Vector_val@U?$_Simple_types@Vtrace_info@@@std@@@std@@@std@@QAEAAV01@H@Z 1002abb0 f i Hooks.obj
 0001:00029be0       ??Y?$_Vector_iterator@V?$_Vector_val@U?$_Simple_types@UHitMarker_t@@@std@@@std@@@std@@QAEAAV01@H@Z 1002abe0 f i Hooks.obj
 0001:00029c00       ??Y?$_Vector_iterator@V?$_Vector_val@U?$_Simple_types@Vtrace_info@@@std@@@std@@@std@@QAEAAV01@H@Z 1002ac00 f i Hooks.obj
 0001:00029c20       ??Y?$duration@_JU?$ratio@$00$0DLJKMKAA@@std@@@chrono@std@@QAEAAV012@ABV012@@Z 1002ac20 f i Hooks.obj
 0001:00029c50       ??Z?$duration@_JU?$ratio@$00$0DLJKMKAA@@std@@@chrono@std@@QAEAAV012@ABV012@@Z 1002ac50 f i Hooks.obj
 0001:00029c80       ??_GEventRStart@@UAEPAXI@Z 1002ac80 f i Hooks.obj
 0001:00029c80       ??_EWeaponFire@@UAEPAXI@Z  1002ac80 f i Hooks.obj
 0001:00029c80       ??_EBulletEvent@@UAEPAXI@Z 1002ac80 f i Hooks.obj
 0001:00029c80       ??_GBulletEvent@@UAEPAXI@Z 1002ac80 f i Hooks.obj
 0001:00029c80       ??_EPlayer_Death@@UAEPAXI@Z 1002ac80 f i Hooks.obj
 0001:00029c80       ??_GPlayer_Death@@UAEPAXI@Z 1002ac80 f i Hooks.obj
 0001:00029c80       ??_GWeaponFire@@UAEPAXI@Z  1002ac80 f i Hooks.obj
 0001:00029c80       ??_EFootstepEvent@@UAEPAXI@Z 1002ac80 f i Hooks.obj
 0001:00029c80       ??_EEventRStart@@UAEPAXI@Z 1002ac80 f i Hooks.obj
 0001:00029c80       ??_GFootstepEvent@@UAEPAXI@Z 1002ac80 f i Hooks.obj
 0001:00029cb0       ??_GEvent@@UAEPAXI@Z       1002acb0 f i Hooks.obj
 0001:00029cb0       ??_EEvent@@UAEPAXI@Z       1002acb0 f i Hooks.obj
 0001:00029ce0       ??_EIGameEventListener@@UAEPAXI@Z 1002ace0 f i Hooks.obj
 0001:00029ce0       ??_GIGameEventListener@@UAEPAXI@Z 1002ace0 f i Hooks.obj
 0001:00029d10       ??_GNetvarTree@@QAEPAXI@Z  1002ad10 f i Hooks.obj
 0001:00029d40       ??_GShadowVTManager@@QAEPAXI@Z 1002ad40 f i Hooks.obj
 0001:00029d70       ??_GVMTHook@@QAEPAXI@Z     1002ad70 f i Hooks.obj
 0001:00029da0       ??__Kms@chrono_literals@literals@std@@YA?AV?$duration@_JU?$ratio@$00$0DOI@@std@@@chrono@3@_K@Z 1002ada0 f i Hooks.obj
 0001:00029dc0       ?AddCapsuleOverlay@IVDebugOverlay@@QAEXAAVVector@@0MHHHHM@Z 1002adc0 f i Hooks.obj
 0001:00029e10       ?Angle@Vector@@QAE?AV1@PAV1@@Z 1002ae10 f i Hooks.obj
 0001:00029fd0       ?AutoRevolver@Misc@@QAEXXZ 1002afd0 f i Hooks.obj
 0001:0002a090       ?BootlegNightMode@Misc@@QAEXXZ 1002b090 f i Hooks.obj
 0001:0002a4d0       ?ChatPrintf@CHudChat@@QAAXHHPBDZZ 1002b4d0 f i Hooks.obj
 0001:0002a530       ?Clamp@Vector@@QAE?AV1@XZ  1002b530 f i Hooks.obj
 0001:0002a600       ?CreateMove@Hooks@@SI_NPAVIClientMode@@PAXMPAVCUserCmd@@@Z 1002b600 f   Hooks.obj
 0001:0002abc0       ?Crosshair@Misc@@QAEXXZ    1002bbc0 f i Hooks.obj
 0001:0002b040       ?DamageListenerPaintTraverse@@YAXXZ 1002c040 f   Hooks.obj
 0001:0002b6f0       ?DoAutostrafe@Misc@@ABEXXZ 1002c6f0 f i Hooks.obj
 0001:0002bc80       ?DoBhop@Misc@@ABEXXZ       1002cc80 f i Hooks.obj
 0001:0002bd50       ?DoFakeLag@Misc@@ABEXXZ    1002cd50 f i Hooks.obj
 0001:0002c0d0       ?DoNoSmoke@Misc@@QAEXW4ClientFrameStage_t@@@Z 1002d0d0 f i Hooks.obj
 0001:0002c280       ?DrawBeam@@YAXVVector@@0UColor@@M@Z 1002d280 f   Hooks.obj
 0001:0002c440       ?DrawFilledRect@ISurface@@QAEXHHHH@Z 1002d440 f i Hooks.obj
 0001:0002c480       ?DrawLine@ISurface@@QAEXHHHH@Z 1002d480 f i Hooks.obj
 0001:0002c4c0       ?DrawModelExecute@Hooks@@SIXPAX0PAVIMatRenderContext@@ABUDrawModelState_t@@ABUModelRenderInfo_t@@PAVmatrix3x4_t@@@Z 1002d4c0 f   Hooks.obj
 0001:0002c900       ?DrawOutlinedRect@ISurface@@QAEXHHHH@Z 1002d900 f i Hooks.obj
 0001:0002c940       ?DrawPrintText@ISurface@@QAEXPB_WH@Z 1002d940 f i Hooks.obj
 0001:0002c970       ?DrawSetColor@ISurface@@QAEXHHHH@Z 1002d970 f i Hooks.obj
 0001:0002c9b0       ?DrawSetTextColor@ISurface@@QAEXHHHH@Z 1002d9b0 f i Hooks.obj
 0001:0002c9f0       ?DrawSetTextFont@ISurface@@QAEXK@Z 1002d9f0 f i Hooks.obj
 0001:0002ca20       ?DrawSetTextPos@ISurface@@QAEXHH@Z 1002da20 f i Hooks.obj
 0001:0002ca50       ?DrawT@ISurface@@QAAXHHUColor@@H_NPBDZZ 1002da50 f i Hooks.obj
 0001:0002cbd0       ?FilledRect@ISurface@@QAEXHHHHUColor@@@Z 1002dbd0 f i Hooks.obj
 0001:0002cc20       ?FireGameEvent@BulletEvent@@UAEXPAVIGameEvent@@@Z 1002dc20 f   Hooks.obj
 0001:0002cf70       ?FireGameEvent@Event@@UAEXPAVIGameEvent@@@Z 1002df70 f   Hooks.obj
 0001:0002df10       ?FireGameEvent@EventRStart@@UAEXPAVIGameEvent@@@Z 1002ef10 f   Hooks.obj
 0001:0002df40       ?FireGameEvent@Player_Death@@UAEXPAVIGameEvent@@@Z 1002ef40 f   Hooks.obj
 0001:0002dfa0       ?FireGameEvent@WeaponFire@@UAEXPAVIGameEvent@@@Z 1002efa0 f   Hooks.obj
 0001:0002dfc0       ?FirstMaterial@IMaterialSystem@@QAEGXZ 1002efc0 f i Hooks.obj
 0001:0002dff0       ?FontCreate@ISurface@@QAEKXZ 1002eff0 f i Hooks.obj
 0001:0002e020       ?FrameStageNotify@Hooks@@SGXW4ClientFrameStage_t@@@Z 1002f020 f   Hooks.obj
 0001:0002e370       ?GetAbsOrigin@C_BaseEntity@@QAE?AVVector@@XZ 1002f370 f i Hooks.obj
 0001:0002e3b0       ?GetAccuracyPenalty@C_BaseCombatWeapon@@QAEMXZ 1002f3b0 f i Hooks.obj
 0001:0002e460       ?GetEventDebugID@IGameEventListener@@UAEHXZ 1002f460 f i Hooks.obj
 0001:0002e470       ?GetInfo@@YA?AUPlayerInfo_s@@H@Z 1002f470 f   Hooks.obj
 0001:0002e4c0       ?GetMaterial@IMaterialSystem@@QAEPAVIMaterial@@G@Z 1002f4c0 f i Hooks.obj
 0001:0002e4f0       ?GetName@IPanel@@QAEPBDI@Z 1002f4f0 f i Hooks.obj
 0001:0002e520       ?GetOldSimTime@C_BaseEntity@@QAEMXZ 1002f520 f i Hooks.obj
 0001:0002e540       ?GetTextSize@ISurface@@QAEXKPB_WAAH1@Z 1002f540 f i Hooks.obj
 0001:0002e580       ?Hook@VMTHook@@QAEJIPAX@Z  1002f580 f i Hooks.obj
 0001:0002e5c0       ?Init@BulletEvent@@QAEXXZ  1002f5c0 f i Hooks.obj
 0001:0002e5f0       ?Init@Event@@QAEXXZ        1002f5f0 f i Hooks.obj
 0001:0002e620       ?Init@EventRStart@@QAEXXZ  1002f620 f i Hooks.obj
 0001:0002e650       ?Init@FootstepEvent@@QAEXXZ 1002f650 f i Hooks.obj
 0001:0002e680       ?Init@Hooks@@SAXXZ         1002f680 f   Hooks.obj
 0001:0002ebe0       ?Init@Player_Death@@QAEXXZ 1002fbe0 f i Hooks.obj
 0001:0002ec10       ?Init@WeaponFire@@QAEXXZ   1002fc10 f i Hooks.obj
 0001:0002ec40       ?InvalidMaterial@IMaterialSystem@@QAEGXZ 1002fc40 f i Hooks.obj
 0001:0002ec70       ?IsUnused@GlowObjectDefinition_t@@QBE_NXZ 1002fc70 f i Hooks.obj
 0001:0002eca0       ?LagFix@@YAXXZ             1002fca0 f   Hooks.obj
 0001:0002ecd0       ?Line@ISurface@@QAEXHHHHUColor@@@Z 1002fcd0 f i Hooks.obj
 0001:0002ed10       ?LockCursor@Hooks@@SIXPAVISurface@@PAX@Z 1002fd10 f   Hooks.obj
 0001:0002ede0       ?MakeDefNormal@@YAXPAUGlowObjectDefinition_t@@UColor@@@Z 1002fde0 f i Hooks.obj
 0001:0002ee60       ?MovementFix@Misc@@QAEXAAVVector@@@Z 1002fe60 f i Hooks.obj
 0001:0002f1c0       ?NextMaterial@IMaterialSystem@@QAEGG@Z 100301c0 f i Hooks.obj
 0001:0002f1f0       ?NoRecoil@Misc@@QAEXPAVCUserCmd@@@Z 100301f0 f i Hooks.obj
 0001:0002f2a0       ?OnCreateMove@Misc@@QAEXXZ 100302a0 f i Hooks.obj
 0001:0002f300       ?OutlinedRect@ISurface@@QAEXHHHHUColor@@@Z 10030300 f i Hooks.obj
 0001:0002f350       ?OverrideView@Hooks@@SIXPAX0PAVCViewSetup@@@Z 10030350 f   Hooks.obj
 0001:0002f740       ?PaintTraverse@Hooks@@SIXPAXHI_N1@Z 10030740 f   Hooks.obj
 0001:0002fa50       ?Restore@Hooks@@SAXXZ      10030a50 f   Hooks.obj
 0001:0002fb90       ?RestoreTable@ShadowVTManager@@QAEXXZ 10030b90 f i Hooks.obj
 0001:0002fc20       ?SceneEnd@Hooks@@SIXPAX0@Z 10030c20 f   Hooks.obj
 0001:000301b0       ?SetFontGlyphSet@ISurface@@QAEXKPBDHHHHH@Z 100311b0 f i Hooks.obj
 0001:00030200       ?SetOrigin@C_BaseEntity@@QAEXVVector@@@Z 10031200 f i Hooks.obj
 0001:000302c0       ?SetValue@ConVar@@QAEXH@Z  100312c0 f i Hooks.obj
 0001:000302f0       ?SetValue@ConVar@@QAEXM@Z  100312f0 f i Hooks.obj
 0001:00030330       ?ShowImpacts@Misc@@QAEXXZ  10031330 f i Hooks.obj
 0001:000303b0       ?ThirdPerson@Misc@@QAEXW4ClientFrameStage_t@@@Z 100313b0 f i Hooks.obj
 0001:00030580       ?UTIL_PlayerByIndex@@YAPAVC_BaseEntity@@H@Z 10031580 f   Hooks.obj
 0001:00030630       ?UnLockCursor@ISurface@@QAEXXZ 10031630 f i Hooks.obj
 0001:00030660       ?Unhook@VMTHook@@QAEJI@Z   10031660 f i Hooks.obj
 0001:000306b0       ?WndProc@Hooks@@SGJPAUHWND__@@IIJ@Z 100316b0 f   Hooks.obj
 0001:00030720       ?_Become_small@?$basic_string@DU?$char_traits@D@std@@V?$allocator@D@2@@std@@QAEXXZ 10031720 f i Hooks.obj
 0001:000307c0       ?_Become_small@?$basic_string@_WU?$char_traits@_W@std@@V?$allocator@_W@2@@std@@QAEXXZ 100317c0 f i Hooks.obj
 0001:00030860       ?_Calculate_growth@?$basic_string@_WU?$char_traits@_W@std@@V?$allocator@_W@2@@std@@QBEII@Z 10031860 f i Hooks.obj
 0001:000308e0       ?_Calculate_growth@?$vector@UHitMarker_t@@V?$allocator@UHitMarker_t@@@std@@@std@@ABEII@Z 100318e0 f i Hooks.obj
 0001:00030930       ?_Calculate_growth@?$vector@Vtrace_info@@V?$allocator@Vtrace_info@@@std@@@std@@ABEII@Z 10031930 f i Hooks.obj
 0001:00030980       ?_Change_array@?$vector@UHitMarker_t@@V?$allocator@UHitMarker_t@@@std@@@std@@AAEXQAUHitMarker_t@@II@Z 10031980 f i Hooks.obj
 0001:00030a40       ?_Change_array@?$vector@Vtrace_info@@V?$allocator@Vtrace_info@@@std@@@std@@AAEXQAVtrace_info@@II@Z 10031a40 f i Hooks.obj
 0001:00030b00       ?_Check_offset_exclusive@?$_String_val@U?$_Simple_types@D@std@@@std@@QBEXI@Z 10031b00 f i Hooks.obj
 0001:00030b20       ?_Clamp_suffix_size@?$_String_val@U?$_Simple_types@D@std@@@std@@QBEIII@Z 10031b20 f i Hooks.obj
 0001:00030b50       ?_Delete@?$unique_ptr@$$BY0A@IU?$default_delete@$$BY0A@I@std@@@std@@AAEXXZ 10031b50 f i Hooks.obj
 0001:00030b90       ?_Freeheadnode@?$_List_alloc@U?$_List_base_types@U?$pair@$$CBV?$basic_string@DU?$char_traits@D@std@@V?$allocator@D@2@@std@@V?$shared_ptr@UNode@NetvarTree@@@2@@std@@V?$allocator@U?$pair@$$CBV?$basic_string@DU?$char_traits@D@std@@V?$allocator@D@2@@std@@V?$shared_ptr@UNode@NetvarTree@@@2@@std@@@2@@std@@@std@@QAEXPAU?$_List_node@U?$pair@$$CBV?$basic_string@DU?$char_traits@D@std@@V?$allocator@D@2@@std@@V?$shared_ptr@UNode@NetvarTree@@@2@@std@@PAX@2@@Z 10031b90 f i Hooks.obj
 0001:00030bc0       ?_Large_string_engaged@?$_String_val@U?$_Simple_types@_W@std@@@std@@QBE_NXZ 10031bc0 f i Hooks.obj
 0001:00030bf0       ?_Myptr@?$_String_val@U?$_Simple_types@_W@std@@@std@@QAEPA_WXZ 10031bf0 f i Hooks.obj
 0001:00030bf0       ?_Myptr@?$_String_val@U?$_Simple_types@_W@std@@@std@@QBEPB_WXZ 10031bf0 f i Hooks.obj
 0001:00030c30       ?_Tidy@?$list@U?$pair@$$CBV?$basic_string@DU?$char_traits@D@std@@V?$allocator@D@2@@std@@V?$shared_ptr@UNode@NetvarTree@@@2@@std@@V?$allocator@U?$pair@$$CBV?$basic_string@DU?$char_traits@D@std@@V?$allocator@D@2@@std@@V?$shared_ptr@UNode@NetvarTree@@@2@@std@@@2@@std@@QAEXXZ 10031c30 f i Hooks.obj
 0001:00030c50       ?_Tidy@?$vector@UHitMarker_t@@V?$allocator@UHitMarker_t@@@std@@@std@@AAEXXZ 10031c50 f i Hooks.obj
 0001:00030d00       ?_Tidy@?$vector@Vtrace_info@@V?$allocator@Vtrace_info@@@std@@@std@@AAEXXZ 10031d00 f i Hooks.obj
 0001:00030db0       ?_Tidy_deallocate@?$basic_string@_WU?$char_traits@_W@std@@V?$allocator@_W@2@@std@@QAEXXZ 10031db0 f i Hooks.obj
 0001:00030e60       ?_Tidy_init@?$basic_string@_WU?$char_traits@_W@std@@V?$allocator@_W@2@@std@@QAEXXZ 10031e60 f i Hooks.obj
 0001:00030eb0       ?_Umove@?$vector@UHitMarker_t@@V?$allocator@UHitMarker_t@@@std@@@std@@AAEPAUHitMarker_t@@PAU3@00@Z 10031eb0 f i Hooks.obj
 0001:00030ee0       ?_Umove@?$vector@Vtrace_info@@V?$allocator@Vtrace_info@@@std@@@std@@AAEPAVtrace_info@@PAV3@00@Z 10031ee0 f i Hooks.obj
 0001:00030f10       ?_Umove_if_noexcept1@?$vector@UHitMarker_t@@V?$allocator@UHitMarker_t@@@std@@@std@@AAEXPAUHitMarker_t@@00U?$integral_constant@_N$00@2@@Z 10031f10 f i Hooks.obj
 0001:00030f40       ?_Umove_if_noexcept1@?$vector@Vtrace_info@@V?$allocator@Vtrace_info@@@std@@@std@@AAEXPAVtrace_info@@00U?$integral_constant@_N$00@2@@Z 10031f40 f i Hooks.obj
 0001:00030f70       ?_Umove_if_noexcept@?$vector@UHitMarker_t@@V?$allocator@UHitMarker_t@@@std@@@std@@AAEXPAUHitMarker_t@@00@Z 10031f70 f i Hooks.obj
 0001:00030fa0       ?_Umove_if_noexcept@?$vector@Vtrace_info@@V?$allocator@Vtrace_info@@@std@@@std@@AAEXPAVtrace_info@@00@Z 10031fa0 f i Hooks.obj
 0001:00030fd0       ?_Unwrapped@?$_String_iterator@V?$_String_val@U?$_Simple_types@D@std@@@std@@@std@@QBEPADXZ 10031fd0 f i Hooks.obj
 0001:00030ff0       ?_Xran@?$array@M$03@std@@QBEXXZ 10031ff0 f i Hooks.obj
 0001:00030ff0       ?_Xran@?$array@VVector2D@@$02@std@@QBEXXZ 10031ff0 f i ESP.obj
 0001:00031010       ?allocate@?$allocator@Vtrace_info@@@std@@QAEPAVtrace_info@@I@Z 10032010 f i Hooks.obj
 0001:00031040       ?allocate@?$allocator@_W@std@@QAEPA_WI@Z 10032040 f i Hooks.obj
 0001:00031070       ?assign@?$_WChar_traits@_W@std@@SAXAA_WAB_W@Z 10032070 f i Hooks.obj
 0001:00031090       ?at@?$array@M$03@std@@QAEAAMI@Z 10032090 f i Hooks.obj
 0001:000310c0       ?at@?$basic_string@DU?$char_traits@D@std@@V?$allocator@D@2@@std@@QAEAADI@Z 100320c0 f i Hooks.obj
 0001:00031100       ?begin@?$basic_string@DU?$char_traits@D@std@@V?$allocator@D@2@@std@@QAE?AV?$_String_iterator@V?$_String_val@U?$_Simple_types@D@std@@@std@@@2@XZ 10032100 f i Hooks.obj
 0001:00031170       ?begin@?$vector@UHitMarker_t@@V?$allocator@UHitMarker_t@@@std@@@std@@QAE?AV?$_Vector_iterator@V?$_Vector_val@U?$_Simple_types@UHitMarker_t@@@std@@@std@@@2@XZ 10032170 f i Hooks.obj
 0001:00031170       ?begin@?$vector@Vtrace_info@@V?$allocator@Vtrace_info@@@std@@@std@@QAE?AV?$_Vector_iterator@V?$_Vector_val@U?$_Simple_types@Vtrace_info@@@std@@@std@@@2@XZ 10032170 f i Hooks.obj
 0001:000311e0       ?c_str@?$basic_string@_WU?$char_traits@_W@std@@V?$allocator@_W@2@@std@@QBEPB_WXZ 100321e0 f i Hooks.obj
 0001:00031220       ?capacity@?$vector@UHitMarker_t@@V?$allocator@UHitMarker_t@@@std@@@std@@QBEIXZ 10032220 f i Hooks.obj
 0001:00031250       ?capacity@?$vector@Vtrace_info@@V?$allocator@Vtrace_info@@@std@@@std@@QBEIXZ 10032250 f i Hooks.obj
 0001:00031280       ?clan_tag@Misc@@QAEXXZ     10032280 f i Hooks.obj
 0001:00031400       ?clear@?$list@U?$pair@$$CBV?$basic_string@DU?$char_traits@D@std@@V?$allocator@D@2@@std@@V?$shared_ptr@UNode@NetvarTree@@@2@@std@@V?$allocator@U?$pair@$$CBV?$basic_string@DU?$char_traits@D@std@@V?$allocator@D@2@@std@@V?$shared_ptr@UNode@NetvarTree@@@2@@std@@@2@@std@@QAEXXZ 10032400 f i Hooks.obj
 0001:000314b0       ?copy@?$_WChar_traits@_W@std@@SAPA_WQA_WQB_WI@Z 100324b0 f i Hooks.obj
 0001:000314d0       ?count@?$duration@_JU?$ratio@$00$0JIJGIA@@std@@@chrono@std@@QBE_JXZ 100324d0 f i Hooks.obj
 0001:000314d0       ?count@?$duration@_JU?$ratio@$00$0DOI@@std@@@chrono@std@@QBE_JXZ 100324d0 f i Hooks.obj
 0001:000314d0       ?count@?$duration@_JU?$ratio@$00$00@std@@@chrono@std@@QBE_JXZ 100324d0 f i Hooks.obj
 0001:000314d0       ?count@?$duration@_JU?$ratio@$00$0DLJKMKAA@@std@@@chrono@std@@QBE_JXZ 100324d0 f i Hooks.obj
 0001:000314f0       ?deallocate@?$allocator@Vtrace_info@@@std@@QAEXQAVtrace_info@@I@Z 100324f0 f i Hooks.obj
 0001:00031510       ?deallocate@?$allocator@_W@std@@QAEXQA_WI@Z 10032510 f i Hooks.obj
 0001:00031530       ?DotProduct@@YAMABVVector@@0@Z 10032530 f   Math.obj
 0001:00031530       ?dot_product@@YAMABVVector@@0@Z 10032530 f   Hooks.obj
 0001:00031580       ?end@?$basic_string@DU?$char_traits@D@std@@V?$allocator@D@2@@std@@QAE?AV?$_String_iterator@V?$_String_val@U?$_Simple_types@D@std@@@std@@@2@XZ 10032580 f i Hooks.obj
 0001:000315f0       ?erase@?$basic_string@DU?$char_traits@D@std@@V?$allocator@D@2@@std@@QAEAAV12@II@Z 100325f0 f i Hooks.obj
 0001:00031680       ?erase@?$vector@UHitMarker_t@@V?$allocator@UHitMarker_t@@@std@@@std@@QAE?AV?$_Vector_iterator@V?$_Vector_val@U?$_Simple_types@UHitMarker_t@@@std@@@std@@@2@V?$_Vector_const_iterator@V?$_Vector_val@U?$_Simple_types@UHitMarker_t@@@std@@@std@@@2@@Z 10032680 f i Hooks.obj
 0001:00031720       ?erase@?$vector@Vtrace_info@@V?$allocator@Vtrace_info@@@std@@@std@@QAE?AV?$_Vector_iterator@V?$_Vector_val@U?$_Simple_types@Vtrace_info@@@std@@@std@@@2@V?$_Vector_const_iterator@V?$_Vector_val@U?$_Simple_types@Vtrace_info@@@std@@@std@@@2@@Z 10032720 f i Hooks.obj
 0001:000317c0       ?filled_rect@@YAXHHHHUcolor@zgui@@@Z 100327c0 f   Hooks.obj
 0001:00031840       ?get_frametime@@YAMXZ      10032840 f   Hooks.obj
 0001:00031850       ?get_text_size@@YAXKPBDAAH1@Z 10032850 f   Hooks.obj
 0001:00031910       ?hkDoPostScreenEffects@Hooks@@SIHPAXHH@Z 10032910 f   Hooks.obj
 0001:00031be0       ?line@@YAXHHHHUcolor@zgui@@@Z 10032be0 f   Hooks.obj
 0001:00031c60       ?max_size@?$_Default_allocator_traits@V?$allocator@Vtrace_info@@@std@@@std@@SAIABV?$allocator@Vtrace_info@@@2@@Z 10032c60 f i Hooks.obj
 0001:00031c70       ?max_size@?$basic_string@_WU?$char_traits@_W@std@@V?$allocator@_W@2@@std@@QBEIXZ 10032c70 f i Hooks.obj
 0001:00031cd0       ?max_size@?$vector@UHitMarker_t@@V?$allocator@UHitMarker_t@@@std@@@std@@QBEIXZ 10032cd0 f i Hooks.obj
 0001:00031d10       ?max_size@?$vector@Vtrace_info@@V?$allocator@Vtrace_info@@@std@@@std@@QBEIXZ 10032d10 f i Hooks.obj
 0001:00031d50       ?night_mode@@YAXXZ         10032d50 f   Hooks.obj
 0001:00031fd0       ?now@system_clock@chrono@std@@SA?AV?$time_point@Usystem_clock@chrono@std@@V?$duration@_JU?$ratio@$00$0JIJGIA@@std@@@23@@23@XZ 10032fd0 f i Hooks.obj
 0001:00032020       ?push_back@?$basic_string@_WU?$char_traits@_W@std@@V?$allocator@_W@2@@std@@QAEX_W@Z 10033020 f i Hooks.obj
 0001:000320c0       ?push_back@?$vector@UHitMarker_t@@V?$allocator@UHitMarker_t@@@std@@@std@@QAEXABUHitMarker_t@@@Z 100330c0 f i Hooks.obj
 0001:000320e0       ?push_back@?$vector@Vtrace_info@@V?$allocator@Vtrace_info@@@std@@@std@@QAEX$$QAVtrace_info@@@Z 100330e0 f i Hooks.obj
 0001:00032110       ?rect@@YAXHHHHUcolor@zgui@@@Z 10033110 f   Hooks.obj
 0001:00032190       ?reserve@?$basic_string@DU?$char_traits@D@std@@V?$allocator@D@2@@std@@QAEXI@Z 10033190 f i Hooks.obj
 0001:00032220       ?reserve@?$basic_string@_WU?$char_traits@_W@std@@V?$allocator@_W@2@@std@@QAEXI@Z 10033220 f i Hooks.obj
 0001:000322b0       ?reset@?$unique_ptr@VNetvarTree@@U?$default_delete@VNetvarTree@@@std@@@std@@QAEXPAVNetvarTree@@@Z 100332b0 f i Hooks.obj
 0001:00032300       ?reset@?$unique_ptr@VVMTHook@@U?$default_delete@VVMTHook@@@std@@@std@@QAEXPAVVMTHook@@@Z 10033300 f i Hooks.obj
 0001:00032350       ?size@?$array@M$03@std@@QBEIXZ 10033350 f i Hooks.obj
 0001:00032360       ?size@?$vector@UHitMarker_t@@V?$allocator@UHitMarker_t@@@std@@@std@@QBEIXZ 10033360 f i Hooks.obj
 0001:00032390       ?size@?$vector@Vtrace_info@@V?$allocator@Vtrace_info@@@std@@@std@@QBEIXZ 10033390 f i Hooks.obj
 0001:000323c0       ?sleep_until@this_thread@std@@YAXPBUxtime@@@Z 100333c0 f i Hooks.obj
 0001:000323e0       ?text@@YAXHHUcolor@zgui@@H_NPBD@Z 100333e0 f   Hooks.obj
 0001:00032460       ?time_since_epoch@?$time_point@Usystem_clock@chrono@std@@V?$duration@_JU?$ratio@$00$0JIJGIA@@std@@@23@@chrono@std@@QBE?AV?$duration@_JU?$ratio@$00$0JIJGIA@@std@@@23@XZ 10033460 f i Hooks.obj
 0001:00032480       ?zero@?$duration@_JU?$ratio@$00$0DOI@@std@@@chrono@std@@SA?AV123@XZ 10033480 f i Hooks.obj
 0001:000324d0       ?zero@?$duration_values@_J@chrono@std@@SA_JXZ 100334d0 f i Hooks.obj
 0001:000324e0       __vsnprintf_l              100334e0 f i Hooks.obj
 0001:00032530       _asinf                     10033530 f i Hooks.obj
 0001:00032550       _vsprintf                  10033550 f i Hooks.obj
 0001:00032570       _vsprintf_s                10033570 f i Hooks.obj
 0001:00032590       _wmemcpy                   10033590 f i Hooks.obj
 0001:000325b0       ??$?6U?$char_traits@D@std@@@std@@YAAAV?$basic_ostream@DU?$char_traits@D@std@@@0@AAV10@PBD@Z 100335b0 f i Menu.obj
 0001:00032910       ??$?HDU?$char_traits@D@std@@V?$allocator@D@1@@std@@YA?AV?$basic_string@DU?$char_traits@D@std@@V?$allocator@D@2@@0@$$QAV10@QBD@Z 10033910 f i Menu.obj
 0001:00032950       ??$?HDU?$char_traits@D@std@@V?$allocator@D@1@@std@@YA?AV?$basic_string@DU?$char_traits@D@std@@V?$allocator@D@2@@0@QBD$$QAV10@@Z 10033950 f i Menu.obj
 0001:00032990       ??$_Distance1@PBUmulti_select_item@zgui@@@std@@YAHPBUmulti_select_item@zgui@@0Urandom_access_iterator_tag@0@@Z 10033990 f i Menu.obj
 0001:000329b0       ??$_Distance1@PBV?$basic_string@DU?$char_traits@D@std@@V?$allocator@D@2@@std@@@std@@YAHPBV?$basic_string@DU?$char_traits@D@std@@V?$allocator@D@2@@0@0Urandom_access_iterator_tag@0@@Z 100339b0 f i Menu.obj
 0001:000329d0       ??$_Emplace_back@ABV?$basic_string@DU?$char_traits@D@std@@V?$allocator@D@2@@std@@@?$_Uninitialized_backout_al@PAV?$basic_string@DU?$char_traits@D@std@@V?$allocator@D@2@@std@@V?$allocator@V?$basic_string@DU?$char_traits@D@std@@V?$allocator@D@2@@std@@@2@@std@@QAEXABV?$basic_string@DU?$char_traits@D@std@@V?$allocator@D@2@@1@@Z 100339d0 f i Menu.obj
 0001:00032a30       ??$_Get_unwrapped_n@V?$_String_iterator@V?$_String_val@U?$_Simple_types@D@std@@@std@@@std@@H$0A@@std@@YAPADABV?$_String_iterator@V?$_String_val@U?$_Simple_types@D@std@@@std@@@0@H@Z 10033a30 f i Menu.obj
 0001:00032a60       ??$_Idl_distance@V?$_String_iterator@V?$_String_val@U?$_Simple_types@D@std@@@std@@@std@@PAD@std@@YAHABQAD0@Z 10033a60 f i Menu.obj
 0001:00032a70       ??$_Range_construct_or_tidy@PBUmulti_select_item@zgui@@@?$vector@Umulti_select_item@zgui@@V?$allocator@Umulti_select_item@zgui@@@std@@@std@@AAEXPBUmulti_select_item@zgui@@0Uforward_iterator_tag@1@@Z 10033a70 f i Menu.obj
 0001:00032b40       ??$_Range_construct_or_tidy@PBV?$basic_string@DU?$char_traits@D@std@@V?$allocator@D@2@@std@@@?$vector@V?$basic_string@DU?$char_traits@D@std@@V?$allocator@D@2@@std@@V?$allocator@V?$basic_string@DU?$char_traits@D@std@@V?$allocator@D@2@@std@@@2@@std@@AAEXPBV?$basic_string@DU?$char_traits@D@std@@V?$allocator@D@2@@1@0Uforward_iterator_tag@1@@Z 10033b40 f i Menu.obj
 0001:00032c10       ??$_Reallocate_grow_by@V<lambda_4d79bb85f269e6e8002a4599002d832c>@@IPBDI@?$basic_string@DU?$char_traits@D@std@@V?$allocator@D@2@@std@@QAEAAV01@IV<lambda_4d79bb85f269e6e8002a4599002d832c>@@IPBDI@Z 10033c10 f i Menu.obj
 0001:00032d50       ??$_Seek_wrapped@V?$_String_iterator@V?$_String_val@U?$_Simple_types@D@std@@@std@@@std@@PAD@std@@YAXAAV?$_String_iterator@V?$_String_val@U?$_Simple_types@D@std@@@std@@@0@ABQAD@Z 10033d50 f i Menu.obj
 0001:00032d70       ??$_Ucopy@PBUmulti_select_item@zgui@@@?$vector@Umulti_select_item@zgui@@V?$allocator@Umulti_select_item@zgui@@@std@@@std@@AAEPAUmulti_select_item@zgui@@PBU23@0PAU23@@Z 10033d70 f i Menu.obj
 0001:00032da0       ??$_Ucopy@PBV?$basic_string@DU?$char_traits@D@std@@V?$allocator@D@2@@std@@@?$vector@V?$basic_string@DU?$char_traits@D@std@@V?$allocator@D@2@@std@@V?$allocator@V?$basic_string@DU?$char_traits@D@std@@V?$allocator@D@2@@std@@@2@@std@@AAEPAV?$basic_string@DU?$char_traits@D@std@@V?$allocator@D@2@@1@PBV21@0PAV21@@Z 10033da0 f i Menu.obj
 0001:00032dd0       ??$_Uninitialized_copy@PBUmulti_select_item@zgui@@PAU12@V?$allocator@Umulti_select_item@zgui@@@std@@@std@@YAPAUmulti_select_item@zgui@@QBU12@0PAU12@AAV?$allocator@Umulti_select_item@zgui@@@0@@Z 10033dd0 f i Menu.obj
 0001:00032e90       ??$_Uninitialized_copy@PBV?$basic_string@DU?$char_traits@D@std@@V?$allocator@D@2@@std@@PAV12@V?$allocator@V?$basic_string@DU?$char_traits@D@std@@V?$allocator@D@2@@std@@@2@@std@@YAPAV?$basic_string@DU?$char_traits@D@std@@V?$allocator@D@2@@0@QBV10@0PAV10@AAV?$allocator@V?$basic_string@DU?$char_traits@D@std@@V?$allocator@D@2@@std@@@0@@Z 10033e90 f i Menu.obj
 0001:00032f50       ??$_Uninitialized_copy_al_unchecked@PBUmulti_select_item@zgui@@PAU12@V?$allocator@Umulti_select_item@zgui@@@std@@@std@@YAPAUmulti_select_item@zgui@@PBU12@QBU12@QAU12@AAV?$allocator@Umulti_select_item@zgui@@@0@U_General_ptr_iterator_tag@0@U_Unused_parameter@0@@Z 10033f50 f i Menu.obj
 0001:00032fd0       ??$_Uninitialized_copy_al_unchecked@PBV?$basic_string@DU?$char_traits@D@std@@V?$allocator@D@2@@std@@PAV12@V?$allocator@V?$basic_string@DU?$char_traits@D@std@@V?$allocator@D@2@@std@@@2@@std@@YAPAV?$basic_string@DU?$char_traits@D@std@@V?$allocator@D@2@@0@PBV10@QBV10@QAV10@AAV?$allocator@V?$basic_string@DU?$char_traits@D@std@@V?$allocator@D@2@@std@@@0@U_General_ptr_iterator_tag@0@U_Unused_parameter@0@@Z 10033fd0 f i Menu.obj
 0001:00033050       ??$distance@PBUmulti_select_item@zgui@@@std@@YAHPBUmulti_select_item@zgui@@0@Z 10034050 f i Menu.obj
 0001:00033070       ??$distance@PBV?$basic_string@DU?$char_traits@D@std@@V?$allocator@D@2@@std@@@std@@YAHPBV?$basic_string@DU?$char_traits@D@std@@V?$allocator@D@2@@0@0@Z 10034070 f i Menu.obj
 0001:00033090       ??$transform@V?$_String_iterator@V?$_String_val@U?$_Simple_types@D@std@@@std@@@std@@V12@P6AHH@Z@std@@YA?AV?$_String_iterator@V?$_String_val@U?$_Simple_types@D@std@@@std@@@0@V10@0V10@P6AHH@Z@Z 10034090 f i Menu.obj
 0001:00033140       ??0<unnamed-type-Config>@Menu@@QAE@XZ 10034140 f i Menu.obj
 0001:000336d0       ??0<unnamed-type-Pos>@Menu@@QAE@XZ 100346d0 f i Menu.obj
 0001:00033700       ??0?$vector@Umulti_select_item@zgui@@V?$allocator@Umulti_select_item@zgui@@@std@@@std@@QAE@V?$initializer_list@Umulti_select_item@zgui@@@1@ABV?$allocator@Umulti_select_item@zgui@@@1@@Z 10034700 f i Menu.obj
 0001:00033760       ??0?$vector@V?$basic_string@DU?$char_traits@D@std@@V?$allocator@D@2@@std@@V?$allocator@V?$basic_string@DU?$char_traits@D@std@@V?$allocator@D@2@@std@@@2@@std@@QAE@V?$initializer_list@V?$basic_string@DU?$char_traits@D@std@@V?$allocator@D@2@@std@@@1@ABV?$allocator@V?$basic_string@DU?$char_traits@D@std@@V?$allocator@D@2@@std@@@1@@Z 10034760 f i Menu.obj
 0001:000337c0       ??0Menu@@QAE@XZ            100347c0 f i Menu.obj
 0001:00033810       ??R<lambda_4d79bb85f269e6e8002a4599002d832c>@@QBEXQADQBDII1I@Z 10034810 f i Menu.obj
 0001:00033920       ?Render@Menu@@QAEXXZ       10034920 f   Menu.obj
 0001:00033ec0       ?_Buy@?$vector@Umulti_select_item@zgui@@V?$allocator@Umulti_select_item@zgui@@@std@@@std@@AAE_NI@Z 10034ec0 f i Menu.obj
 0001:00033f80       ?_Buy@?$vector@V?$basic_string@DU?$char_traits@D@std@@V?$allocator@D@2@@std@@V?$allocator@V?$basic_string@DU?$char_traits@D@std@@V?$allocator@D@2@@std@@@2@@std@@AAE_NI@Z 10034f80 f i Menu.obj
 0001:00034040       ?_Seek_to@?$_String_const_iterator@V?$_String_val@U?$_Simple_types@D@std@@@std@@@std@@QAEXPBD@Z 10035040 f i Menu.obj
 0001:00034060       ?cfgtab@Menu@@AAEXXZ       10035060 f   Menu.obj
 0001:00034830       ?debugtab@Menu@@AAEXXZ     10035830 f   Menu.obj
 0001:000348e0       ?insert@?$basic_string@DU?$char_traits@D@std@@V?$allocator@D@2@@std@@QAEAAV12@IQBD@Z 100358e0 f i Menu.obj
 0001:00034920       ?insert@?$basic_string@DU?$char_traits@D@std@@V?$allocator@D@2@@std@@QAEAAV12@IQBDI@Z 10035920 f i Menu.obj
 0001:00034a40       ?legittab@Menu@@AAEXXZ     10035a40 f   Menu.obj
 0001:00034cc0       ?misctab@Menu@@AAEXXZ      10035cc0 f   Menu.obj
 0001:00035440       ?plisttab@Menu@@AAEXXZ     10036440 f   Menu.obj
 0001:000357a0       ?ragetab2@Menu@@AAEXXZ     100367a0 f   Menu.obj
 0001:00036170       ?ragetab3@Menu@@AAEXXZ     10037170 f   Menu.obj
 0001:00036680       ?ragetab@Menu@@AAEXXZ      10037680 f   Menu.obj
 0001:00036770       ?sputn@?$basic_streambuf@DU?$char_traits@D@std@@@std@@QAE_JPBD_J@Z 10037770 f i Menu.obj
 0001:000367a0       ?vistab@Menu@@AAEXXZ       100377a0 f   Menu.obj
 0001:00037550       ??$?HDU?$char_traits@D@std@@V?$allocator@D@1@@std@@YA?AV?$basic_string@DU?$char_traits@D@std@@V?$allocator@D@2@@0@ABV10@QBD@Z 10038550 f i TGFCfg.obj
 0001:00037600       ??$_Floating_to_string@M@std@@YA?AV?$basic_string@DU?$char_traits@D@std@@V?$allocator@D@2@@0@PBDM@Z 10038600 f i TGFCfg.obj
 0001:000376c0       ??$_Pocca@V?$allocator@D@std@@@std@@YAXAAV?$allocator@D@0@ABV10@@Z 100386c0 f i TGFCfg.obj
 0001:000376e0       ??0?$ConfigValue@_N@@QAE@V?$basic_string@DU?$char_traits@D@std@@V?$allocator@D@2@@std@@PA_N@Z 100386e0 f i TGFCfg.obj
 0001:000376e0       ??0?$ConfigValue@M@@QAE@V?$basic_string@DU?$char_traits@D@std@@V?$allocator@D@2@@std@@PAM@Z 100386e0 f i TGFCfg.obj
 0001:000376e0       ??0?$ConfigValue@H@@QAE@V?$basic_string@DU?$char_traits@D@std@@V?$allocator@D@2@@std@@PAH@Z 100386e0 f i TGFCfg.obj
 0001:00037750       ??0CConfig@@QAE@XZ         10038750 f i TGFCfg.obj
 0001:000377c0       ??4?$basic_string@DU?$char_traits@D@std@@V?$allocator@D@2@@std@@QAEAAV01@ABV01@@Z 100387c0 f i TGFCfg.obj
 0001:00037830       ?Load2@CConfig@@QAEXXZ     10038830 f   TGFCfg.obj
 0001:00037bf0       ?Load3@CConfig@@QAEXXZ     10038bf0 f   TGFCfg.obj
 0001:00037fb0       ?Load4@CConfig@@QAEXXZ     10038fb0 f   TGFCfg.obj
 0001:00038370       ?Load@CConfig@@QAEXXZ      10039370 f   TGFCfg.obj
 0001:00038730       ?Save2@CConfig@@QAEXXZ     10039730 f   TGFCfg.obj
 0001:00038a70       ?Save3@CConfig@@QAEXXZ     10039a70 f   TGFCfg.obj
 0001:00038db0       ?Save4@CConfig@@QAEXXZ     10039db0 f   TGFCfg.obj
 0001:000390f0       ?Save@CConfig@@QAEXXZ      1003a0f0 f   TGFCfg.obj
 0001:00039430       ?Setup@CConfig@@QAEXXZ     1003a430 f   TGFCfg.obj
 0001:0003afa0       ?SetupValue@CConfig@@AAEXAAHHV?$basic_string@DU?$char_traits@D@std@@V?$allocator@D@2@@std@@@Z 1003bfa0 f   TGFCfg.obj
 0001:0003b060       ?SetupValue@CConfig@@AAEXAAMMV?$basic_string@DU?$char_traits@D@std@@V?$allocator@D@2@@std@@@Z 1003c060 f   TGFCfg.obj
 0001:0003b120       ?SetupValue@CConfig@@AAEXAAUcolor@zgui@@MV?$basic_string@DU?$char_traits@D@std@@V?$allocator@D@2@@std@@@Z 1003c120 f   TGFCfg.obj
 0001:0003b360       ?SetupValue@CConfig@@AAEXAA_N_NV?$basic_string@DU?$char_traits@D@std@@V?$allocator@D@2@@std@@@Z 1003c360 f   TGFCfg.obj
 0001:0003b420       ?SetupValue@CConfig@@AAEXPA_N_NHV?$basic_string@DU?$char_traits@D@std@@V?$allocator@D@2@@std@@@Z 1003c420 f   TGFCfg.obj
 0001:0003b540       ?_Copy_alloc@?$_String_alloc@U?$_String_base_types@DV?$allocator@D@std@@@std@@@std@@QAEXABV?$allocator@D@2@@Z 1003c540 f i TGFCfg.obj
 0001:0003b570       ?to_string@std@@YA?AV?$basic_string@DU?$char_traits@D@std@@V?$allocator@D@2@@1@M@Z 1003c570 f i TGFCfg.obj
 0001:0003b5b0       __scprintf                 1003c5b0 f i TGFCfg.obj
 0001:0003b5e0       __vscprintf_l              1003c5e0 f i TGFCfg.obj
 0001:0003b630       ??$?8DU?$char_traits@D@std@@V?$allocator@D@1@@std@@YA_NABV?$basic_string@DU?$char_traits@D@std@@V?$allocator@D@2@@0@QBD@Z 1003c630 f i CEntity.obj
 0001:0003b650       ?FireRate@C_BaseEntity@@QAEMXZ 1003c650 f   CEntity.obj
 0001:0003bea0       ?FixSetupBones@C_BaseEntity@@QAEXPAVmatrix3x4_t@@@Z 1003cea0 f   CEntity.obj
 0001:0003bf70       ?GetHitboxPosition@C_BaseEntity@@QAE?AVVector@@HPAVmatrix3x4_t@@@Z 1003cf70 f   CEntity.obj
 0001:0003c0e0       ?GetHitboxPosition@C_BaseEntity@@QAE?AVVector@@HPAVmatrix3x4_t@@PAM@Z 1003d0e0 f   CEntity.obj
 0001:0003c260       ?GetName@C_BaseCombatWeapon@@QAE?AV?$basic_string@DU?$char_traits@D@std@@V?$allocator@D@2@@std@@XZ 1003d260 f i CEntity.obj
 0001:0003c2a0       ?IsEnemy@C_BaseEntity@@QAE_NXZ 1003d2a0 f   CEntity.obj
 0001:0003c2e0       ?IsFakeDucking@C_BaseEntity@@QAE_NXZ 1003d2e0 f   CEntity.obj
 0001:0003c3f0       ?IsKnifeorNade@C_BaseEntity@@QAE_NXZ 1003d3f0 f   CEntity.obj
 0001:0003c630       ?IsNade@C_BaseEntity@@QAE_NXZ 1003d630 f   CEntity.obj
 0001:0003c800       ?SetAbsAngles@C_BaseEntity@@QAEXVVector@@@Z 1003d800 f   CEntity.obj
 0001:0003c8b0       ?SetAbsOrigin@C_BaseEntity@@QAEXVVector@@@Z 1003d8b0 f   CEntity.obj
 0001:0003c960       ?_Equal@?$basic_string@DU?$char_traits@D@std@@V?$allocator@D@2@@std@@QBE_NQBD@Z 1003d960 f i CEntity.obj
 0001:0003c9e0       ?getBonePosition@C_BaseEntity@@QAE?AVVector@@H@Z 1003d9e0 f   CEntity.obj
 0001:0003cb10       ?m_flDuckSpeed@C_BaseEntity@@QAEMXZ 1003db10 f i CEntity.obj
 0001:0003cbc0       ?zeus@C_BaseEntity@@QAE_NXZ 1003dbc0 f   CEntity.obj
 0001:0003cc80       ??$?6V?$basic_ofstream@DU?$char_traits@D@std@@@std@@$$BY0BAA@D$0A@@std@@YA$$QAV?$basic_ofstream@DU?$char_traits@D@std@@@0@$$QAV10@AAY0BAA@$$CBD@Z 1003dc80 f i Interfaces.obj
 0001:0003cc80       ??$?6V?$basic_ofstream@DU?$char_traits@D@std@@@std@@$$BY0KE@D$0A@@std@@YA$$QAV?$basic_ofstream@DU?$char_traits@D@std@@@0@$$QAV10@AAY0KE@$$CBD@Z 1003dc80 f i Interfaces.obj
 0001:0003cc80       ??$?6V?$basic_ofstream@DU?$char_traits@D@std@@@std@@$$BY0BBM@D$0A@@std@@YA$$QAV?$basic_ofstream@DU?$char_traits@D@std@@@0@$$QAV10@AAY0BBM@$$CBD@Z 1003dc80 f i Interfaces.obj
 0001:0003ccb0       ??$CaptureInterface@VIGameEventManager@@@interfaces@@YAPAVIGameEventManager@@PBD0@Z 1003dcb0 f i Interfaces.obj
 0001:0003cd50       ??$FindClass@VCModelRender@@@interfaces@@YAPAVCModelRender@@V?$basic_string@DU?$char_traits@D@std@@V?$allocator@D@2@@std@@0_N@Z 1003dd50 f i Interfaces.obj
 0001:0003cee0       ??$FindClass@VCPrediction@@@interfaces@@YAPAVCPrediction@@V?$basic_string@DU?$char_traits@D@std@@V?$allocator@D@2@@std@@0_N@Z 1003dee0 f i Interfaces.obj
 0001:0003d070       ??$FindClass@VIBaseClientDLL@@@interfaces@@YAPAVIBaseClientDLL@@V?$basic_string@DU?$char_traits@D@std@@V?$allocator@D@2@@std@@0_N@Z 1003e070 f i Interfaces.obj
 0001:0003d200       ??$FindClass@VICVar@@@interfaces@@YAPAVICVar@@V?$basic_string@DU?$char_traits@D@std@@V?$allocator@D@2@@std@@0_N@Z 1003e200 f i Interfaces.obj
 0001:0003d390       ??$FindClass@VIClientEntityList@@@interfaces@@YAPAVIClientEntityList@@V?$basic_string@DU?$char_traits@D@std@@V?$allocator@D@2@@std@@0_N@Z 1003e390 f i Interfaces.obj
 0001:0003d520       ??$FindClass@VIEngineTrace@@@interfaces@@YAPAVIEngineTrace@@V?$basic_string@DU?$char_traits@D@std@@V?$allocator@D@2@@std@@0_N@Z 1003e520 f i Interfaces.obj
 0001:0003d6b0       ??$FindClass@VIGameMovement@@@interfaces@@YAPAVIGameMovement@@V?$basic_string@DU?$char_traits@D@std@@V?$allocator@D@2@@std@@0_N@Z 1003e6b0 f i Interfaces.obj
 0001:0003d840       ??$FindClass@VIMaterialSystem@@@interfaces@@YAPAVIMaterialSystem@@V?$basic_string@DU?$char_traits@D@std@@V?$allocator@D@2@@std@@0_N@Z 1003e840 f i Interfaces.obj
 0001:0003d9d0       ??$FindClass@VIPanel@@@interfaces@@YAPAVIPanel@@V?$basic_string@DU?$char_traits@D@std@@V?$allocator@D@2@@std@@0_N@Z 1003e9d0 f i Interfaces.obj
 0001:0003db60       ??$FindClass@VIPhysicsSurfaceProps@@@interfaces@@YAPAVIPhysicsSurfaceProps@@V?$basic_string@DU?$char_traits@D@std@@V?$allocator@D@2@@std@@0_N@Z 1003eb60 f i Interfaces.obj
 0001:0003dcf0       ??$FindClass@VISurface@@@interfaces@@YAPAVISurface@@V?$basic_string@DU?$char_traits@D@std@@V?$allocator@D@2@@std@@0_N@Z 1003ecf0 f i Interfaces.obj
 0001:0003de80       ??$FindClass@VIVDebugOverlay@@@interfaces@@YAPAVIVDebugOverlay@@V?$basic_string@DU?$char_traits@D@std@@V?$allocator@D@2@@std@@0_N@Z 1003ee80 f i Interfaces.obj
 0001:0003e010       ??$FindClass@VIVEngineClient@@@interfaces@@YAPAVIVEngineClient@@V?$basic_string@DU?$char_traits@D@std@@V?$allocator@D@2@@std@@0_N@Z 1003f010 f i Interfaces.obj
 0001:0003e1a0       ??$FindClass@VIVModelInfo@@@interfaces@@YAPAVIVModelInfo@@V?$basic_string@DU?$char_traits@D@std@@V?$allocator@D@2@@std@@0_N@Z 1003f1a0 f i Interfaces.obj
 0001:0003e330       ??$FindClass@VIVRenderView@@@interfaces@@YAPAVIVRenderView@@V?$basic_string@DU?$char_traits@D@std@@V?$allocator@D@2@@std@@0_N@Z 1003f330 f i Interfaces.obj
 0001:0003e4c0       ??$_Fgetc@D@std@@YA_NAADPAU_iobuf@@@Z 1003f4c0 f i Interfaces.obj
 0001:0003e4f0       ??$_Fputc@D@std@@YA_NDPAU_iobuf@@@Z 1003f4f0 f i Interfaces.obj
 0001:0003e530       ??$_Ungetc@D@std@@YA_NABDPAU_iobuf@@@Z 1003f530 f i Interfaces.obj
 0001:0003e570       ??$add@VAddress@@@Address@@QBE?AV0@H@Z 1003f570 f i Interfaces.obj
 0001:0003e5b0       ??$get@VAddress@@@Address@@QAE?AV0@I@Z 1003f5b0 f i Interfaces.obj
 0001:0003e660       ??$sprintf_s@$0BAA@@@YAHAAY0BAA@DPBDZZ 1003f660 f i Interfaces.obj
 0001:0003e690       ??$to@PAVAddress@@@Address@@QBEPAV0@XZ 1003f690 f i Interfaces.obj
 0001:0003e6b0       ??$use_facet@V?$codecvt@DDU_Mbstatet@@@std@@@std@@YAABV?$codecvt@DDU_Mbstatet@@@0@ABVlocale@0@@Z 1003f6b0 f i Interfaces.obj
 0001:0003e7c0       ??0?$basic_filebuf@DU?$char_traits@D@std@@@std@@QAE@PAU_iobuf@@@Z 1003f7c0 f i Interfaces.obj
 0001:0003e820       ??0?$basic_ofstream@DU?$char_traits@D@std@@@std@@QAE@PBDHH@Z 1003f820 f i Interfaces.obj
 0001:0003e930       ??0?$basic_ostream@DU?$char_traits@D@std@@@std@@QAE@PAV?$basic_streambuf@DU?$char_traits@D@std@@@1@_N@Z 1003f930 f i Interfaces.obj
 0001:0003e9f0       ??0?$codecvt@DDU_Mbstatet@@@std@@QAE@ABV_Locinfo@1@I@Z 1003f9f0 f i Interfaces.obj
 0001:0003ea50       ??0?$fpos@U_Mbstatet@@@std@@QAE@U_Mbstatet@@_J@Z 1003fa50 f i Interfaces.obj
 0001:0003ea90       ??0codecvt_base@std@@QAE@I@Z 1003fa90 f i Interfaces.obj
 0001:0003eac0       ??1?$basic_filebuf@DU?$char_traits@D@std@@@std@@UAE@XZ 1003fac0 f i Interfaces.obj
 0001:0003eb20       ??1?$basic_ofstream@DU?$char_traits@D@std@@@std@@UAE@XZ 1003fb20 f i Interfaces.obj
 0001:0003eb80       ??1?$codecvt@DDU_Mbstatet@@@std@@MAE@XZ 1003fb80 f i Interfaces.obj
 0001:0003eba0       ??1codecvt_base@std@@UAE@XZ 1003fba0 f i Interfaces.obj
 0001:0003ebc0       ??_D?$basic_ofstream@DU?$char_traits@D@std@@@std@@QAEXXZ 1003fbc0 f i Interfaces.obj
 0001:0003ebe1       ??_E?$basic_ofstream@DU?$char_traits@D@std@@@std@@$4PPPPPPPM@A@AEPAXI@Z 1003fbe1 f i Interfaces.obj
 0001:0003ebf0       ??_G?$basic_filebuf@DU?$char_traits@D@std@@@std@@UAEPAXI@Z 1003fbf0 f i Interfaces.obj
 0001:0003ebf0       ??_E?$basic_filebuf@DU?$char_traits@D@std@@@std@@UAEPAXI@Z 1003fbf0 f i Interfaces.obj
 0001:0003ec20       ??_E?$basic_ofstream@DU?$char_traits@D@std@@@std@@UAEPAXI@Z 1003fc20 f i Interfaces.obj
 0001:0003ec20       ??_G?$basic_ofstream@DU?$char_traits@D@std@@@std@@UAEPAXI@Z 1003fc20 f i Interfaces.obj
 0001:0003ec60       ??_E?$codecvt@DDU_Mbstatet@@@std@@MAEPAXI@Z 1003fc60 f i Interfaces.obj
 0001:0003ec60       ??_G?$codecvt@DDU_Mbstatet@@@std@@MAEPAXI@Z 1003fc60 f i Interfaces.obj
 0001:0003ec90       ??_Gcodecvt_base@std@@UAEPAXI@Z 1003fc90 f i Interfaces.obj
 0001:0003ec90       ??_Ecodecvt_base@std@@UAEPAXI@Z 1003fc90 f i Interfaces.obj
 0001:0003ecc0       ?Init@interfaces@@YAXXZ    1003fcc0 f   Interfaces.obj
 0001:0003f430       ?_Endwrite@?$basic_filebuf@DU?$char_traits@D@std@@@std@@IAE_NXZ 10040430 f i Interfaces.obj
 0001:0003f540       ?_Getcat@?$codecvt@DDU_Mbstatet@@@std@@SAIPAPBVfacet@locale@2@PBV42@@Z 10040540 f i Interfaces.obj
 0001:0003f620       ?_Gndec@?$basic_streambuf@DU?$char_traits@D@std@@@std@@IAEPADXZ 10040620 f i Interfaces.obj
 0001:0003f660       ?_Init@?$basic_filebuf@DU?$char_traits@D@std@@@std@@IAEXPAU_iobuf@@W4_Initfl@12@@Z 10040660 f i Interfaces.obj
 0001:0003f730       ?_Init@?$basic_streambuf@DU?$char_traits@D@std@@@std@@IAEXPAPAD0PAH001@Z 10040730 f i Interfaces.obj
 0001:0003f780       ?_Initcvt@?$basic_filebuf@DU?$char_traits@D@std@@@std@@IAEXABV?$codecvt@DDU_Mbstatet@@@2@@Z 10040780 f i Interfaces.obj
 0001:0003f7d0       ?_Lock@?$basic_filebuf@DU?$char_traits@D@std@@@std@@UAEXXZ 100407d0 f i Interfaces.obj
 0001:0003f800       ?_Reset_back@?$basic_filebuf@DU?$char_traits@D@std@@@std@@AAEXXZ 10040800 f i Interfaces.obj
 0001:0003f840       ?_Set_back@?$basic_filebuf@DU?$char_traits@D@std@@@std@@AAEXXZ 10040840 f i Interfaces.obj
 0001:0003f8a0       ?_Unlock@?$basic_filebuf@DU?$char_traits@D@std@@@std@@UAEXXZ 100408a0 f i Interfaces.obj
 0001:0003f8d0       ?close@?$basic_filebuf@DU?$char_traits@D@std@@@std@@QAEPAV12@XZ 100408d0 f i Interfaces.obj
 0001:0003f940       ?do_always_noconv@?$codecvt@DDU_Mbstatet@@@std@@MBE_NXZ 10040940 f i Interfaces.obj
 0001:0003f950       ?do_always_noconv@codecvt_base@std@@MBE_NXZ 10040950 f i Interfaces.obj
 0001:0003f960       ?do_encoding@codecvt_base@std@@MBEHXZ 10040960 f i Interfaces.obj
 0001:0003f960       ?do_max_length@codecvt_base@std@@MBEHXZ 10040960 f i Interfaces.obj
 0001:0003f970       ?do_out@?$codecvt@DDU_Mbstatet@@@std@@MBEHAAU_Mbstatet@@PBD1AAPBDPAD3AAPAD@Z 10040970 f i Interfaces.obj
 0001:0003f970       ?do_in@?$codecvt@DDU_Mbstatet@@@std@@MBEHAAU_Mbstatet@@PBD1AAPBDPAD3AAPAD@Z 10040970 f i Interfaces.obj
 0001:0003f9e0       ?do_length@?$codecvt@DDU_Mbstatet@@@std@@MBEHAAU_Mbstatet@@PBD1I@Z 100409e0 f i Interfaces.obj
 0001:0003fa10       ?do_unshift@?$codecvt@DDU_Mbstatet@@@std@@MBEHAAU_Mbstatet@@PAD1AAPAD@Z 10040a10 f i Interfaces.obj
 0001:0003fa30       ?front@?$basic_string@DU?$char_traits@D@std@@V?$allocator@D@2@@std@@QAEAADXZ 10040a30 f i Interfaces.obj
 0001:0003fa50       ?get_@Address@@AAEII@Z     10040a50 f i Interfaces.obj
 0001:0003fab0       ?getloc@?$basic_streambuf@DU?$char_traits@D@std@@@std@@QBE?AVlocale@2@XZ 10040ab0 f i Interfaces.obj
 0001:0003faf0       ?imbue@?$basic_filebuf@DU?$char_traits@D@std@@@std@@MAEXABVlocale@2@@Z 10040af0 f i Interfaces.obj
 0001:0003fb20       ?in@?$codecvt@DDU_Mbstatet@@@std@@QBEHAAU_Mbstatet@@PBD1AAPBDPAD3AAPAD@Z 10040b20 f i Interfaces.obj
 0001:0003fb60       ?open@?$basic_filebuf@DU?$char_traits@D@std@@@std@@QAEPAV12@PBDHH@Z 10040b60 f i Interfaces.obj
 0001:0003fc10       ?out@?$codecvt@DDU_Mbstatet@@@std@@QBEHAAU_Mbstatet@@PBD1AAPBDPAD3AAPAD@Z 10040c10 f i Interfaces.obj
 0001:0003fc50       ?overflow@?$basic_filebuf@DU?$char_traits@D@std@@@std@@MAEHH@Z 10040c50 f i Interfaces.obj
 0001:0003fe30       ?pbackfail@?$basic_filebuf@DU?$char_traits@D@std@@@std@@MAEHH@Z 10040e30 f i Interfaces.obj
 0001:0003ff90       ?safe@Address@@SA_NV1@@Z   10040f90 f i Interfaces.obj
 0001:00040080       ?seekoff@?$basic_filebuf@DU?$char_traits@D@std@@@std@@MAE?AV?$fpos@U_Mbstatet@@@2@_JHH@Z 10041080 f i Interfaces.obj
 0001:00040160       ?seekpos@?$basic_filebuf@DU?$char_traits@D@std@@@std@@MAE?AV?$fpos@U_Mbstatet@@@2@V32@H@Z 10041160 f i Interfaces.obj
 0001:00040200       ?setbuf@?$basic_filebuf@DU?$char_traits@D@std@@@std@@MAEPAV?$basic_streambuf@DU?$char_traits@D@std@@@2@PAD_J@Z 10041200 f i Interfaces.obj
 0001:00040280       ?state@?$fpos@U_Mbstatet@@@std@@QBE?AU_Mbstatet@@XZ 10041280 f i Interfaces.obj
 0001:000402b0       ?sync@?$basic_filebuf@DU?$char_traits@D@std@@@std@@MAEHXZ 100412b0 f i Interfaces.obj
 0001:00040330       ?uflow@?$basic_filebuf@DU?$char_traits@D@std@@@std@@MAEHXZ 10041330 f i Interfaces.obj
 0001:000405a0       ?underflow@?$basic_filebuf@DU?$char_traits@D@std@@@std@@MAEHXZ 100415a0 f i Interfaces.obj
 0001:00040640       ?unshift@?$codecvt@DDU_Mbstatet@@@std@@QBEHAAU_Mbstatet@@PAD1AAPAD@Z 10041640 f i Interfaces.obj
 0001:00040670       ?xsgetn@?$basic_filebuf@DU?$char_traits@D@std@@@std@@MAE_JPAD_J@Z 10041670 f i Interfaces.obj
 0001:00040790       ?xsputn@?$basic_filebuf@DU?$char_traits@D@std@@@std@@MAE_JPBD_J@Z 10041790 f i Interfaces.obj
 0001:000408b0       ??$isinf@M@@YA_NM@Z        100418b0 f i Math.obj
 0001:000408f0       ??$isnan@M@@YA_NM@Z        100418f0 f i Math.obj
 0001:00040930       ?AngleVectors@Math@@QAEXABVVector@@PAV2@11@Z 10041930 f   Math.obj
 0001:00040b10       ?AngleVectors@Math@@QAEXABVVector@@PAV2@@Z 10041b10 f   Math.obj
 0001:00040c10       ?CalcAngle@Math@@QAE?AVVector@@ABV2@0@Z 10041c10 f   Math.obj
 0001:00040e60       ?Clamp@Math@@QAE_NAAVVector@@@Z 10041e60 f   Math.obj
 0001:00040f50       ?ClampAngles@Math@@QAEXAAVVector@@@Z 10041f50 f   Math.obj
 0001:00040ff0       ?GRD_TO_BOG@Math@@QAEMM@Z  10041ff0 f   Math.obj
 0001:00041020       ?NormalizeAngles@Math@@QAEXAAVVector@@@Z 10042020 f   Math.obj
 0001:000410d0       ?NormalizeYaw@Math@@QAEMM@Z 100420d0 f   Math.obj
 0001:00041170       ?RandomFloat@Math@@QAEMMM@Z 10042170 f   Math.obj
 0001:00041200       ?RandomSeed@Math@@QAEXH@Z  10042200 f   Math.obj
 0001:00041280       ?VectorAngles@Math@@QAEXABVVector@@AAV2@1@Z 10042280 f   Math.obj
 0001:00041480       ?VectorAngles@Math@@QAEXABVVector@@AAV2@@Z 10042480 f   Math.obj
 0001:00041730       ?fpclassify@@YAHM@Z        10042730 f i Math.obj
 0001:00041750       ?get_rotated_position@Math@@QAE?AVVector@@V2@MM@Z 10042750 f   Math.obj
 0001:000417e0       ?sin_cos@Math@@QAEXMPAM0@Z 100427e0 f   Math.obj
 0001:00041820       ??$?0AAU?$equal_to@V?$basic_string@DU?$char_traits@D@std@@V?$allocator@D@2@@std@@@std@@M@?$_Compressed_pair@U?$equal_to@V?$basic_string@DU?$char_traits@D@std@@V?$allocator@D@2@@std@@@std@@M$00@std@@QAE@U_One_then_variadic_args_t@1@AAU?$equal_to@V?$basic_string@DU?$char_traits@D@std@@V?$allocator@D@2@@std@@@1@$$QAM@Z 10042820 f i NetvarManager.obj
 0001:00041850       ??$?0AAU?$hash@V?$basic_string@DU?$char_traits@D@std@@V?$allocator@D@2@@std@@@std@@U_One_then_variadic_args_t@1@AAU?$equal_to@V?$basic_string@DU?$char_traits@D@std@@V?$allocator@D@2@@std@@@1@M@?$_Compressed_pair@U?$hash@V?$basic_string@DU?$char_traits@D@std@@V?$allocator@D@2@@std@@@std@@V?$_Compressed_pair@U?$equal_to@V?$basic_string@DU?$char_traits@D@std@@V?$allocator@D@2@@std@@@std@@M$00@2@$00@std@@QAE@U_One_then_variadic_args_t@1@AAU?$hash@V?$basic_string@DU?$char_traits@D@std@@V?$allocator@D@2@@std@@@1@$$QAU21@AAU?$equal_to@V?$basic_string@DU?$char_traits@D@std@@V?$allocator@D@2@@std@@@1@$$QAM@Z 10042850 f i NetvarManager.obj
 0001:000418c0       ??$?0ABV?$allocator@U?$pair@$$CBV?$basic_string@DU?$char_traits@D@std@@V?$allocator@D@2@@std@@V?$shared_ptr@UNode@NetvarTree@@@2@@std@@@std@@$$V@?$_Compressed_pair@V?$allocator@U?$_List_node@U?$pair@$$CBV?$basic_string@DU?$char_traits@D@std@@V?$allocator@D@2@@std@@V?$shared_ptr@UNode@NetvarTree@@@2@@std@@PAX@std@@@std@@V?$_List_val@U?$_List_simple_types@U?$pair@$$CBV?$basic_string@DU?$char_traits@D@std@@V?$allocator@D@2@@std@@V?$shared_ptr@UNode@NetvarTree@@@2@@std@@@std@@@2@$00@std@@QAE@U_One_then_variadic_args_t@1@ABV?$allocator@U?$pair@$$CBV?$basic_string@DU?$char_traits@D@std@@V?$allocator@D@2@@std@@V?$shared_ptr@UNode@NetvarTree@@@2@@std@@@1@@Z 100428c0 f i NetvarManager.obj
 0001:000418f0       ??$?0ABV?$allocator@U?$pair@$$CBV?$basic_string@DU?$char_traits@D@std@@V?$allocator@D@2@@std@@V?$shared_ptr@UNode@NetvarTree@@@2@@std@@@std@@X@?$_List_alloc@U?$_List_base_types@U?$pair@$$CBV?$basic_string@DU?$char_traits@D@std@@V?$allocator@D@2@@std@@V?$shared_ptr@UNode@NetvarTree@@@2@@std@@V?$allocator@U?$pair@$$CBV?$basic_string@DU?$char_traits@D@std@@V?$allocator@D@2@@std@@V?$shared_ptr@UNode@NetvarTree@@@2@@std@@@2@@std@@@std@@QAE@ABV?$allocator@U?$pair@$$CBV?$basic_string@DU?$char_traits@D@std@@V?$allocator@D@2@@std@@V?$shared_ptr@UNode@NetvarTree@@@2@@std@@@1@@Z 100428f0 f i NetvarManager.obj
 0001:00041950       ??$?0ABV?$allocator@U?$pair@$$CBV?$basic_string@DU?$char_traits@D@std@@V?$allocator@D@2@@std@@V?$shared_ptr@UNode@NetvarTree@@@2@@std@@@std@@X@?$_List_buy@U?$pair@$$CBV?$basic_string@DU?$char_traits@D@std@@V?$allocator@D@2@@std@@V?$shared_ptr@UNode@NetvarTree@@@2@@std@@V?$allocator@U?$pair@$$CBV?$basic_string@DU?$char_traits@D@std@@V?$allocator@D@2@@std@@V?$shared_ptr@UNode@NetvarTree@@@2@@std@@@2@@std@@QAE@ABV?$allocator@U?$pair@$$CBV?$basic_string@DU?$char_traits@D@std@@V?$allocator@D@2@@std@@V?$shared_ptr@UNode@NetvarTree@@@2@@std@@@1@@Z 10042950 f i NetvarManager.obj
 0001:00041980       ??$?0H@?$_Ref_count_obj@UNode@NetvarTree@@@std@@QAE@$$QAH@Z 10042980 f i NetvarManager.obj
 0001:00041a10       ??$?0PBDABV?$shared_ptr@UNode@NetvarTree@@@std@@$0A@@?$pair@$$CBV?$basic_string@DU?$char_traits@D@std@@V?$allocator@D@2@@std@@V?$shared_ptr@UNode@NetvarTree@@@2@@std@@QAE@$$QAPBDABV?$shared_ptr@UNode@NetvarTree@@@1@@Z 10042a10 f i NetvarManager.obj
 0001:00041a60       ??$_Buynode@PBDABV?$shared_ptr@UNode@NetvarTree@@@std@@@?$_List_buy@U?$pair@$$CBV?$basic_string@DU?$char_traits@D@std@@V?$allocator@D@2@@std@@V?$shared_ptr@UNode@NetvarTree@@@2@@std@@V?$allocator@U?$pair@$$CBV?$basic_string@DU?$char_traits@D@std@@V?$allocator@D@2@@std@@V?$shared_ptr@UNode@NetvarTree@@@2@@std@@@2@@std@@QAEPAU?$_List_node@U?$pair@$$CBV?$basic_string@DU?$char_traits@D@std@@V?$allocator@D@2@@std@@V?$shared_ptr@UNode@NetvarTree@@@2@@std@@PAX@1@PAU21@0$$QAPBDABV?$shared_ptr@UNode@NetvarTree@@@1@@Z 10042a60 f i NetvarManager.obj
 0001:00041b40       ??$_Copy_construct_from@UNode@NetvarTree@@@?$_Ptr_base@UNode@NetvarTree@@@std@@IAEXABV?$shared_ptr@UNode@NetvarTree@@@1@@Z 10042b40 f i NetvarManager.obj
 0001:00041b80       ??$_Enable_shared_from_this@UNode@NetvarTree@@U12@@std@@YAXABV?$shared_ptr@UNode@NetvarTree@@@0@PAUNode@NetvarTree@@@Z 10042b80 f i NetvarManager.obj
 0001:00041bb0       ??$_Insert@PBDABV?$shared_ptr@UNode@NetvarTree@@@std@@@?$list@U?$pair@$$CBV?$basic_string@DU?$char_traits@D@std@@V?$allocator@D@2@@std@@V?$shared_ptr@UNode@NetvarTree@@@2@@std@@V?$allocator@U?$pair@$$CBV?$basic_string@DU?$char_traits@D@std@@V?$allocator@D@2@@std@@V?$shared_ptr@UNode@NetvarTree@@@2@@std@@@2@@std@@QAEXV?$_List_unchecked_const_iterator@V?$_List_val@U?$_List_simple_types@U?$pair@$$CBV?$basic_string@DU?$char_traits@D@std@@V?$allocator@D@2@@std@@V?$shared_ptr@UNode@NetvarTree@@@2@@std@@@std@@@std@@U_Iterator_base0@2@@1@$$QAPBDABV?$shared_ptr@UNode@NetvarTree@@@1@@Z 10042bb0 f i NetvarManager.obj
 0001:00041c30       ??$_Move_construct_from@UNode@NetvarTree@@@?$_Ptr_base@UNode@NetvarTree@@@std@@IAEX$$QAV01@@Z 10042c30 f i NetvarManager.obj
 0001:00041c70       ??$_Set_ptr_rep_and_enable_shared@UNode@NetvarTree@@@?$shared_ptr@UNode@NetvarTree@@@std@@AAEXPAUNode@NetvarTree@@PAV_Ref_count_base@1@@Z 10042c70 f i NetvarManager.obj
 0001:00041ca0       ??$construct@U?$pair@$$CBV?$basic_string@DU?$char_traits@D@std@@V?$allocator@D@2@@std@@V?$shared_ptr@UNode@NetvarTree@@@2@@std@@PBDABV?$shared_ptr@UNode@NetvarTree@@@2@@?$_Default_allocator_traits@V?$allocator@U?$_List_node@U?$pair@$$CBV?$basic_string@DU?$char_traits@D@std@@V?$allocator@D@2@@std@@V?$shared_ptr@UNode@NetvarTree@@@2@@std@@PAX@std@@@std@@@std@@SAXAAV?$allocator@U?$_List_node@U?$pair@$$CBV?$basic_string@DU?$char_traits@D@std@@V?$allocator@D@2@@std@@V?$shared_ptr@UNode@NetvarTree@@@2@@std@@PAX@std@@@1@QAU?$pair@$$CBV?$basic_string@DU?$char_traits@D@std@@V?$allocator@D@2@@std@@V?$shared_ptr@UNode@NetvarTree@@@2@@1@$$QAPBDABV?$shared_ptr@UNode@NetvarTree@@@1@@Z 10042ca0 f i NetvarManager.obj
 0001:00041cf0       ??$emplace@PBDABV?$shared_ptr@UNode@NetvarTree@@@std@@@?$_Hash@V?$_Umap_traits@V?$basic_string@DU?$char_traits@D@std@@V?$allocator@D@2@@std@@V?$shared_ptr@UNode@NetvarTree@@@2@V?$_Uhash_compare@V?$basic_string@DU?$char_traits@D@std@@V?$allocator@D@2@@std@@U?$hash@V?$basic_string@DU?$char_traits@D@std@@V?$allocator@D@2@@std@@@2@U?$equal_to@V?$basic_string@DU?$char_traits@D@std@@V?$allocator@D@2@@std@@@2@@2@V?$allocator@U?$pair@$$CBV?$basic_string@DU?$char_traits@D@std@@V?$allocator@D@2@@std@@V?$shared_ptr@UNode@NetvarTree@@@2@@std@@@2@$0A@@std@@@std@@QAE?AU?$pair@V?$_List_iterator@V?$_List_val@U?$_List_simple_types@U?$pair@$$CBV?$basic_string@DU?$char_traits@D@std@@V?$allocator@D@2@@std@@V?$shared_ptr@UNode@NetvarTree@@@2@@std@@@std@@@std@@@std@@_N@1@$$QAPBDABV?$shared_ptr@UNode@NetvarTree@@@1@@Z 10042cf0 f i NetvarManager.obj
 0001:00041d70       ??$emplace_front@PBDABV?$shared_ptr@UNode@NetvarTree@@@std@@@?$list@U?$pair@$$CBV?$basic_string@DU?$char_traits@D@std@@V?$allocator@D@2@@std@@V?$shared_ptr@UNode@NetvarTree@@@2@@std@@V?$allocator@U?$pair@$$CBV?$basic_string@DU?$char_traits@D@std@@V?$allocator@D@2@@std@@V?$shared_ptr@UNode@NetvarTree@@@2@@std@@@2@@std@@QAEAAU?$pair@$$CBV?$basic_string@DU?$char_traits@D@std@@V?$allocator@D@2@@std@@V?$shared_ptr@UNode@NetvarTree@@@2@@1@$$QAPBDABV?$shared_ptr@UNode@NetvarTree@@@1@@Z 10042d70 f i NetvarManager.obj
 0001:00041de0       ??$make_shared@UNode@NetvarTree@@H@std@@YA?AV?$shared_ptr@UNode@NetvarTree@@@0@$$QAH@Z 10042de0 f i NetvarManager.obj
 0001:00041eb0       ??0?$_Hash@V?$_Umap_traits@V?$basic_string@DU?$char_traits@D@std@@V?$allocator@D@2@@std@@V?$shared_ptr@UNode@NetvarTree@@@2@V?$_Uhash_compare@V?$basic_string@DU?$char_traits@D@std@@V?$allocator@D@2@@std@@U?$hash@V?$basic_string@DU?$char_traits@D@std@@V?$allocator@D@2@@std@@@2@U?$equal_to@V?$basic_string@DU?$char_traits@D@std@@V?$allocator@D@2@@std@@@2@@2@V?$allocator@U?$pair@$$CBV?$basic_string@DU?$char_traits@D@std@@V?$allocator@D@2@@std@@V?$shared_ptr@UNode@NetvarTree@@@2@@std@@@2@$0A@@std@@@std@@QAE@ABV?$_Uhash_compare@V?$basic_string@DU?$char_traits@D@std@@V?$allocator@D@2@@std@@U?$hash@V?$basic_string@DU?$char_traits@D@std@@V?$allocator@D@2@@std@@@2@U?$equal_to@V?$basic_string@DU?$char_traits@D@std@@V?$allocator@D@2@@std@@@2@@1@ABV?$allocator@U?$pair@$$CBV?$basic_string@DU?$char_traits@D@std@@V?$allocator@D@2@@std@@V?$shared_ptr@UNode@NetvarTree@@@2@@std@@@1@@Z 10042eb0 f i NetvarManager.obj
 0001:00041f60       ??0?$_Uhash_compare@V?$basic_string@DU?$char_traits@D@std@@V?$allocator@D@2@@std@@U?$hash@V?$basic_string@DU?$char_traits@D@std@@V?$allocator@D@2@@std@@@2@U?$equal_to@V?$basic_string@DU?$char_traits@D@std@@V?$allocator@D@2@@std@@@2@@std@@QAE@U?$hash@V?$basic_string@DU?$char_traits@D@std@@V?$allocator@D@2@@std@@@1@U?$equal_to@V?$basic_string@DU?$char_traits@D@std@@V?$allocator@D@2@@std@@@1@@Z 10042f60 f i NetvarManager.obj
 0001:00041fa0       ??0?$_Umap_traits@V?$basic_string@DU?$char_traits@D@std@@V?$allocator@D@2@@std@@V?$shared_ptr@UNode@NetvarTree@@@2@V?$_Uhash_compare@V?$basic_string@DU?$char_traits@D@std@@V?$allocator@D@2@@std@@U?$hash@V?$basic_string@DU?$char_traits@D@std@@V?$allocator@D@2@@std@@@2@U?$equal_to@V?$basic_string@DU?$char_traits@D@std@@V?$allocator@D@2@@std@@@2@@2@V?$allocator@U?$pair@$$CBV?$basic_string@DU?$char_traits@D@std@@V?$allocator@D@2@@std@@V?$shared_ptr@UNode@NetvarTree@@@2@@std@@@2@$0A@@std@@QAE@ABV?$_Uhash_compare@V?$basic_string@DU?$char_traits@D@std@@V?$allocator@D@2@@std@@U?$hash@V?$basic_string@DU?$char_traits@D@std@@V?$allocator@D@2@@std@@@2@U?$equal_to@V?$basic_string@DU?$char_traits@D@std@@V?$allocator@D@2@@std@@@2@@1@@Z 10042fa0 f i NetvarManager.obj
 0001:00041fc0       ??0?$list@U?$pair@$$CBV?$basic_string@DU?$char_traits@D@std@@V?$allocator@D@2@@std@@V?$shared_ptr@UNode@NetvarTree@@@2@@std@@V?$allocator@U?$pair@$$CBV?$basic_string@DU?$char_traits@D@std@@V?$allocator@D@2@@std@@V?$shared_ptr@UNode@NetvarTree@@@2@@std@@@2@@std@@QAE@ABV?$allocator@U?$pair@$$CBV?$basic_string@DU?$char_traits@D@std@@V?$allocator@D@2@@std@@V?$shared_ptr@UNode@NetvarTree@@@2@@std@@@1@@Z 10042fc0 f i NetvarManager.obj
 0001:00041fe0       ??0?$shared_ptr@UNode@NetvarTree@@@std@@QAE@$$QAV01@@Z 10042fe0 f i NetvarManager.obj
 0001:00042030       ??0?$shared_ptr@UNode@NetvarTree@@@std@@QAE@ABV01@@Z 10043030 f i NetvarManager.obj
 0001:00042080       ??0?$unordered_map@V?$basic_string@DU?$char_traits@D@std@@V?$allocator@D@2@@std@@V?$shared_ptr@UNode@NetvarTree@@@2@U?$hash@V?$basic_string@DU?$char_traits@D@std@@V?$allocator@D@2@@std@@@2@U?$equal_to@V?$basic_string@DU?$char_traits@D@std@@V?$allocator@D@2@@std@@@2@V?$allocator@U?$pair@$$CBV?$basic_string@DU?$char_traits@D@std@@V?$allocator@D@2@@std@@V?$shared_ptr@UNode@NetvarTree@@@2@@std@@@2@@std@@QAE@XZ 10043080 f i NetvarManager.obj
 0001:000420c0       ??0?$vector@V?$_List_unchecked_iterator@V?$_List_val@U?$_List_simple_types@U?$pair@$$CBV?$basic_string@DU?$char_traits@D@std@@V?$allocator@D@2@@std@@V?$shared_ptr@UNode@NetvarTree@@@2@@std@@@std@@@std@@@std@@V?$allocator@V?$_List_unchecked_iterator@V?$_List_val@U?$_List_simple_types@U?$pair@$$CBV?$basic_string@DU?$char_traits@D@std@@V?$allocator@D@2@@std@@V?$shared_ptr@UNode@NetvarTree@@@2@@std@@@std@@@std@@@std@@@2@@std@@QAE@ABV?$allocator@V?$_List_unchecked_iterator@V?$_List_val@U?$_List_simple_types@U?$pair@$$CBV?$basic_string@DU?$char_traits@D@std@@V?$allocator@D@2@@std@@V?$shared_ptr@UNode@NetvarTree@@@2@@std@@@std@@@std@@@std@@@1@@Z 100430c0 f i NetvarManager.obj
 0001:00042100       ??0NetvarTree@@QAE@XZ      10043100 f   NetvarManager.obj
 0001:000421e0       ??0Node@NetvarTree@@QAE@H@Z 100431e0 f i NetvarManager.obj
 0001:00042210       ??0_Ref_count_base@std@@IAE@XZ 10043210 f i NetvarManager.obj
 0001:00042240       ??_E?$_Ref_count_obj@UNode@NetvarTree@@@std@@UAEPAXI@Z 10043240 f i NetvarManager.obj
 0001:00042240       ??_G?$_Ref_count_obj@UNode@NetvarTree@@@std@@UAEPAXI@Z 10043240 f i NetvarManager.obj
 0001:00042270       ??_GNode@NetvarTree@@QAEPAXI@Z 10043270 f i NetvarManager.obj
 0001:000422a0       ?GetDataTable@RecvProp@@QBEPAVRecvTable@@XZ 100432a0 f i NetvarManager.obj
 0001:000422c0       ?GetOffset@RecvProp@@QBEHXZ 100432c0 f i NetvarManager.obj
 0001:000422e0       ?GetProp@RecvTable@@QAEPAVRecvProp@@H@Z 100432e0 f i NetvarManager.obj
 0001:00042300       ?PopulateNodes@NetvarTree@@AAEXPAVRecvTable@@PAV?$unordered_map@V?$basic_string@DU?$char_traits@D@std@@V?$allocator@D@2@@std@@V?$shared_ptr@UNode@NetvarTree@@@2@U?$hash@V?$basic_string@DU?$char_traits@D@std@@V?$allocator@D@2@@std@@@2@U?$equal_to@V?$basic_string@DU?$char_traits@D@std@@V?$allocator@D@2@@std@@@2@V?$allocator@U?$pair@$$CBV?$basic_string@DU?$char_traits@D@std@@V?$allocator@D@2@@std@@V?$shared_ptr@UNode@NetvarTree@@@2@@std@@@2@@std@@@Z 10043300 f   NetvarManager.obj
 0001:000423f0       ?_Buyheadnode@?$_List_alloc@U?$_List_base_types@U?$pair@$$CBV?$basic_string@DU?$char_traits@D@std@@V?$allocator@D@2@@std@@V?$shared_ptr@UNode@NetvarTree@@@2@@std@@V?$allocator@U?$pair@$$CBV?$basic_string@DU?$char_traits@D@std@@V?$allocator@D@2@@std@@V?$shared_ptr@UNode@NetvarTree@@@2@@std@@@2@@std@@@std@@QAEPAU?$_List_node@U?$pair@$$CBV?$basic_string@DU?$char_traits@D@std@@V?$allocator@D@2@@std@@V?$shared_ptr@UNode@NetvarTree@@@2@@std@@PAX@2@XZ 100433f0 f i NetvarManager.obj
 0001:00042410       ?_Delete_this@?$_Ref_count_obj@UNode@NetvarTree@@@std@@EAEXXZ 10043410 f i NetvarManager.obj
 0001:00042450       ?_Destroy@?$_Ref_count_obj@UNode@NetvarTree@@@std@@EAEXXZ 10043450 f i NetvarManager.obj
 0001:000424a0       ?_Get_deleter@_Ref_count_base@std@@UBEPAXABVtype_info@@@Z 100434a0 f i NetvarManager.obj
 0001:000424b0       ?_Getptr@?$_Ref_count_obj@UNode@NetvarTree@@@std@@QAEPAUNode@NetvarTree@@XZ 100434b0 f i NetvarManager.obj
 0001:000424d0       ?_Set_ptr_rep@?$_Ptr_base@UNode@NetvarTree@@@std@@IAEXPAUNode@NetvarTree@@PAV_Ref_count_base@2@@Z 100434d0 f i NetvarManager.obj
 0001:000424f0       ??$_Emplace_back@UVertex_t@@@?$_Uninitialized_backout_al@PAUVertex_t@@V?$allocator@UVertex_t@@@std@@@std@@QAEX$$QAUVertex_t@@@Z 100434f0 f i ESP.obj
 0001:000424f0       ??$_Emplace_back@AAUVertex_t@@@?$_Uninitialized_backout_al@PAUVertex_t@@V?$allocator@UVertex_t@@@std@@@std@@QAEXAAUVertex_t@@@Z 100434f0 f i ESP.obj
 0001:00042550       ??$_Emplace_back_with_unused_capacity@UVertex_t@@@?$vector@UVertex_t@@V?$allocator@UVertex_t@@@std@@@std@@AAEAAUVertex_t@@$$QAU2@@Z 10043550 f i ESP.obj
 0001:00042600       ??$_Emplace_reallocate@UVertex_t@@@?$vector@UVertex_t@@V?$allocator@UVertex_t@@@std@@@std@@QAEPAUVertex_t@@QAU2@$$QAU2@@Z 10043600 f i ESP.obj
 0001:000427f0       ??$_Get_size_of_n@$0BA@@std@@YAII@Z 100437f0 f i ESP.obj
 0001:00042820       ??$_Idl_distance@PAUVertex_t@@PAU1@@std@@YAHABQAUVertex_t@@0@Z 10043820 f i ESP.obj
 0001:00042840       ??$_Traits_find@U?$char_traits@D@std@@@std@@YAIQBDII0I@Z 10043840 f i ESP.obj
 0001:000428e0       ??$_Uninitialized_copy@PAUVertex_t@@PAU1@V?$allocator@UVertex_t@@@std@@@std@@YAPAUVertex_t@@QAU1@0PAU1@AAV?$allocator@UVertex_t@@@0@@Z 100438e0 f i ESP.obj
 0001:000429a0       ??$_Uninitialized_copy_al_unchecked@PAUVertex_t@@PAU1@V?$allocator@UVertex_t@@@std@@@std@@YAPAUVertex_t@@PAU1@QAU1@1AAV?$allocator@UVertex_t@@@0@U_General_ptr_iterator_tag@0@U_Unused_parameter@0@@Z 100439a0 f i ESP.obj
 0001:00042a20       ??$_Uninitialized_move@PAUVertex_t@@PAU1@V?$allocator@UVertex_t@@@std@@@std@@YAPAUVertex_t@@QAU1@0PAU1@AAV?$allocator@UVertex_t@@@0@@Z 10043a20 f i ESP.obj
 0001:00042ae0       ??$_Uninitialized_move_al_unchecked@PAUVertex_t@@PAU1@V?$allocator@UVertex_t@@@std@@@std@@YAPAUVertex_t@@PAU1@QAU1@1AAV?$allocator@UVertex_t@@@0@U_General_ptr_iterator_tag@0@U_Unused_parameter@0@@Z 10043ae0 f i ESP.obj
 0001:00042b70       ??$construct@UVertex_t@@AAU1@@?$_Default_allocator_traits@V?$allocator@UVertex_t@@@std@@@std@@SAXAAV?$allocator@UVertex_t@@@1@QAUVertex_t@@AAU3@@Z 10043b70 f i ESP.obj
 0001:00042b70       ??$construct@UVertex_t@@U1@@?$_Default_allocator_traits@V?$allocator@UVertex_t@@@std@@@std@@SAXAAV?$allocator@UVertex_t@@@1@QAUVertex_t@@$$QAU3@@Z 10043b70 f i ESP.obj
 0001:00042bb0       ??$emplace_back@UVertex_t@@@?$vector@UVertex_t@@V?$allocator@UVertex_t@@@std@@@std@@QAEAAUVertex_t@@$$QAU2@@Z 10043bb0 f i ESP.obj
 0001:00042c20       ??$sprintf_s@$0EA@@@YAHAAY0EA@DPBDZZ 10043c20 f i ESP.obj
 0001:00042c50       ??0?$array@VVector2D@@$02@std@@QAE@ABV01@@Z 10043c50 f i ESP.obj
 0001:00042c80       ??0ESP@@QAE@XZ             10043c80 f i ESP.obj
 0001:00042cd0       ??4Vector2D@@QAEAAV0@ABV0@@Z 10043cd0 f i ESP.obj
 0001:00042cd0       ??0Vector2D@@QAE@ABV0@@Z   10043cd0 f i ESP.obj
 0001:00042d00       ??0Vertex_t@@QAE@ABU0@@Z   10043d00 f i ESP.obj
 0001:00042d00       ??0Vertex_t@@QAE@$$QAU0@@Z 10043d00 f i ESP.obj
 0001:00042d40       ??0Vertex_t@@QAE@ABVVector2D@@0@Z 10043d40 f i ESP.obj
 0001:00042d80       ??1?$vector@UVertex_t@@V?$allocator@UVertex_t@@@std@@@std@@QAE@XZ 10043d80 f i ESP.obj
 0001:00042dc0       ??4?$basic_string@DU?$char_traits@D@std@@V?$allocator@D@2@@std@@QAEAAV01@QBD@Z 10043dc0 f i ESP.obj
 0001:00042de0       ??6?$basic_ostream@DU?$char_traits@D@std@@@std@@QAEAAV01@H@Z 10043de0 f i ESP.obj
 0001:00042ff0       ??DColor@@QBEAAU0@M@Z      10043ff0 f i ESP.obj
 0001:00043030       ??G?$_String_const_iterator@V?$_String_val@U?$_Simple_types@D@std@@@std@@@std@@QBEHABV01@@Z 10044030 f i ESP.obj
 0001:00043060       ??H?$_String_iterator@V?$_String_val@U?$_Simple_types@D@std@@@std@@@std@@QBE?AV01@H@Z 10044060 f i ESP.obj
 0001:00043090       ??HVector2D@@QBE?AV0@ABV0@@Z 10044090 f i ESP.obj
 0001:000430d0       ??KVector2D@@QBE?AV0@M@Z   100440d0 f i ESP.obj
 0001:00043120       ??R<lambda_28ad49831541a2424837282b434053c9>@@QBE_NXZ 10044120 f i ESP.obj
 0001:000433c0       ??R<lambda_5ba125d9be670a726afac81b4c1a6092>@@QBE?AUColor@@ABU1@0M@Z 100443c0 f i ESP.obj
 0001:000438c0       ??XColor@@QAEAAU0@M@Z      100448c0 f i ESP.obj
 0001:00043920       ??Y?$_String_const_iterator@V?$_String_val@U?$_Simple_types@D@std@@@std@@@std@@QAEAAV01@H@Z 10044920 f i ESP.obj
 0001:00043940       ??Y?$_String_iterator@V?$_String_val@U?$_Simple_types@D@std@@@std@@@std@@QAEAAV01@H@Z 10044940 f i ESP.obj
 0001:00043960       ??YVector2D@@QAEAAV0@ABV0@@Z 10044960 f i ESP.obj
 0001:000439a0       ??ZVector2D@@QAEAAV0@ABV0@@Z 100449a0 f i ESP.obj
 0001:000439e0       ??__G@YGXPAX0IIP6EPAX00@Z@Z 100449e0 f i ESP.obj
 0001:00043a30       ?AccuracyPenalty@C_BaseCombatWeapon@@QAEXXZ 10044a30 f i ESP.obj
 0001:00043a60       ?Arrows@ESP@@QAEXXZ        10044a60 f   ESP.obj
 0001:000454a0       ?BoundBox@ESP@@AAEXPAVC_BaseEntity@@@Z 100464a0 f   ESP.obj
 0001:00045610       ?CSGO_Armor@@YAMMH@Z       10046610 f   ESP.obj
 0001:000456b0       ?CreateNewTextureID@ISurface@@QAEH_N@Z 100466b0 f i ESP.obj
 0001:000456e0       ?DistTo@Vector@@QBEMABV1@@Z 100466e0 f i ESP.obj
 0001:00045740       ?DrawCircleFast@ISurface@@QAEXMMHHUColor@@@Z 10046740 f i ESP.obj
 0001:000458d0       ?DrawLine@@YAXMMHHHUColor@@@Z 100468d0 f   ESP.obj
 0001:00045a60       ?DrawTexturedPolygon@ISurface@@QAEXHPAUVertex_t@@_N@Z 10046a60 f i ESP.obj
 0001:00045aa0       ?FilledCircle@ISurface@@QAEXVVector2D@@MMUColor@@@Z 10046aa0 f i ESP.obj
 0001:00045c10       ?Flags@ESP@@AAEXPAVC_BaseEntity@@@Z 10046c10 f   ESP.obj
 0001:00046670       ?GetHitboxPosition@@YA?AVVector@@PAVC_BaseEntity@@H@Z 10047670 f   ESP.obj
 0001:00046790       ?GetTextSizeRect@ISurface@@QAE?AUtagRECT@@KPBD@Z 10047790 f i ESP.obj
 0001:00046850       ?PenetrationCrosshair@ESP@@QAEXXZ 10047850 f   ESP.obj
 0001:00046e60       ?QuakeKillCounter@ESP@@QAEXXZ 10047e60 f   ESP.obj
 0001:00047910       ?Render@ESP@@QAEXXZ        10048910 f   ESP.obj
 0001:00047e50       ?RenderBox@ESP@@AAEXXZ     10048e50 f   ESP.obj
 0001:00048120       ?RenderHealth@ESP@@AAEXPAVC_BaseEntity@@@Z 10049120 f   ESP.obj
 0001:000485f0       ?RenderHitboxPoints@ESP@@AAEXPAVC_BaseEntity@@@Z 100495f0 f   ESP.obj
 0001:00048740       ?RenderName@ESP@@AAEXPAVC_BaseEntity@@H@Z 10049740 f   ESP.obj
 0001:000488d0       ?RenderSkeleton@ESP@@AAEXPAVC_BaseEntity@@@Z 100498d0 f   ESP.obj
 0001:000492c0       ?RenderWeaponName@ESP@@AAEXPAVC_BaseEntity@@@Z 1004a2c0 f   ESP.obj
 0001:00049480       ?SpreadCrosshair@ESP@@QAEXXZ 1004a480 f   ESP.obj
 0001:000499c0       ?Vector2DAdd@@YAXABVVector2D@@0AAV1@@Z 1004a9c0 f i ESP.obj
 0001:00049a00       ?Vector2DDivide@@YAXABVVector2D@@MAAV1@@Z 1004aa00 f i ESP.obj
 0001:00049a50       ?WorldToScreen@@YA_NABVVector@@AAV1@@Z 1004aa50 f   ESP.obj
 0001:00049b00       ?WorldToScreen@Utils@@SA_NABVVector@@AAVVector2D@@@Z 1004ab00 f i ESP.obj
 0001:00049bb0       ?_Calculate_growth@?$vector@UVertex_t@@V?$allocator@UVertex_t@@@std@@@std@@ABEII@Z 1004abb0 f i ESP.obj
 0001:00049c00       ?_Change_array@?$vector@UVertex_t@@V?$allocator@UVertex_t@@@std@@@std@@AAEXQAUVertex_t@@II@Z 1004ac00 f i ESP.obj
 0001:00049cc0       ?_Tidy@?$vector@UVertex_t@@V?$allocator@UVertex_t@@@std@@@std@@AAEXXZ 1004acc0 f i ESP.obj
 0001:00049d70       ?_Umove@?$vector@UVertex_t@@V?$allocator@UVertex_t@@@std@@@std@@AAEPAUVertex_t@@PAU3@00@Z 1004ad70 f i ESP.obj
 0001:00049da0       ?_Umove_if_noexcept1@?$vector@UVertex_t@@V?$allocator@UVertex_t@@@std@@@std@@AAEXPAUVertex_t@@00U?$integral_constant@_N$0A@@2@@Z 1004ada0 f i ESP.obj
 0001:00049dd0       ?_Umove_if_noexcept@?$vector@UVertex_t@@V?$allocator@UVertex_t@@@std@@@std@@AAEXPAUVertex_t@@00@Z 1004add0 f i ESP.obj
 0001:00049e00       ?_Unchecked_end@?$array@VVector2D@@$02@std@@QAEPAVVector2D@@XZ 1004ae00 f i ESP.obj
 0001:00049e20       ?aClampYaw@@YAMM@Z         1004ae20 f   ESP.obj
 0001:00049e70       ?add_gradient_rect@ISurface@@QAEXHHHHUColor@@0W4gradient_type_t@@@Z 1004ae70 f i ESP.obj
 0001:0004a050       ?add_textured_polygon@ISurface@@QAEXHPAUVertex_t@@HHHH@Z 1004b050 f i ESP.obj
 0001:0004a120       ?allocate@?$allocator@UVertex_t@@@std@@QAEPAUVertex_t@@I@Z 1004b120 f i ESP.obj
 0001:0004a150       ?arrows@@YAXPAVC_BaseEntity@@@Z 1004b150 f   ESP.obj
 0001:0004a650       ?at@?$array@VVector2D@@$02@std@@QAEAAVVector2D@@I@Z 1004b650 f i ESP.obj
 0001:0004a680       ?c4_blow_time@C_BaseEntity@@QAEMXZ 1004b680 f i ESP.obj
 0001:0004a730       ?capacity@?$vector@UVertex_t@@V?$allocator@UVertex_t@@@std@@@std@@QBEIXZ 1004b730 f i ESP.obj
 0001:0004a760       ?clean_item_name@@YA?AV?$basic_string@DU?$char_traits@D@std@@V?$allocator@D@2@@std@@V12@@Z 1004b760 f   ESP.obj
 0001:0004a8e0       ?data@?$vector@UVertex_t@@V?$allocator@UVertex_t@@@std@@@std@@QAEPAUVertex_t@@XZ 1004b8e0 f i ESP.obj
 0001:0004a920       ?deallocate@?$allocator@UVertex_t@@@std@@QAEXQAUVertex_t@@I@Z 1004b920 f i ESP.obj
 0001:0004a940       ?draw_filled_triangle@ISurface@@QAEXV?$array@VVector2D@@$02@std@@UColor@@@Z 1004b940 f i ESP.obj
 0001:0004aa20       ?draw_gradient_rect@ISurface@@QAEXHHHH_NMH@Z 1004ba20 f i ESP.obj
 0001:0004aad0       ?draw_polygon@ISurface@@QAEXHPAUVertex_t@@_N@Z 1004bad0 f i ESP.obj
 0001:0004ab10       ?draw_spread@ESP@@QAEXXZ   1004bb10 f   ESP.obj
 0001:0004aff0       ?erase@?$basic_string@DU?$char_traits@D@std@@V?$allocator@D@2@@std@@QAE?AV?$_String_iterator@V?$_String_val@U?$_Simple_types@D@std@@@std@@@2@V?$_String_const_iterator@V?$_String_val@U?$_Simple_types@D@std@@@std@@@2@0@Z 1004bff0 f i ESP.obj
 0001:0004b070       ?erase@?$basic_string@DU?$char_traits@D@std@@V?$allocator@D@2@@std@@QAE?AV?$_String_iterator@V?$_String_val@U?$_Simple_types@D@std@@@std@@@2@V?$_String_const_iterator@V?$_String_val@U?$_Simple_types@D@std@@@std@@@2@@Z 1004c070 f i ESP.obj
 0001:0004b0d0       ?exp@@YAMM@Z               1004c0d0 f i ESP.obj
 0001:0004b0f0       ?find@?$basic_string@DU?$char_traits@D@std@@V?$allocator@D@2@@std@@QBEIQBDI@Z 1004c0f0 f i ESP.obj
 0001:0004b170       ?find@?$char_traits@D@std@@SAPBDQBDIABD@Z 1004c170 f i ESP.obj
 0001:0004b1a0       ?fmod@@YAMMM@Z             1004c1a0 f i ESP.obj
 0001:0004b1d0       ?get_hitbox@@YAPAUmstudiobbox_t@@PAVC_BaseEntity@@H@Z 1004c1d0 f   ESP.obj
 0001:0004b280       ?is_valid_world@C_BaseEntity@@QAE_N_N@Z 1004c280 f i ESP.obj
 0001:0004b2c0       ?m_bBombDefused@C_BaseEntity@@QAE_NXZ 1004c2c0 f i ESP.obj
 0001:0004b370       ?m_bIsDefusing@C_BaseEntity@@QAEHXZ 1004c370 f i ESP.obj
 0001:0004b420       ?m_flDefuseCountDown@C_BaseEntity@@QAEMXZ 1004c420 f i ESP.obj
 0001:0004b4d0       ?m_flTimerLength@C_BaseEntity@@QAEHXZ 1004c4d0 f i ESP.obj
 0001:0004b590       ?m_hBombDefuser@C_BaseEntity@@QAEHXZ 1004c590 f i ESP.obj
 0001:0004b640       ?m_hOwnerEntity@C_BaseEntity@@QAEHXZ 1004c640 f i ESP.obj
 0001:0004b6f0       ?max_size@?$_Default_allocator_traits@V?$allocator@UVertex_t@@@std@@@std@@SAIABV?$allocator@UVertex_t@@@2@@Z 1004c6f0 f i ESP.obj
 0001:0004b700       ?max_size@?$vector@UVertex_t@@V?$allocator@UVertex_t@@@std@@@std@@QBEIXZ 1004c700 f i ESP.obj
 0001:0004b740       ?newbombtimer@ESP@@QAEXPAVC_BaseEntity@@@Z 1004c740 f   ESP.obj
 0001:0004c1f0       ?pow@@YAMMH@Z              1004d1f0 f i ESP.obj
 0001:0004c230       ?projectiles@ESP@@QAEXPAVC_BaseEntity@@@Z 1004d230 f   ESP.obj
 0001:0004c8c0       ?push_back@?$vector@UVertex_t@@V?$allocator@UVertex_t@@@std@@@std@@QAEX$$QAUVertex_t@@@Z 1004d8c0 f i ESP.obj
 0001:0004c8f0       ?put@?$num_put@DV?$ostreambuf_iterator@DU?$char_traits@D@std@@@std@@@std@@QBE?AV?$ostreambuf_iterator@DU?$char_traits@D@std@@@2@V32@AAVios_base@2@DJ@Z 1004d8f0 f i ESP.obj
 0001:0004c930       ?rotate@@YAXAAV?$array@VVector2D@@$02@std@@M@Z 1004d930 f   ESP.obj
 0001:0004ca90       ?set_drawing_color@ISurface@@QAEXHHHH@Z 1004da90 f i ESP.obj
 0001:0004cad0       ?set_texture@ISurface@@QAEXH@Z 1004dad0 f i ESP.obj
 0001:0004cb00       ?size@?$vector@UVertex_t@@V?$allocator@UVertex_t@@@std@@@std@@QBEIXZ 1004db00 f i ESP.obj
 0001:0004cb30       ?strstr@@YAPADQADQBD@Z     1004db30 f i ESP.obj
 0001:0004cb60       ?watermark@ESP@@QAEXXZ     1004db60 f   ESP.obj
 0001:0004d2b0       ?world@ESP@@QAEXPAVC_BaseEntity@@@Z 1004e2b0 f   ESP.obj
 0001:0004da00       ?world_to_screen@@YA_NABVVector@@AAV1@@Z 1004ea00 f   ESP.obj
 0001:0004dda0       _expf                      1004eda0 f i ESP.obj
 0001:0004ddbe       _K32GetModuleInformation@16 1004edbe f   kernel32:KERNEL32.dll
 0001:0004ddc4       ??0bad_alloc@std@@QAE@ABV01@@Z 1004edc4 f i libcpmt:xthrow.obj
 0001:0004dddf       ??0bad_alloc@std@@QAE@XZ   1004eddf f i libcpmt:xthrow.obj
 0001:0004ddf7       ??0length_error@std@@QAE@ABV01@@Z 1004edf7 f i libcpmt:xthrow.obj
 0001:0004de12       ??0length_error@std@@QAE@PBD@Z 1004ee12 f i libcpmt:xthrow.obj
 0001:0004de31       ??0logic_error@std@@QAE@ABV01@@Z 1004ee31 f i libcpmt:xthrow.obj
 0001:0004de4c       ??0out_of_range@std@@QAE@ABV01@@Z 1004ee4c f i libcpmt:xthrow.obj
 0001:0004de67       ??0out_of_range@std@@QAE@PBD@Z 1004ee67 f i libcpmt:xthrow.obj
 0001:0004de86       ??1out_of_range@std@@UAE@XZ 1004ee86 f i libcpmt:xthrow.obj
 0001:0004de86       ??1bad_exception@std@@UAE@XZ 1004ee86 f i libvcruntime:frame.obj
 0001:0004de86       ??1length_error@std@@UAE@XZ 1004ee86 f i libcpmt:xthrow.obj
 0001:0004de86       ??1bad_array_new_length@std@@UAE@XZ 1004ee86 f i LIBCMT:throw_bad_alloc.obj
 0001:0004de86       ??1bad_alloc@std@@UAE@XZ   1004ee86 f i libcpmt:xthrow.obj
 0001:0004de97       ??_Gbad_array_new_length@std@@UAEPAXI@Z 1004ee97 f i LIBCMT:throw_bad_alloc.obj
 0001:0004de97       ??_Eout_of_range@std@@UAEPAXI@Z 1004ee97 f i libcpmt:xthrow.obj
 0001:0004de97       ??_Gbad_exception@std@@UAEPAXI@Z 1004ee97 f i libvcruntime:frame.obj
 0001:0004de97       ??_Gout_of_range@std@@UAEPAXI@Z 1004ee97 f i libcpmt:xthrow.obj
 0001:0004de97       ??_Elength_error@std@@UAEPAXI@Z 1004ee97 f i libcpmt:xthrow.obj
 0001:0004de97       ??_Ebad_exception@std@@UAEPAXI@Z 1004ee97 f i libvcruntime:frame.obj
 0001:0004de97       ??_Gbad_alloc@std@@UAEPAXI@Z 1004ee97 f i libcpmt:xthrow.obj
 0001:0004de97       ??_Glength_error@std@@UAEPAXI@Z 1004ee97 f i libcpmt:xthrow.obj
 0001:0004de97       ??_Glogic_error@std@@UAEPAXI@Z 1004ee97 f i libcpmt:xthrow.obj
 0001:0004de97       ??_Ebad_alloc@std@@UAEPAXI@Z 1004ee97 f i libcpmt:xthrow.obj
 0001:0004de97       ??_Elogic_error@std@@UAEPAXI@Z 1004ee97 f i libcpmt:xthrow.obj
 0001:0004de97       ??_Ebad_array_new_length@std@@UAEPAXI@Z 1004ee97 f i LIBCMT:throw_bad_alloc.obj
 0001:0004dec4       ?_Xbad_alloc@std@@YAXXZ    1004eec4 f   libcpmt:xthrow.obj
 0001:0004dec4       ?__scrt_throw_std_bad_alloc@@YAXXZ 1004eec4 f   LIBCMT:throw_bad_alloc.obj
 0001:0004dee1       ?_Xlength_error@std@@YAXPBD@Z 1004eee1 f   libcpmt:xthrow.obj
 0001:0004df01       ?_Xout_of_range@std@@YAXPBD@Z 1004ef01 f   libcpmt:xthrow.obj
 0001:0004df21       ??0_Init_locks@std@@QAE@XZ 1004ef21 f   libcpmt:xlock.obj
 0001:0004df4e       ??0_Lockit@std@@QAE@H@Z    1004ef4e f   libcpmt:xlock.obj
 0001:0004df7f       ??1_Init_locks@std@@QAE@XZ 1004ef7f f   libcpmt:xlock.obj
 0001:0004dfa6       ??1_Lockit@std@@QAE@XZ     1004efa6 f   libcpmt:xlock.obj
 0001:0004dfc5       ?uncaught_exception@std@@YA_NXZ 1004efc5 f   libcpmt:uncaught_exception.obj
 0001:0004dfca       __Getctype                 1004efca f   libcpmt:_tolower.obj
 0001:0004e032       __Tolower                  1004f032 f   libcpmt:_tolower.obj
 0001:0004e130       __Getcvt                   1004f130 f   libcpmt:xwctomb.obj
 0001:0004e1a3       __Toupper                  1004f1a3 f   libcpmt:_toupper.obj
 0001:0004e2a1       ??0_Locimp@locale@std@@AAE@_N@Z 1004f2a1 f i libcpmt:locale0.obj
 0001:0004e2e2       ??1_Fac_node@std@@QAE@XZ   1004f2e2 f i libcpmt:locale0.obj
 0001:0004e341       ??1_Fac_tidy_reg_t@std@@QAE@XZ 1004f341 f i libcpmt:locale0.obj
 0001:0004e368       ??1_Locimp@locale@std@@MAE@XZ 1004f368 f i libcpmt:locale0.obj
 0001:0004e3c1       ??4?$_Yarn@D@std@@QAEAAV01@PBD@Z 1004f3c1 f i libcpmt:locale0.obj
 0001:0004e415       ??_G_Locimp@locale@std@@MAEPAXI@Z 1004f415 f i libcpmt:locale0.obj
 0001:0004e415       ??_E_Locimp@locale@std@@MAEPAXI@Z 1004f415 f i libcpmt:locale0.obj
 0001:0004e437       ?_Facet_Register@std@@YAXPAV_Facet_base@1@@Z 1004f437 f   libcpmt:locale0.obj
 0001:0004e463       ?_Getgloballocale@locale@std@@CAPAV_Locimp@12@XZ 1004f463 f   libcpmt:locale0.obj
 0001:0004e469       ?_Init@locale@std@@CAPAV_Locimp@12@_N@Z 1004f469 f   libcpmt:locale0.obj
 0001:0004e4f9       ?_Locimp_dtor@_Locimp@locale@std@@CAXPAV123@@Z 1004f4f9 f   libcpmt:locale0.obj
 0001:0004e570       ?_Locinfo_ctor@_Locinfo@std@@SAXPAV12@PBD@Z 1004f570 f   libcpmt:locale0.obj
 0001:0004e5bb       ?_Locinfo_dtor@_Locinfo@std@@SAXPAV12@@Z 1004f5bb f   libcpmt:locale0.obj
 0001:0004e5d5       ?_New_Locimp@_Locimp@locale@std@@CAPAV123@_N@Z 1004f5d5 f   libcpmt:locale0.obj
 0001:0004e5f8       ?_Setgloballocale@locale@std@@CAXPAX@Z 1004f5f8 f   libcpmt:locale0.obj
 0001:0004e620       __Deletegloballocale       1004f620 f   libcpmt:locale0.obj
 0001:0004e685       ?_Execute_once@std@@YAHAAUonce_flag@1@P6GHPAX1PAPAX@Z1@Z 1004f685 f   libcpmt:xonce.obj
 0001:0004e69d       ?_Syserror_map@std@@YAPBDH@Z 1004f69d f   libcpmt:syserror.obj
 0001:0004e6c2       ?_Addstd@ios_base@std@@SAXPAV12@@Z 1004f6c2 f   libcpmt:ios.obj
 0001:0004e70e       ?_Callfns@ios_base@std@@AAEXW4event@12@@Z 1004f70e f i libcpmt:ios.obj
 0001:0004e741       ?_Ios_base_dtor@ios_base@std@@CAXPAV12@@Z 1004f741 f   libcpmt:ios.obj
 0001:0004e781       ?_Tidy@ios_base@std@@AAEXXZ 1004f781 f i libcpmt:ios.obj
 0001:0004e7c9       ?setprecision@std@@YA?AU?$_Smanip@_J@1@_J@Z 1004f7c9 f   libcpmt:iomanip.obj
 0001:0004e7f7       __Xtime_diff_to_millis2    1004f7f7 f   libcpmt:xtime.obj
 0001:0004e837       __Xtime_get_ticks          1004f837 f   libcpmt:xtime.obj
 0001:0004e911       _xtime_get                 1004f911 f   libcpmt:xtime.obj
 0001:0004e956       __Thrd_sleep               1004f956 f   libcpmt:cthread.obj
 0001:0004e9c7       ??$_Xfiopen@D@std@@YAPAU_iobuf@@PBDHH@Z 1004f9c7 f i libcpmt:fiopen.obj
 0001:0004ea67       ?_Fiopen@std@@YAPAU_iobuf@@PBDHH@Z 1004fa67 f   libcpmt:fiopen.obj
 0001:0004ea70       ?_Xfsopen@std@@YAPAU_iobuf@@PBDHH@Z 1004fa70 f   libcpmt:fiopen.obj
 0001:0004ea8d       __Mtxdst                   1004fa8d f   libcpmt:xmtx.obj
 0001:0004ea9b       __Mtxinit                  1004fa9b f   libcpmt:xmtx.obj
 0001:0004eab2       __Mtxlock                  1004fab2 f   libcpmt:xmtx.obj
 0001:0004eac0       __Mtxunlock                1004fac0 f   libcpmt:xmtx.obj
 0001:0004eace       ___crtLCMapStringA         1004face f   libcpmt:StlLCMapStringA.obj
 0001:0004eca3       __freea_crt                1004fca3 f i libcpmt:StlLCMapStringA.obj
 0001:0004ecc1       ??1_Init_atexit@@QAE@XZ    1004fcc1 f i libcpmt:iosptrs.obj
 0001:0004ed24       ?_Atexit@@YAXP6AXXZ@Z      1004fd24 f   libcpmt:iosptrs.obj
 0001:0004f0ff       ___crtGetSystemTimePreciseAsFileTime 100500ff f   libcpmt:winapisupp.obj
 0001:0004f129       ___crtInitOnceExecuteOnce  10050129 f   libcpmt:winapisupp.obj
 0001:0004f1b7       ___crtInitializeCriticalSectionEx 100501b7 f   libcpmt:winapisupp.obj
 0001:0004f1f0       _GetTableIndexFromLocaleName 100501f0 f   libcpmt:winapinls.obj
 0001:0004f23e       ___crtDownlevelLocaleNameToLCID 1005023e f   libcpmt:winapinls.obj
 0001:0004f268       ___crtLCMapStringEx        10050268 f   libcpmt:winapinls.obj
 0001:0004f2bf       ___wcsnicmp_ascii          100502bf f   libcpmt:winapinls.obj
 0001:0004f327       ??2@YAPAXI@Z               10050327 f   LIBCMT:new_scalar.obj
 0001:0004f357       ??3@YAXPAXI@Z              10050357 f   LIBCMT:delete_scalar_size.obj
 0001:0004f38c       ??$__crt_fast_encode_pointer@PAX@@YAPAXQAX@Z 1005038c f i libvcruntime:winapi_downlevel.obj
 0001:0004f38c       ??$__crt_fast_encode_pointer@P6GXPAU_RTL_CONDITION_VARIABLE@@@Z@@YAP6GXPAU_RTL_CONDITION_VARIABLE@@@ZQ6GX0@Z@Z 1005038c f i LIBCMT:thread_safe_statics.obj
 0001:0004f38c       ??$__crt_fast_encode_pointer@P6GHPAU_RTL_CONDITION_VARIABLE@@PAU_RTL_CRITICAL_SECTION@@K@Z@@YAP6GHPAU_RTL_CONDITION_VARIABLE@@PAU_RTL_CRITICAL_SECTION@@K@ZQ6GH01K@Z@Z 1005038c f i LIBCMT:thread_safe_statics.obj
 0001:0004f38c       ??$__crt_fast_encode_pointer@PAP6AXXZ@@YAPAP6AXXZQAP6AXXZ@Z 1005038c f i LIBCMT:utility.obj
 0001:0004f4b4       __Init_thread_abort        100504b4 f   LIBCMT:thread_safe_statics.obj
 0001:0004f4d8       __Init_thread_footer       100504d8 f   LIBCMT:thread_safe_statics.obj
 0001:0004f522       __Init_thread_header       10050522 f   LIBCMT:thread_safe_statics.obj
 0001:0004f574       __Init_thread_notify       10050574 f   LIBCMT:thread_safe_statics.obj
 0001:0004f5b6       __Init_thread_wait         100505b6 f   LIBCMT:thread_safe_statics.obj
 0001:0004f620       __alloca_probe             10050620 f   LIBCMT:chkstk.obj
 0001:0004f620       __chkstk                   10050620 f   LIBCMT:chkstk.obj
 0001:0004f650       __ftol2_sse                10050650 f   LIBCMT:ftol2.obj
 0001:0004f659       __ftol2_pentium4           10050659 f   LIBCMT:ftol2.obj
 0001:0004f66c       __ftol2_sse_excpt          1005066c f   LIBCMT:ftol2.obj
 0001:0004f690       __ftol2                    10050690 f   LIBCMT:ftol2.obj
 0001:0004f705       ??_Gtype_info@@UAEPAXI@Z   10050705 f i LIBCMT:std_type_info_static.obj
 0001:0004f705       ??_Etype_info@@UAEPAXI@Z   10050705 f i LIBCMT:std_type_info_static.obj
 0001:0004f728       ??_L@YGXPAXIIP6EX0@Z1@Z    10050728 f   LIBCMT:ehvecctr.obj
 0001:0004f79c       ??_M@YGXPAXIIP6EX0@Z@Z     1005079c f   LIBCMT:ehvecdtr.obj
 0001:0004f821       ?__ArrayUnwind@@YGXPAXIIP6EX0@Z@Z 10050821 f   LIBCMT:ehvecdtr.obj
 0001:0004f8de       ___scrt_acquire_startup_lock 100508de f   LIBCMT:utility.obj
 0001:0004f910       ___scrt_dllmain_after_initialize_c 10050910 f   LIBCMT:utility.obj
 0001:0004f93b       ___scrt_dllmain_before_initialize_c 1005093b f   LIBCMT:utility.obj
 0001:0004f949       ___scrt_dllmain_crt_thread_attach 10050949 f   LIBCMT:utility.obj
 0001:0004f968       ___scrt_dllmain_crt_thread_detach 10050968 f   LIBCMT:utility.obj
 0001:0004f975       ___scrt_dllmain_exception_filter 10050975 f   LIBCMT:utility.obj
 0001:0004f9a9       ___scrt_dllmain_uninitialize_c 100509a9 f   LIBCMT:utility.obj
 0001:0004f9cc       ___scrt_dllmain_uninitialize_critical 100509cc f   LIBCMT:utility.obj
 0001:0004f9d9       ___scrt_initialize_crt     100509d9 f   LIBCMT:utility.obj
 0001:0004fa12       ___scrt_initialize_onexit_tables 10050a12 f   LIBCMT:utility.obj
 0001:0004fab7       ___scrt_is_nonwritable_in_current_image 10050ab7 f   LIBCMT:utility.obj
 0001:0004fb4b       ___scrt_release_startup_lock 10050b4b f   LIBCMT:utility.obj
 0001:0004fb68       ___scrt_uninitialize_crt   10050b68 f   LIBCMT:utility.obj
 0001:0004fb90       __onexit                   10050b90 f   LIBCMT:utility.obj
 0001:0004fbcb       _atexit                    10050bcb f   LIBCMT:utility.obj
 0001:0004fbe0       __ftoui3                   10050be0 f   LIBCMT:ftol3.obj
 0001:0004fbef       __ftoul3                   10050bef f   LIBCMT:ftol3.obj
 0001:0004fbfe       __ftol3                    10050bfe f   LIBCMT:ftol3.obj
 0001:0004fc0b       __ftol3_NaN                10050c0b f   LIBCMT:ftol3.obj
 0001:0004fc23       __ftol3_work               10050c23 f   LIBCMT:ftol3.obj
 0001:0004fca9       __ftol3_common             10050ca9 f   LIBCMT:ftol3.obj
 0001:0004fd6b       __ftol3_arg_error          10050d6b f   LIBCMT:ftol3.obj
 0001:0004fd7d       __ftol3_except             10050d7d f   LIBCMT:ftol3.obj
 0001:0004fdc1       __dtoui3                   10050dc1 f   LIBCMT:ftol3.obj
 0001:0004fdd0       __dtoul3                   10050dd0 f   LIBCMT:ftol3.obj
 0001:0004fddf       __dtol3                    10050ddf f   LIBCMT:ftol3.obj
 0001:0004fdec       __dtol3_NaN                10050dec f   LIBCMT:ftol3.obj
 0001:0004fe09       __dtol3_work               10050e09 f   LIBCMT:ftol3.obj
 0001:0004fef0       __ultod3                   10050ef0 f   LIBCMT:ftol3.obj
 0001:0004ff30       __ltod3                    10050f30 f   LIBCMT:ftol3.obj
 0001:0004ff57       ??_V@YAXPAX@Z              10050f57 f   LIBCMT:delete_array.obj
 0001:0004ff5c       ??_U@YAPAXI@Z              10050f5c f   LIBCMT:new_array.obj
 0001:0004ff70       __alldiv                   10050f70 f   LIBCMT:lldiv.obj
 0001:00050020       __allmul                   10051020 f   LIBCMT:llmul.obj
 0001:00050374       __DllMainCRTStartup@12     10051374 f   LIBCMT:dll_dllmain.obj
 0001:00050397       @__security_check_cookie@4 10051397 f   LIBCMT:secchk.obj
 0001:000503a8       __EH_epilog3               100513a8 f   LIBCMT:ehprolg3.obj
 0001:000503bd       __EH_epilog3_GS            100513bd f   LIBCMT:ehprolg3.obj
 0001:000503ce       __EH_prolog3               100513ce f   LIBCMT:ehprolg3.obj
 0001:00050402       __EH_prolog3_GS            10051402 f   LIBCMT:ehprolg3.obj
 0001:00050439       __EH_prolog3_catch         10051439 f   LIBCMT:ehprolg3.obj
 0001:00050470       @_guard_check_icall_nop@4  10051470 f i LIBCMT:guard_support.obj
 0001:00050480       __aulldvrm                 10051480 f   LIBCMT:ulldvrm.obj
 0001:00050520       __alloca_probe_16          10051520 f   LIBCMT:alloca16.obj
 0001:00050536       __alloca_probe_8           10051536     LIBCMT:alloca16.obj
 0001:00050550       __aulldiv                  10051550 f   LIBCMT:ulldiv.obj
 0001:000505b8       ??0bad_array_new_length@std@@QAE@ABV01@@Z 100515b8 f i LIBCMT:throw_bad_alloc.obj
 0001:000505d3       ??0bad_array_new_length@std@@QAE@XZ 100515d3 f i LIBCMT:throw_bad_alloc.obj
 0001:000505eb       ?__scrt_throw_std_bad_array_new_length@@YAXXZ 100515eb f   LIBCMT:throw_bad_alloc.obj
 0001:00050608       ??3@YAXPAX@Z               10051608 f   LIBCMT:delete_scalar.obj
 0001:0005060d       ___scrt_fastfail           1005160d f   LIBCMT:utility_desktop.obj
 0001:00050727       __crt_debugger_hook        10051727 f   LIBCMT:utility_desktop.obj
 0001:0005072f       ___isa_available_init      1005172f f   LIBCMT:cpu_disp.obj
 0001:000508d0       __SEH_prolog4              100518d0 f   LIBCMT:sehprolg4.obj
 0001:00050916       __SEH_epilog4              10051916 f   LIBCMT:sehprolg4.obj
 0001:0005092b       __get_startup_argv_mode    1005192b f   LIBCMT:argv_mode.obj
 0001:0005092f       ___scrt_is_ucrt_dll_in_use 1005192f f   LIBCMT:ucrt_detection.obj
 0001:00050988       ___security_init_cookie    10051988 f   LIBCMT:gs_support.obj
 0001:000509d3       ?__scrt_initialize_type_info@@YAXXZ 100519d3 f   LIBCMT:tncleanup.obj
 0001:000509df       ?__scrt_uninitialize_type_info@@YAXXZ 100519df f   LIBCMT:tncleanup.obj
 0001:000509eb       ___local_stdio_scanf_options 100519eb f i LIBCMT:default_local_stdio_options.obj
 0001:000509f1       ___scrt_initialize_default_local_stdio_options 100519f1 f   LIBCMT:default_local_stdio_options.obj
 0001:00050a0e       ___scrt_get_dyn_tls_init_callback 10051a0e f   LIBCMT:dyn_tls_init.obj
 0001:00050a14       __RTC_Initialize           10051a14 f   LIBCMT:initsect.obj
 0001:00050a40       __RTC_Terminate            10051a40 f   LIBCMT:initsect.obj
 0001:00050a6c       ___raise_securityfailure   10051a6c f   LIBCMT:gs_report.obj
 0001:00050a94       ___report_gsfailure        10051a94 f   LIBCMT:gs_report.obj
 0001:00050b8d       ___report_rangecheckfailure 10051b8d f   LIBCMT:gs_report.obj
 0001:00050b99       ___report_securityfailure  10051b99 f   LIBCMT:gs_report.obj
 0001:00050c67       ??1_NonReentrantBlockingLock@details@Concurrency@@QAE@XZ 10051c67 f   libconcrt:rtlocks.obj
 0001:00050c6f       ??1DefaultWaiterPool@platform@details@Concurrency@@QAE@XZ 10051c6f f i libconcrt:Platform.obj
 0001:00050c94       ??1WaiterThreadPool@platform@details@Concurrency@@QAE@XZ 10051c94 f i libconcrt:Platform.obj
 0001:00050cb6       ?__TlsFree@platform@details@Concurrency@@YAXK@Z 10051cb6 f   libconcrt:Platform.obj
 0001:00050cc4       ?notify@WaiterThread@platform@details@Concurrency@@AAEX_N@Z 10051cc4 f i libconcrt:Platform.obj
 0001:00050cf8       __concrt_static_cleanup    10051cf8 f   libconcrt:utils.obj
 0001:00050d06       ?InitializeCookie@Security@details@Concurrency@@SAKXZ 10051d06 f   libconcrt:utils.obj
 0001:00050d52       ?CheckOneShotStaticDestruction@SchedulerBase@details@Concurrency@@SAXXZ 10051d52 f   libconcrt:SchedulerBase.obj
 0001:00050d78       ?OneShotStaticDestruction@SchedulerBase@details@Concurrency@@CAXXZ 10051d78 f   libconcrt:SchedulerBase.obj
 0001:00050d91       ?OneShotStaticDestruction@UMSThreadScheduler@details@Concurrency@@SAXXZ 10051d91 f   libconcrt:UMSThreadScheduler.obj
 0001:00050da5       __CxxThrowException@8      10051da5 f   libvcruntime:throw.obj
 0001:00050e12       ?GetRangeOfTrysToCheck@__FrameHandler3@@SA?AU?$pair@Viterator@TryBlockMap@__FrameHandler3@@V123@@std@@AAVTryBlockMap@1@HH@Z 10051e12 f   libvcruntime:trnsctrl.obj
 0001:00050e94       ?_CallCatchBlock2@@YAPAXPAUEHRegistrationNode@@PBU_s_FuncInfo@@PAXHK@Z 10051e94 f   libvcruntime:trnsctrl.obj
 0001:00050ef2       ?_CallSETranslator@@YAHPAUEHExceptionRecord@@PAUEHRegistrationNode@@PAX2PBU_s_FuncInfo@@H1@Z 10051ef2 f   libvcruntime:trnsctrl.obj
 0001:00050fcd       ?_JumpToContinuation@@YGXPAXPAUEHRegistrationNode@@@Z 10051fcd f   libvcruntime:trnsctrl.obj
 0001:00050ffd       ?_UnwindNestedFrames@@YGXPAUEHRegistrationNode@@PAUEHExceptionRecord@@@Z 10051ffd f   libvcruntime:trnsctrl.obj
 0001:00051050       __CatchGuardHandler        10052050 f   libvcruntime:trnsctrl.obj
 0001:00051081       __CreateFrameInfo          10052081 f   libvcruntime:trnsctrl.obj
 0001:000510a5       __FindAndUnlinkFrame       100520a5 f   libvcruntime:trnsctrl.obj
 0001:000510ea       __TranslatorGuardHandler   100520ea f   libvcruntime:trnsctrl.obj
 0001:00051187       ___CxxFrameHandler3        10052187 f   libvcruntime:trnsctrl.obj
 0001:000511bd       _memcmp                    100521bd f   libvcruntime:memcmp.obj
 0001:00052170       _memcpy                    10053170 f   libvcruntime:memcpy.obj
 0001:000526f0       _memmove                   100536f0 f   libvcruntime:memmove.obj
 0001:00052c64       __get_purecall_handler     10053c64 f   libvcruntime:purevirt.obj
 0001:00052c79       __purecall                 10053c79 f   libvcruntime:purevirt.obj
 0001:00052ca0       _memset                    10053ca0 f   libvcruntime:memset.obj
 0001:00052e00       _strstr                    10053e00 f   libvcruntime:strstr.obj
 0001:00053063       ___std_exception_copy      10054063 f   libvcruntime:std_exception.obj
 0001:000530c6       ___std_exception_destroy   100540c6 f   libvcruntime:std_exception.obj
 0001:000530f0       _memchr                    100540f0 f   libvcruntime:memchr.obj
 0001:0005319d       ___uncaught_exception      1005419d f   libvcruntime:uncaught_exception.obj
 0001:000531b1       ___DestructExceptionObject 100541b1 f   libvcruntime:ehhelpers.obj
 0001:00053251       ?_CallMemberFunction0@@YGXQAX0@Z 10054251 f i libvcruntime:ehhelpers.obj
 0001:0005325e       __IsExceptionObjectToBeDestroyed 1005425e f   libvcruntime:ehhelpers.obj
 0001:00053284       ___AdjustPointer           10054284 f   libvcruntime:ehhelpers.obj
 0001:000532a9       ___FrameUnwindFilter       100542a9 f   libvcruntime:ehhelpers.obj
 0001:00053330       __except_handler4          10054330 f   libvcruntime:chandler4.obj
 0001:00053487       ___vcrt_initialize         10054487 f   libvcruntime:initialization.obj
 0001:000534b0       ___vcrt_thread_attach      100544b0 f   libvcruntime:initialization.obj
 0001:000534bb       ___vcrt_thread_detach      100544bb f   libvcruntime:initialization.obj
 0001:000534c6       ___vcrt_uninitialize       100544c6 f   libvcruntime:initialization.obj
 0001:000534e5       ___vcrt_uninitialize_critical 100544e5 f   libvcruntime:initialization.obj
 0001:000534ed       ___std_type_info_compare   100544ed f   libvcruntime:std_type_info.obj
 0001:00053529       ___std_type_info_destroy_list 10054529 f   libvcruntime:std_type_info.obj
 0001:0005354c       ___vcrt_freefls@4          1005454c f   libvcruntime:per_thread_data.obj
 0001:00053568       ___vcrt_freeptd            10054568 f   libvcruntime:per_thread_data.obj
 0001:0005359e       ___vcrt_getptd             1005459e f   libvcruntime:per_thread_data.obj
 0001:000535ac       ___vcrt_getptd_noexit      100545ac f   libvcruntime:per_thread_data.obj
 0001:0005363e       ___vcrt_getptd_noinit      1005463e f   libvcruntime:per_thread_data.obj
 0001:00053675       ___vcrt_initialize_ptd     10054675 f   libvcruntime:per_thread_data.obj
 0001:000536a8       ___vcrt_uninitialize_ptd   100546a8 f   libvcruntime:per_thread_data.obj
 0001:00053dba       ??$TypeMatchHelper@V__FrameHandler3@@@@YAHPBU_s_HandlerType@@PBU_s_CatchableType@@PBU_s_ThrowInfo@@@Z 10054dba f i libvcruntime:frame.obj
 0001:00053e48       ??$__InternalCxxFrameHandler@V__FrameHandler3@@@@YA?AW4_EXCEPTION_DISPOSITION@@PAUEHExceptionRecord@@PAUEHRegistrationNode@@PAU_CONTEXT@@PAXPBU_s_FuncInfo@@H1E@Z 10054e48 f i libvcruntime:frame.obj
 0001:00053f4a       ??0bad_exception@std@@QAE@ABV01@@Z 10054f4a f i libvcruntime:frame.obj
 0001:00053f65       ??0bad_exception@std@@QAE@XZ 10054f65 f i libvcruntime:frame.obj
 0001:00053f7d       ??8type_info@@QBE_NABV0@@Z 10054f7d f i libvcruntime:frame.obj
 0001:000541e4       ?FrameUnwindToEmptyState@__FrameHandler3@@SAXPAUEHRegistrationNode@@PAXPBU_s_FuncInfo@@@Z 100551e4 f   libvcruntime:frame.obj
 0001:000541fc       ?FrameUnwindToState@__FrameHandler3@@SAXPAUEHRegistrationNode@@PAXPBU_s_FuncInfo@@H@Z 100551fc f   libvcruntime:frame.obj
 0001:0005437e       ?_CallMemberFunction1@@YGXQAX00@Z 1005537e f i libvcruntime:frame.obj
 0001:0005438e       ?_CallMemberFunction2@@YGXQAX00H@Z 1005538e f i libvcruntime:frame.obj
 0001:000543a1       ?getESTypes@__FrameHandler3@@SAPBU_s_ESTypeList@@PBU_s_FuncInfo@@@Z 100553a1 f i libvcruntime:frame.obj
 0001:000543b0       __CallSettingFrame@12      100553b0 f   libvcruntime:lowhelpr.obj
 0001:000543d7       __NLG_Return               100553d7     libvcruntime:lowhelpr.obj
 0001:000543fc       ___except_validate_context_record 100553fc f   libvcruntime:jbcxrval.obj
 0001:0005442c       ___except_validate_jump_buffer 1005542c f   libvcruntime:jbcxrval.obj
 0001:00054459       ___vcrt_initialize_pure_virtual_call_handler 10055459 f   libvcruntime:purevirt_data.obj
 0001:00054470       _strchr                    10055470 f   libvcruntime:strchr.obj
 0001:000544de       ___from_strstr_to_strchr   100554de     libvcruntime:strchr.obj
 0001:000545a0       __local_unwind4            100555a0 f   libvcruntime:exsup4.obj
 0001:00054678       __seh_longjmp_unwind4@4    10055678 f   libvcruntime:exsup4.obj
 0001:000546a0       @_EH4_CallFilterFunc@8     100556a0 f   libvcruntime:exsup4.obj
 0001:000546b8       @_EH4_TransferToHandler@8  100556b8 f   libvcruntime:exsup4.obj
 0001:000546d4       @_EH4_GlobalUnwind2@8      100556d4 f   libvcruntime:exsup4.obj
 0001:000546f0       @_EH4_LocalUnwind@16       100556f0 f   libvcruntime:exsup4.obj
 0001:00054707       ___vcrt_initialize_locks   10055707 f   libvcruntime:locks.obj
 0001:00054743       ___vcrt_uninitialize_locks 10055743 f   libvcruntime:locks.obj
 0001:000548a5       ___vcrt_FlsAlloc           100558a5 f   libvcruntime:winapi_downlevel.obj
 0001:000548e0       ___vcrt_FlsFree            100558e0 f   libvcruntime:winapi_downlevel.obj
 0001:0005491b       ___vcrt_FlsGetValue        1005591b f   libvcruntime:winapi_downlevel.obj
 0001:00054956       ___vcrt_FlsSetValue        10055956 f   libvcruntime:winapi_downlevel.obj
 0001:00054994       ___vcrt_InitializeCriticalSectionEx 10055994 f   libvcruntime:winapi_downlevel.obj
 0001:000549db       ___vcrt_initialize_winapi_thunks 100559db f   libvcruntime:winapi_downlevel.obj
 0001:00054a04       ___vcrt_uninitialize_winapi_thunks 10055a04 f   libvcruntime:winapi_downlevel.obj
 0001:00054a36       _unexpected                10055a36 f   libvcruntime:unexpected.obj
 0001:00054a53       ?GetCurrentState@__FrameHandler3@@SAHPAUEHRegistrationNode@@PAXPBU_s_FuncInfo@@@Z 10055a53 f   libvcruntime:ehstate.obj
 0001:00054a70       ?SetState@__FrameHandler3@@SAXPAUEHRegistrationNode@@PBU_s_FuncInfo@@H@Z 10055a70 f   libvcruntime:ehstate.obj
 0001:00054a80       __global_unwind2           10055a80 f   libvcruntime:exsup.obj
 0001:00054ae6       __local_unwind2            10055ae6 f   libvcruntime:exsup.obj
 0001:00054b6a       __abnormal_termination     10055b6a f   libvcruntime:exsup.obj
 0001:00054b90       __NLG_Notify1              10055b90 f   libvcruntime:exsup.obj
 0001:00054b9c       __NLG_Notify               10055b9c f   libvcruntime:exsup.obj
 0001:00054bb3       __NLG_Dispatch             10055bb3     libvcruntime:exsup.obj
 0001:00054bb3       __NLG_Dispatch2            10055bb3     libvcruntime:exsup.obj
 0001:00054bbb       __NLG_Call                 10055bbb f   libvcruntime:exsup.obj
 0001:00054bbd       __NLG_Return2              10055bbd     libvcruntime:exsup.obj
 0001:00054bbe       ___acrt_call_reportfault   10055bbe f   libucrt:invalid_parameter.obj
 0001:00054cf9       ___acrt_initialize_invalid_parameter_handler 10055cf9 f   libucrt:invalid_parameter.obj
 0001:00054d08       __invalid_parameter        10055d08 f   libucrt:invalid_parameter.obj
 0001:00054d83       __invalid_parameter_noinfo 10055d83 f   libucrt:invalid_parameter.obj
 0001:00054d93       __invalid_parameter_noinfo_noreturn 10055d93 f   libucrt:invalid_parameter.obj
 0001:00054db0       __invoke_watson            10055db0 f   libucrt:invalid_parameter.obj
 0001:00054df0       __libm_sse2_cos_precise    10055df0 f   libucrt:cos_sse2_precise.obj
 0001:00054fb0       __libm_sse2_sin_precise    10055fb0 f   libucrt:sin_sse2_precise.obj
 0001:00055180       __libm_sse2_sqrt_precise   10056180 f   libucrt:sqrt_sse2_precise.obj
 0001:00055280       _fmaxf                     10056280 f   libucrt:fmaxf.obj
 0001:000552e0       __CIatan2                  100562e0 f   libucrt:87ctriga.obj
 0001:000552f0       __libm_sse2_atan_precise   100562f0 f   libucrt:atan_sse2_precise.obj
 0001:000555e0       __libm_sse2_pow_precise    100565e0 f   libucrt:pow_sse2_precise.obj
 0001:00056130       _ceil                      10057130 f   libucrt:ceil_pentium4.obj
 0001:00056170       __ceil_pentium4            10057170 f   libucrt:ceil_pentium4.obj
 0001:0005624d       _roundf                    1005724d f   libucrt:roundf.obj
 0001:000562a0       __CIfmod                   100572a0 f   libucrt:87fmod_impl.obj
 0001:000562b0       __fFMOD                    100572b0 f   libucrt:87fmod_impl.obj
 0001:000562be       _rand                      100572be f   libucrt:rand.obj
 0001:000562e0       _floor                     100572e0 f   libucrt:floor_pentium4.obj
 0001:00056320       __floor_pentium4           10057320 f   libucrt:floor_pentium4.obj
 0001:000563dd       _calloc                    100573dd f   libucrt:calloc.obj
 0001:000563e8       _free                      100573e8 f   libucrt:free.obj
 0001:00056405       _frexp                     10057405 f   libucrt:frexp.obj
 0001:00056501       _terminate                 10057501 f   libucrt:terminate.obj
 0001:000568b5       ??$count@D@formatting_buffer@__crt_stdio_output@@QBEIXZ 100578b5 f i libucrt:output.obj
 0001:000568cd       ??$ensure_buffer_is_big_enough@D@formatting_buffer@__crt_stdio_output@@QAE_NI@Z 100578cd f i libucrt:output.obj
 0001:0005694c       ??$is_wide_character_specifier@D@__crt_stdio_output@@YA_N_KDW4length_modifier@0@@Z 1005794c f i libucrt:output.obj
 0001:0005697d       ??$scratch_data@D@formatting_buffer@__crt_stdio_output@@QAEPADXZ 1005797d f i libucrt:output.obj
 0001:0005699b       ??$type_case_integer_parse_into_buffer@I@?$output_processor@DV?$string_output_adapter@D@__crt_stdio_output@@V?$format_validation_base@DV?$string_output_adapter@D@__crt_stdio_output@@@2@@__crt_stdio_output@@AAEXII_N@Z 1005799b f i libucrt:output.obj
 0001:0005699b       ??$type_case_integer_parse_into_buffer@I@?$output_processor@DV?$string_output_adapter@D@__crt_stdio_output@@V?$standard_base@DV?$string_output_adapter@D@__crt_stdio_output@@@2@@__crt_stdio_output@@AAEXII_N@Z 1005799b f i libucrt:output.obj
 0001:00056a0e       ??$type_case_integer_parse_into_buffer@_K@?$output_processor@DV?$string_output_adapter@D@__crt_stdio_output@@V?$format_validation_base@DV?$string_output_adapter@D@__crt_stdio_output@@@2@@__crt_stdio_output@@AAEX_KI_N@Z 10057a0e f i libucrt:output.obj
 0001:00056a0e       ??$type_case_integer_parse_into_buffer@_K@?$output_processor@DV?$string_output_adapter@D@__crt_stdio_output@@V?$standard_base@DV?$string_output_adapter@D@__crt_stdio_output@@@2@@__crt_stdio_output@@AAEX_KI_N@Z 10057a0e f i libucrt:output.obj
 0001:00056a9d       ??$write_multiple_characters@V?$string_output_adapter@D@__crt_stdio_output@@D@__crt_stdio_output@@YAXABV?$string_output_adapter@D@0@DHQAH@Z 10057a9d f i libucrt:output.obj
 0001:00056ac9       ??0?$common_data@D@__crt_stdio_output@@IAE@XZ 10057ac9 f i libucrt:output.obj
 0001:00056b10       ??0?$output_adapter_data@DV?$string_output_adapter@D@__crt_stdio_output@@@__crt_stdio_output@@IAE@ABV?$string_output_adapter@D@1@_KQBDQAU__crt_locale_pointers@@QAD@Z 10057b10 f i libucrt:output.obj
 0001:00056b4c       ??0_LocaleUpdate@@QAE@QAU__crt_locale_pointers@@@Z 10057b4c f i libucrt:output.obj
 0001:00056bcf       ??1_LocaleUpdate@@QAE@XZ   10057bcf f i libucrt:output.obj
 0001:00056bdf       ??1formatting_buffer@__crt_stdio_output@@QAE@XZ 10057bdf f i libucrt:output.obj
 0001:00056bf9       ??4?$__crt_unique_heap_ptr@DU__crt_internal_free_policy@@@@QAEAAV0@$$QAV0@@Z 10057bf9 f i libucrt:output.obj
 0001:00056c1d       ?crop_zeroes@__crt_stdio_output@@YAXPADQAU__crt_locale_pointers@@@Z 10057c1d f i libucrt:output.obj
 0001:00056c7d       ?find_next_state@?$output_processor@DV?$string_output_adapter@D@__crt_stdio_output@@V?$format_validation_base@DV?$string_output_adapter@D@__crt_stdio_output@@@2@@__crt_stdio_output@@ABE?AW4state@2@DW432@@Z 10057c7d f i libucrt:output.obj
 0001:00056cbf       ?find_next_state@?$output_processor@DV?$string_output_adapter@D@__crt_stdio_output@@V?$standard_base@DV?$string_output_adapter@D@__crt_stdio_output@@@2@@__crt_stdio_output@@ABE?AW4state@2@DW432@@Z 10057cbf f i libucrt:output.obj
 0001:00056cfe       ?force_decimal_point@__crt_stdio_output@@YAXPADQAU__crt_locale_pointers@@@Z 10057cfe f i libucrt:output.obj
 0001:00056d5a       ?parse_int_from_format_string@?$output_processor@DV?$string_output_adapter@D@__crt_stdio_output@@V?$format_validation_base@DV?$string_output_adapter@D@__crt_stdio_output@@@2@@__crt_stdio_output@@AAE_NQAH@Z 10057d5a f i libucrt:output.obj
 0001:00056d5a       ?parse_int_from_format_string@?$output_processor@DV?$string_output_adapter@D@__crt_stdio_output@@V?$standard_base@DV?$string_output_adapter@D@__crt_stdio_output@@@2@@__crt_stdio_output@@AAE_NQAH@Z 10057d5a f i libucrt:output.obj
 0001:00056dd0       ?process@?$output_processor@DV?$string_output_adapter@D@__crt_stdio_output@@V?$format_validation_base@DV?$string_output_adapter@D@__crt_stdio_output@@@2@@__crt_stdio_output@@QAEHXZ 10057dd0 f i libucrt:output.obj
 0001:00056ef8       ?process@?$output_processor@DV?$string_output_adapter@D@__crt_stdio_output@@V?$standard_base@DV?$string_output_adapter@D@__crt_stdio_output@@@2@@__crt_stdio_output@@QAEHXZ 10057ef8 f i libucrt:output.obj
 0001:00057014       ?state_case_flag@?$output_processor@DV?$string_output_adapter@D@__crt_stdio_output@@V?$standard_base@DV?$string_output_adapter@D@__crt_stdio_output@@@2@@__crt_stdio_output@@AAE_NXZ 10058014 f i libucrt:output.obj
 0001:00057014       ?state_case_flag@?$output_processor@DV?$string_output_adapter@D@__crt_stdio_output@@V?$format_validation_base@DV?$string_output_adapter@D@__crt_stdio_output@@@2@@__crt_stdio_output@@AAE_NXZ 10058014 f i libucrt:output.obj
 0001:00057051       ?state_case_normal@?$output_processor@DV?$string_output_adapter@D@__crt_stdio_output@@V?$format_validation_base@DV?$string_output_adapter@D@__crt_stdio_output@@@2@@__crt_stdio_output@@AAE_NXZ 10058051 f i libucrt:output.obj
 0001:00057051       ?state_case_normal@?$output_processor@DV?$string_output_adapter@D@__crt_stdio_output@@V?$standard_base@DV?$string_output_adapter@D@__crt_stdio_output@@@2@@__crt_stdio_output@@AAE_NXZ 10058051 f i libucrt:output.obj
 0001:00057070       ?state_case_normal_common@?$output_processor@DV?$string_output_adapter@D@__crt_stdio_output@@V?$standard_base@DV?$string_output_adapter@D@__crt_stdio_output@@@2@@__crt_stdio_output@@AAE_NXZ 10058070 f i libucrt:output.obj
 0001:00057070       ?state_case_normal_common@?$output_processor@DV?$string_output_adapter@D@__crt_stdio_output@@V?$format_validation_base@DV?$string_output_adapter@D@__crt_stdio_output@@@2@@__crt_stdio_output@@AAE_NXZ 10058070 f i libucrt:output.obj
 0001:0005709a       ?state_case_normal_tchar@?$output_processor@DV?$string_output_adapter@D@__crt_stdio_output@@V?$format_validation_base@DV?$string_output_adapter@D@__crt_stdio_output@@@2@@__crt_stdio_output@@AAE_ND@Z 1005809a f i libucrt:output.obj
 0001:0005709a       ?state_case_normal_tchar@?$output_processor@DV?$string_output_adapter@D@__crt_stdio_output@@V?$standard_base@DV?$string_output_adapter@D@__crt_stdio_output@@@2@@__crt_stdio_output@@AAE_ND@Z 1005809a f i libucrt:output.obj
 0001:000570f3       ?state_case_precision@?$output_processor@DV?$string_output_adapter@D@__crt_stdio_output@@V?$format_validation_base@DV?$string_output_adapter@D@__crt_stdio_output@@@2@@__crt_stdio_output@@AAE_NXZ 100580f3 f i libucrt:output.obj
 0001:000570f3       ?state_case_precision@?$output_processor@DV?$string_output_adapter@D@__crt_stdio_output@@V?$standard_base@DV?$string_output_adapter@D@__crt_stdio_output@@@2@@__crt_stdio_output@@AAE_NXZ 100580f3 f i libucrt:output.obj
 0001:00057119       ?state_case_size@?$output_processor@DV?$string_output_adapter@D@__crt_stdio_output@@V?$format_validation_base@DV?$string_output_adapter@D@__crt_stdio_output@@@2@@__crt_stdio_output@@AAE_NXZ 10058119 f i libucrt:output.obj
 0001:00057119       ?state_case_size@?$output_processor@DV?$string_output_adapter@D@__crt_stdio_output@@V?$standard_base@DV?$string_output_adapter@D@__crt_stdio_output@@@2@@__crt_stdio_output@@AAE_NXZ 10058119 f i libucrt:output.obj
 0001:00057273       ?state_case_type@?$output_processor@DV?$string_output_adapter@D@__crt_stdio_output@@V?$format_validation_base@DV?$string_output_adapter@D@__crt_stdio_output@@@2@@__crt_stdio_output@@AAE_NXZ 10058273 f i libucrt:output.obj
 0001:00057273       ?state_case_type@?$output_processor@DV?$string_output_adapter@D@__crt_stdio_output@@V?$standard_base@DV?$string_output_adapter@D@__crt_stdio_output@@@2@@__crt_stdio_output@@AAE_NXZ 10058273 f i libucrt:output.obj
 0001:0005749c       ?state_case_width@?$output_processor@DV?$string_output_adapter@D@__crt_stdio_output@@V?$format_validation_base@DV?$string_output_adapter@D@__crt_stdio_output@@@2@@__crt_stdio_output@@AAE_NXZ 1005849c f i libucrt:output.obj
 0001:0005749c       ?state_case_width@?$output_processor@DV?$string_output_adapter@D@__crt_stdio_output@@V?$standard_base@DV?$string_output_adapter@D@__crt_stdio_output@@@2@@__crt_stdio_output@@AAE_NXZ 1005849c f i libucrt:output.obj
 0001:000574c7       ?to_integer_size@__crt_stdio_output@@YAIW4length_modifier@1@@Z 100584c7 f i libucrt:output.obj
 0001:00057523       ?type_case_Z@?$output_processor@DV?$string_output_adapter@D@__crt_stdio_output@@V?$format_validation_base@DV?$string_output_adapter@D@__crt_stdio_output@@@2@@__crt_stdio_output@@AAE_NXZ 10058523 f i libucrt:output.obj
 0001:00057523       ?type_case_Z@?$output_processor@DV?$string_output_adapter@D@__crt_stdio_output@@V?$standard_base@DV?$string_output_adapter@D@__crt_stdio_output@@@2@@__crt_stdio_output@@AAE_NXZ 10058523 f i libucrt:output.obj
 0001:00057584       ?type_case_a@?$output_processor@DV?$string_output_adapter@D@__crt_stdio_output@@V?$standard_base@DV?$string_output_adapter@D@__crt_stdio_output@@@2@@__crt_stdio_output@@AAE_NXZ 10058584 f i libucrt:output.obj
 0001:00057584       ?type_case_a@?$output_processor@DV?$string_output_adapter@D@__crt_stdio_output@@V?$format_validation_base@DV?$string_output_adapter@D@__crt_stdio_output@@@2@@__crt_stdio_output@@AAE_NXZ 10058584 f i libucrt:output.obj
 0001:000576dd       ?type_case_c_tchar@?$output_processor@DV?$string_output_adapter@D@__crt_stdio_output@@V?$format_validation_base@DV?$string_output_adapter@D@__crt_stdio_output@@@2@@__crt_stdio_output@@AAE_ND@Z 100586dd f i libucrt:output.obj
 0001:000576dd       ?type_case_c_tchar@?$output_processor@DV?$string_output_adapter@D@__crt_stdio_output@@V?$standard_base@DV?$string_output_adapter@D@__crt_stdio_output@@@2@@__crt_stdio_output@@AAE_ND@Z 100586dd f i libucrt:output.obj
 0001:0005776d       ?type_case_integer@?$output_processor@DV?$string_output_adapter@D@__crt_stdio_output@@V?$standard_base@DV?$string_output_adapter@D@__crt_stdio_output@@@2@@__crt_stdio_output@@AAE_NI_N@Z 1005876d f i libucrt:output.obj
 0001:0005776d       ?type_case_integer@?$output_processor@DV?$string_output_adapter@D@__crt_stdio_output@@V?$format_validation_base@DV?$string_output_adapter@D@__crt_stdio_output@@@2@@__crt_stdio_output@@AAE_NI_N@Z 1005876d f i libucrt:output.obj
 0001:000578c0       ?type_case_n@?$output_processor@DV?$string_output_adapter@D@__crt_stdio_output@@V?$standard_base@DV?$string_output_adapter@D@__crt_stdio_output@@@2@@__crt_stdio_output@@AAE_NXZ 100588c0 f i libucrt:output.obj
 0001:000578c0       ?type_case_n@?$output_processor@DV?$string_output_adapter@D@__crt_stdio_output@@V?$format_validation_base@DV?$string_output_adapter@D@__crt_stdio_output@@@2@@__crt_stdio_output@@AAE_NXZ 100588c0 f i libucrt:output.obj
 0001:00057934       ?type_case_o@?$output_processor@DV?$string_output_adapter@D@__crt_stdio_output@@V?$format_validation_base@DV?$string_output_adapter@D@__crt_stdio_output@@@2@@__crt_stdio_output@@AAE_NXZ 10058934 f i libucrt:output.obj
 0001:00057934       ?type_case_o@?$output_processor@DV?$string_output_adapter@D@__crt_stdio_output@@V?$standard_base@DV?$string_output_adapter@D@__crt_stdio_output@@@2@@__crt_stdio_output@@AAE_NXZ 10058934 f i libucrt:output.obj
 0001:00057953       ?type_case_p@?$output_processor@DV?$string_output_adapter@D@__crt_stdio_output@@V?$standard_base@DV?$string_output_adapter@D@__crt_stdio_output@@@2@@__crt_stdio_output@@AAE_NXZ 10058953 f i libucrt:output.obj
 0001:00057953       ?type_case_p@?$output_processor@DV?$string_output_adapter@D@__crt_stdio_output@@V?$format_validation_base@DV?$string_output_adapter@D@__crt_stdio_output@@@2@@__crt_stdio_output@@AAE_NXZ 10058953 f i libucrt:output.obj
 0001:0005796b       ?type_case_s@?$output_processor@DV?$string_output_adapter@D@__crt_stdio_output@@V?$format_validation_base@DV?$string_output_adapter@D@__crt_stdio_output@@@2@@__crt_stdio_output@@AAE_NXZ 1005896b f i libucrt:output.obj
 0001:0005796b       ?type_case_s@?$output_processor@DV?$string_output_adapter@D@__crt_stdio_output@@V?$standard_base@DV?$string_output_adapter@D@__crt_stdio_output@@@2@@__crt_stdio_output@@AAE_NXZ 1005896b f i libucrt:output.obj
 0001:000579dc       ?validate@?$c_string_character_source@_W@__crt_strtox@@QBE_NXZ 100589dc f i libucrt:atof.obj
 0001:000579dc       ?validate@?$string_output_adapter@D@__crt_stdio_output@@QBE_NXZ 100589dc f i libucrt:output.obj
 0001:000579dc       ?validate@?$c_string_character_source@D@__crt_strtox@@QBE_NXZ 100589dc f i libucrt:atof.obj
 0001:000579f7       ?validate_and_update_state_at_end_of_format_string@?$format_validation_base@DV?$string_output_adapter@D@__crt_stdio_output@@@__crt_stdio_output@@IBE_NXZ 100589f7 f i libucrt:output.obj
 0001:00057a19       ?write_character@?$string_output_adapter@D@__crt_stdio_output@@QBE_NDQAH@Z 10058a19 f i libucrt:output.obj
 0001:00057a5b       ?write_stored_string_tchar@?$output_processor@DV?$string_output_adapter@D@__crt_stdio_output@@V?$format_validation_base@DV?$string_output_adapter@D@__crt_stdio_output@@@2@@__crt_stdio_output@@AAE_ND@Z 10058a5b f i libucrt:output.obj
 0001:00057a5b       ?write_stored_string_tchar@?$output_processor@DV?$string_output_adapter@D@__crt_stdio_output@@V?$standard_base@DV?$string_output_adapter@D@__crt_stdio_output@@@2@@__crt_stdio_output@@AAE_ND@Z 10058a5b f i libucrt:output.obj
 0001:00057b04       ?write_string@?$string_output_adapter@D@__crt_stdio_output@@QBEXQBDHQAHAAV__crt_deferred_errno_cache@@@Z 10058b04 f i libucrt:output.obj
 0001:00057b6b       ___stdio_common_vsprintf   10058b6b f   libucrt:output.obj
 0001:00057b8f       ___stdio_common_vsprintf_s 10058b8f f   libucrt:output.obj
 0001:00057bc0       _strcspn                   10058bc0 f   libucrt:strcspn.obj
 0001:00057c06       _localeconv                10058c06 f   libucrt:localeconv.obj
 0001:00057dd5       __mbstowcs_l               10058dd5 f   libucrt:mbstowcs.obj
 0001:00057de0       __mbstowcs_s_l             10058de0 f   libucrt:mbstowcs.obj
 0001:00057ec2       _mbstowcs                  10058ec2 f   libucrt:mbstowcs.obj
 0001:00057eec       _mbstowcs_s                10058eec f   libucrt:mbstowcs.obj
 0001:00057f71       ___acrt_initialize_clock   10058f71 f   libucrt:clock.obj
 0001:00057fd7       _clock                     10058fd7 f   libucrt:clock.obj
 0001:00058040       __libm_sse2_asin_precise   10059040 f   libucrt:asin_sse2_precise.obj
 0001:00058850       __chvalidchk_l             10059850 f i libucrt:tolower_toupper.obj
 0001:00058876       __ischartype_l             10059876 f i libucrt:tolower_toupper.obj
 0001:000588a9       __tolower_l                100598a9 f   libucrt:tolower_toupper.obj
 0001:000588c3       __toupper_l                100598c3 f   libucrt:tolower_toupper.obj
 0001:000588dd       _tolower                   100598dd f   libucrt:tolower_toupper.obj
 0001:0005890d       _toupper                   1005990d f   libucrt:tolower_toupper.obj
 0001:0005893d       ??$assemble_floating_point_snan@N@__crt_strtox@@YAX_NAAN@Z 1005993d f i libucrt:atof.obj
 0001:0005895e       ??$assemble_floating_point_value_t@M@__crt_strtox@@YA?AW4SLD_STATUS@@_NH_KAAM@Z 1005995e f i libucrt:atof.obj
 0001:0005898e       ??$assemble_floating_point_value_t@N@__crt_strtox@@YA?AW4SLD_STATUS@@_NH_KAAN@Z 1005998e f i libucrt:atof.obj
 0001:00058a36       ??$convert_decimal_string_to_floating_type@N@__crt_strtox@@YA?AW4SLD_STATUS@@ABUfloating_point_string@0@AAN@Z 10059a36 f i libucrt:atof.obj
 0001:00058a59       ??$convert_hexadecimal_string_to_floating_type@N@__crt_strtox@@YA?AW4SLD_STATUS@@ABUfloating_point_string@0@AAN@Z 10059a59 f i libucrt:atof.obj
 0001:00058a7c       ??$parse_floating_point@V?$c_string_character_source@D@__crt_strtox@@N@__crt_strtox@@YA?AW4SLD_STATUS@@QAU__crt_locale_pointers@@V?$c_string_character_source@D@0@QAN@Z 10059a7c f i libucrt:atof.obj
 0001:00058af2       ??$parse_floating_point_from_source@V?$c_string_character_source@D@__crt_strtox@@@__crt_strtox@@YA?AW4floating_point_parse_result@0@QAU__crt_locale_pointers@@AAV?$c_string_character_source@D@0@AAUfloating_point_string@0@@Z 10059af2 f i libucrt:atof.obj
 0001:00058ee4       ??$parse_floating_point_possible_infinity@DV?$c_string_character_source@D@__crt_strtox@@PBD@__crt_strtox@@YA?AW4floating_point_parse_result@0@AADAAV?$c_string_character_source@D@0@PBD@Z 10059ee4 f i libucrt:atof.obj
 0001:00058f88       ??$parse_floating_point_possible_nan@DV?$c_string_character_source@D@__crt_strtox@@PBD@__crt_strtox@@YA?AW4floating_point_parse_result@0@AADAAV?$c_string_character_source@D@0@PBD@Z 10059f88 f i libucrt:atof.obj
 0001:0005909c       ??$parse_floating_point_possible_nan_is_ind@DV?$c_string_character_source@D@__crt_strtox@@@__crt_strtox@@YA_NAADAAV?$c_string_character_source@D@0@@Z 1005a09c f i libucrt:atof.obj
 0001:000590d8       ??$parse_floating_point_possible_nan_is_snan@DV?$c_string_character_source@D@__crt_strtox@@@__crt_strtox@@YA_NAADAAV?$c_string_character_source@D@0@@Z 1005a0d8 f i libucrt:atof.obj
 0001:00059114       ??$parse_floating_point_write_result@N@__crt_strtox@@YA?AW4SLD_STATUS@@W4floating_point_parse_result@0@ABUfloating_point_string@0@QAN@Z 1005a114 f i libucrt:atof.obj
 0001:0005925e       ?as_double@floating_point_value@__crt_strtox@@QBEAANXZ 1005a25e f i libucrt:atof.obj
 0001:00059283       ?as_float@floating_point_value@__crt_strtox@@QBEAAMXZ 1005a283 f i libucrt:atof.obj
 0001:000592a8       ?assemble_floating_point_infinity@__crt_strtox@@YAX_NABVfloating_point_value@1@@Z 1005a2a8 f i libucrt:atof.obj
 0001:000592eb       ?assemble_floating_point_value@__crt_strtox@@YA?AW4SLD_STATUS@@_KH_N1ABVfloating_point_value@1@@Z 1005a2eb f i libucrt:atof.obj
 0001:00059631       ?assemble_floating_point_value_from_big_integer@__crt_strtox@@YA?AW4SLD_STATUS@@ABUbig_integer@1@I_N1ABVfloating_point_value@1@@Z 1005a631 f i libucrt:atof.obj
 0001:000597c7       ?assemble_floating_point_zero@__crt_strtox@@YAX_NABVfloating_point_value@1@@Z 1005a7c7 f i libucrt:atof.obj
 0001:000597ff       ?convert_decimal_string_to_floating_type_common@__crt_strtox@@YA?AW4SLD_STATUS@@ABUfloating_point_string@1@ABVfloating_point_value@1@@Z 1005a7ff f i libucrt:atof.obj
 0001:0005b574       ?convert_hexadecimal_string_to_floating_type_common@__crt_strtox@@YA?AW4SLD_STATUS@@ABUfloating_point_string@1@ABVfloating_point_value@1@@Z 1005c574 f i libucrt:atof.obj
 0001:0005b61c       ?denormal_mantissa_mask@floating_point_value@__crt_strtox@@QBE_KXZ 1005c61c f i libucrt:atof.obj
